 TI_DELETE

 Timestamp is 5c91d7f5 (Wed Mar 20 15:04:37 2019)

 Preferred load address is 0000000140000000

 Start         Length     Name                   Class
 0001:00000000 000000b0H .text$di                CODE
 0001:000000b0 000109e0H .text$mn                CODE
 0001:00010a90 00000020H .text$mn$00             CODE
 0001:00010ab0 00000ac0H .text$x                 CODE
 0001:00011570 0000008fH .text$yd                CODE
 0002:00000000 00000c30H .idata$5                DATA
 0002:00000c30 00000010H .00cfg                  DATA
 0002:00000c40 00000008H .CRT$XCA                DATA
 0002:00000c48 00000008H .CRT$XCAA               DATA
 0002:00000c50 00000018H .CRT$XCL                DATA
 0002:00000c68 00000010H .CRT$XCU                DATA
 0002:00000c78 00000008H .CRT$XCZ                DATA
 0002:00000c80 00000008H .CRT$XIA                DATA
 0002:00000c88 00000008H .CRT$XIAA               DATA
 0002:00000c90 00000008H .CRT$XIAC               DATA
 0002:00000c98 00000008H .CRT$XIC                DATA
 0002:00000ca0 00000008H .CRT$XIZ                DATA
 0002:00000ca8 00000008H .CRT$XLA                DATA
 0002:00000cb0 00000008H .CRT$XLZ                DATA
 0002:00000cb8 00000008H .CRT$XPA                DATA
 0002:00000cc0 00000008H .CRT$XPZ                DATA
 0002:00000cc8 00000008H .CRT$XTA                DATA
 0002:00000cd0 00000010H .CRT$XTZ                DATA
 0002:00000ce0 00003528H .rdata                  DATA
 0002:00004208 00000028H .rdata$T                DATA
 0002:00004230 00001444H .rdata$r                DATA
 0002:00005674 0000040cH .rdata$zzzdbg           DATA
 0002:00005a80 00000008H .rtc$IAA                DATA
 0002:00005a88 00000008H .rtc$IZZ                DATA
 0002:00005a90 00000008H .rtc$TAA                DATA
 0002:00005a98 00000008H .rtc$TZZ                DATA
 0002:00005aa0 00001ff0H .xdata                  DATA
 0002:00007a90 00000088H .xdata$x                DATA
 0002:00007b18 00000000H ATL$__a                 DATA
 0002:00007b18 00000000H ATL$__z                 DATA
 0002:00007b18 00000000H .edata                  DATA
 0002:00007b18 0000012cH .idata$2                DATA
 0002:00007c44 00000014H .idata$3                DATA
 0002:00007c58 00000c30H .idata$4                DATA
 0002:00008888 000012aaH .idata$6                DATA
 0003:00000000 00000050H .data                   DATA
 0003:00000050 00000760H .data$r                 DATA
 0003:000007b0 00000ee8H .bss                    DATA
 0004:00000000 00000df8H .pdata                  DATA
 0005:00000000 00000034H .gfids$y                DATA
 0006:00000000 00000004H .tls                    DATA
 0006:00000004 00000004H .tls$                   DATA
 0006:00000008 00000001H .tls$ZZZ                DATA
 0007:00000000 00000300H .rsrc$01                DATA
 0007:00000300 00005fb8H .rsrc$02                DATA

  Address         Publics by Value              Rva+Base               Lib:Object

 0000:00000000       __dynamic_value_reloc_table 0000000000000000     <absolute>
 0000:00000000       __guard_iat_count          0000000000000000     <absolute>
 0000:00000000       __guard_iat_table          0000000000000000     <absolute>
 0000:00000000       __guard_fids_count         0000000000000000     <absolute>
 0000:00000000       ___safe_se_handler_table   0000000000000000     <absolute>
 0000:00000000       ___safe_se_handler_count   0000000000000000     <absolute>
 0000:00000000       __guard_fids_table         0000000000000000     <absolute>
 0000:00000000       __guard_longjmp_table      0000000000000000     <absolute>
 0000:00000000       __guard_longjmp_count      0000000000000000     <absolute>
 0000:00000100       __guard_flags              0000000000000100     <absolute>
 0000:00000000       __ImageBase                0000000140000000     <linker-defined>
 0001:000000b0       ?__empty_global_delete@@YAXPEAX_K@Z 00000001400010b0 f i ControlDefragManager.obj
 0001:000000b0       ?ThreadWaitFor@ThreadManager@@MEAAXHPEAH@Z 00000001400010b0 f i ControlDefragManager.obj
 0001:000000b0       ?Dump@CObject@@UEBAXAEAVCDumpContext@@@Z 00000001400010b0 f i TI_DELETE.obj
 0001:000000b0       ?__global_delete@@YAXPEAX_K@Z 00000001400010b0 f i * CIL library *:* CIL module *
 0001:000000b0       _guard_check_icall_nop     00000001400010b0 f i msvcrt:guard_support.obj
 0001:000000b0       ?DoDataExchange@CWnd@@MEAAXPEAVCDataExchange@@@Z 00000001400010b0 f i TI_DELETEDlg.obj
 0001:000000b0       ?OnCancel@CTI_DELETEDlg@@EEAAXXZ 00000001400010b0 f i TI_DELETEDlg.obj
 0001:000000b0       _initialize_denormal_control 00000001400010b0 f i msvcrt:denormal_control.obj
 0001:000000b0       ?OnClose@CTI_DELETEDlg@@QEAAXXZ 00000001400010b0 f i TI_DELETEDlg.obj
 0001:000000b0       _initialize_invalid_parameter_handler 00000001400010b0 f i msvcrt:invalid_parameter_handler.obj
 0001:000000b0       ?Serialize@CObject@@UEAAXAEAVCArchive@@@Z 00000001400010b0 f i TI_DELETE.obj
 0001:000000b0       ?AssertValid@CObject@@UEBAXXZ 00000001400010b0 f i TI_DELETE.obj
 0001:000000b0       ??3@YAXPEAX0@Z             00000001400010b0 f i DefragManager.obj
 0001:000000c0       ??0ControlDefragManager@@QEAA@XZ 00000001400010c0 f   ControlDefragManager.obj
 0001:00000170       ??_EControlDefragManager@@UEAAPEAXI@Z 0000000140001170 f i * CIL library *:* CIL module *
 0001:00000170       ??_GControlDefragManager@@UEAAPEAXI@Z 0000000140001170 f i ControlDefragManager.obj
 0001:000001b0       ??1ControlDefragManager@@UEAA@XZ 00000001400011b0 f   ControlDefragManager.obj
 0001:00000270       ?WorkerStop@ControlDefragManager@@QEAAXXZ 0000000140001270 f   ControlDefragManager.obj
 0001:00000330       ?ThreadFirst@ControlDefragManager@@EEAAHXZ 0000000140001330 f   ControlDefragManager.obj
 0001:00000420       ?ThreadLast@ControlDefragManager@@EEAAHXZ 0000000140001420 f   ControlDefragManager.obj
 0001:000004c0       ?ThreadEvent@ControlDefragManager@@EEAAXH@Z 00000001400014c0 f   ControlDefragManager.obj
 0001:00000500       ?Exec@ControlDefragManager@@AEAAXXZ 0000000140001500 f   ControlDefragManager.obj
 0001:00000680       ??0ControlLowGr@@QEAA@XZ   0000000140001680 f   ControlLowGr.obj
 0001:00000bd0       ??_GControlLowGr@@UEAAPEAXI@Z 0000000140001bd0 f i ControlLowGr.obj
 0001:00000bd0       ??_EControlLowGr@@UEAAPEAXI@Z 0000000140001bd0 f i * CIL library *:* CIL module *
 0001:00000c10       ??1SETTING_TBL@@QEAA@XZ    0000000140001c10 f i ControlLowGr.obj
 0001:00000c70       ??0MAIN@SETTING_TBL@@QEAA@XZ 0000000140001c70 f i ControlLowGr.obj
 0001:00000cd0       ??1MAIN@SETTING_TBL@@QEAA@XZ 0000000140001cd0 f i ControlLowGr.obj
 0001:00000d20       ??1ControlLowGr@@UEAA@XZ   0000000140001d20 f   ControlLowGr.obj
 0001:00000e20       ?WorkerInit@ControlLowGr@@QEAAXXZ 0000000140001e20 f   ControlLowGr.obj
 0001:00000f20       ?ThreadFirst@ControlLowGr@@EEAAHXZ 0000000140001f20 f   ControlLowGr.obj
 0001:00000fa0       ?ThreadLast@ControlLowGr@@EEAAHXZ 0000000140001fa0 f   ControlLowGr.obj
 0001:00000fa0       _get_startup_new_mode      0000000140001fa0 f   msvcrt:new_mode.obj
 0001:00000fa0       _get_startup_thread_locale_mode 0000000140001fa0 f   msvcrt:thread_locale.obj
 0001:00000fa0       __scrt_initialize_winrt    0000000140001fa0 f   msvcrt:utility_desktop.obj
 0001:00000fa0       _matherr                   0000000140001fa0 f   msvcrt:matherr.obj
 0001:00000fa0       ?GetApplicationRecoveryParameter@CWinApp@@UEAAPEAXXZ 0000000140001fa0 f   TI_DELETE.obj
 0001:00000fa0       _get_startup_commit_mode   0000000140001fa0 f   msvcrt:commit_mode.obj
 0001:00000fa0       ?GetApplicationRestartFlags@CWinApp@@UEAAKXZ 0000000140001fa0 f   TI_DELETE.obj
 0001:00000fa0       ?ThreadLast@DeleLowGr@@EEAAHXZ 0000000140001fa0 f   DeleLowGr.obj
 0001:00000fb0       ?ThreadEvent@ControlLowGr@@EEAAXH@Z 0000000140001fb0 f   ControlLowGr.obj
 0001:00001050       ?CheckDeleListItem@ControlLowGr@@AEAA_NXZ 0000000140002050 f   ControlLowGr.obj
 0001:00001460       ?BackUpDeleListItem@ControlLowGr@@AEAA_NXZ 0000000140002460 f   ControlLowGr.obj
 0001:00001a20       ??1LockManager@KizuLib@@UEAA@XZ 0000000140002a20 f i ControlManager.obj
 0001:00001a50       ??_ELockManager@KizuLib@@UEAAPEAXI@Z 0000000140002a50 f i * CIL library *:* CIL module *
 0001:00001a50       ??_GLockManager@KizuLib@@UEAAPEAXI@Z 0000000140002a50 f i ControlManager.obj
 0001:00001aa0       ??0ControlManager@@QEAA@PEADPEAVLogFileManager@KizuLib@@@Z 0000000140002aa0 f   ControlManager.obj
 0001:00001f40       ??_EControlManager@@UEAAPEAXI@Z 0000000140002f40 f i * CIL library *:* CIL module *
 0001:00001f40       ??_GControlManager@@UEAAPEAXI@Z 0000000140002f40 f i ControlManager.obj
 0001:00001f80       ??1ControlManager@@UEAA@XZ 0000000140002f80 f   ControlManager.obj
 0001:00002010       ?WorkerInit@ControlManager@@QEAAXXZ 0000000140003010 f   ControlManager.obj
 0001:00002390       ?WorkerExit@ControlManager@@QEAAXXZ 0000000140003390 f   ControlManager.obj
 0001:000024b0       ?MainThread@ControlManager@@CAIPEAX@Z 00000001400034b0 f   ControlManager.obj
 0001:00002760       ?CheckDB_Size@ControlManager@@AEAAXXZ 0000000140003760 f   ControlManager.obj
 0001:00002830       ?GetDB_Size@ControlManager@@AEAAHXZ 0000000140003830 f   ControlManager.obj
 0001:00002c30       ?Check_TranSize@ControlManager@@AEAAXXZ 0000000140003c30 f   ControlManager.obj
 0001:00002d90       ?IsExec@DefragManager@@AEAA_NXZ 0000000140003d90 f i DefragManager.obj
 0001:00002db0       ??0DefragManager@@QEAA@HPEAD@Z 0000000140003db0 f   DefragManager.obj
 0001:000031b0       ??_EDefragManager@@UEAAPEAXI@Z 00000001400041b0 f i * CIL library *:* CIL module *
 0001:000031b0       ??_GDefragManager@@UEAAPEAXI@Z 00000001400041b0 f i DefragManager.obj
 0001:000031f0       ??0DEF_TBL@DefragManager@@QEAA@XZ 00000001400041f0 f i DefragManager.obj
 0001:00003210       ??1DEF_TBL@DefragManager@@QEAA@XZ 0000000140004210 f i DefragManager.obj
 0001:00003220       ??1DefragManager@@UEAA@XZ  0000000140004220 f   DefragManager.obj
 0001:00003300       ?ThreadFirst@DefragManager@@EEAAHXZ 0000000140004300 f   DefragManager.obj
 0001:00003370       ?ThreadLast@DefragManager@@EEAAHXZ 0000000140004370 f   DefragManager.obj
 0001:00003390       ?ThreadEvent@DefragManager@@EEAAXH@Z 0000000140004390 f   DefragManager.obj
 0001:000033d0       ?Exec@DefragManager@@AEAAXXZ 00000001400043d0 f   DefragManager.obj
 0001:00003630       ?GetIndexTables@DefragManager@@AEAA_NPEBDPEAV?$vector@V?$CStringT@DV?$StrTraitMFC_DLL@DV?$ChTraitsCRT@D@ATL@@@@@ATL@@V?$allocator@V?$CStringT@DV?$StrTraitMFC_DLL@DV?$ChTraitsCRT@D@ATL@@@@@ATL@@@std@@@std@@@Z 0000000140004630 f   DefragManager.obj
 0001:00003980       ?ExecDefrag@DefragManager@@AEAAHPEBD0@Z 0000000140004980 f   DefragManager.obj
 0001:00003dc0       ??1?$vector@V?$CStringT@DV?$StrTraitMFC_DLL@DV?$ChTraitsCRT@D@ATL@@@@@ATL@@V?$allocator@V?$CStringT@DV?$StrTraitMFC_DLL@DV?$ChTraitsCRT@D@ATL@@@@@ATL@@@std@@@std@@QEAA@XZ 0000000140004dc0 f i DefragManager.obj
 0001:00003dd0       ?push_back@?$vector@V?$CStringT@DV?$StrTraitMFC_DLL@DV?$ChTraitsCRT@D@ATL@@@@@ATL@@V?$allocator@V?$CStringT@DV?$StrTraitMFC_DLL@DV?$ChTraitsCRT@D@ATL@@@@@ATL@@@std@@@std@@QEAAX$$QEAV?$CStringT@DV?$StrTraitMFC_DLL@DV?$ChTraitsCRT@D@ATL@@@@@ATL@@@Z 0000000140004dd0 f i DefragManager.obj
 0001:00003f50       ?_Tidy@?$vector@V?$CStringT@DV?$StrTraitMFC_DLL@DV?$ChTraitsCRT@D@ATL@@@@@ATL@@V?$allocator@V?$CStringT@DV?$StrTraitMFC_DLL@DV?$ChTraitsCRT@D@ATL@@@@@ATL@@@std@@@std@@IEAAXXZ 0000000140004f50 f i DefragManager.obj
 0001:00004020       ?deallocate@?$_Wrap_alloc@V?$allocator@V?$CStringT@DV?$StrTraitMFC_DLL@DV?$ChTraitsCRT@D@ATL@@@@@ATL@@@std@@@std@@QEAAXPEAV?$CStringT@DV?$StrTraitMFC_DLL@DV?$ChTraitsCRT@D@ATL@@@@@ATL@@_K@Z 0000000140005020 f i DefragManager.obj
 0001:000040a0       ?_Reallocate@?$vector@V?$CStringT@DV?$StrTraitMFC_DLL@DV?$ChTraitsCRT@D@ATL@@@@@ATL@@V?$allocator@V?$CStringT@DV?$StrTraitMFC_DLL@DV?$ChTraitsCRT@D@ATL@@@@@ATL@@@std@@@std@@IEAAX_K@Z 00000001400050a0 f i DefragManager.obj
 0001:00004230       ??$_Uninitialized_move_al_unchecked1@PEAV?$CStringT@DV?$StrTraitMFC_DLL@DV?$ChTraitsCRT@D@ATL@@@@@ATL@@PEAV12@V?$allocator@V?$CStringT@DV?$StrTraitMFC_DLL@DV?$ChTraitsCRT@D@ATL@@@@@ATL@@@std@@@std@@YAPEAV?$CStringT@DV?$StrTraitMFC_DLL@DV?$ChTraitsCRT@D@ATL@@@@@ATL@@PEAV12@00AEAU?$_Wrap_alloc@V?$allocator@V?$CStringT@DV?$StrTraitMFC_DLL@DV?$ChTraitsCRT@D@ATL@@@@@ATL@@@std@@@0@U_General_ptr_iterator_tag@0@U_Any_tag@0@@Z 0000000140005230 f i DefragManager.obj
 0001:000042f0       ??0DeleLowGr@@QEAA@HPEAXPEBUSETTING_TBL@@@Z 00000001400052f0 f   DeleLowGr.obj
 0001:00004440       ??_EDeleLowGr@@UEAAPEAXI@Z 0000000140005440 f i * CIL library *:* CIL module *
 0001:00004440       ??_GDeleLowGr@@UEAAPEAXI@Z 0000000140005440 f i DeleLowGr.obj
 0001:000044e0       ?ThreadFirst@DeleLowGr@@EEAAHXZ 00000001400054e0 f   DeleLowGr.obj
 0001:00004510       ?ThreadEvent@DeleLowGr@@EEAAXH@Z 0000000140005510 f   DeleLowGr.obj
 0001:000045c0       ?StartExec@DeleLowGr@@AEAA_NXZ 00000001400055c0 f   DeleLowGr.obj
 0001:00004a90       ?DeleteInf@DeleLowGr@@AEAA_NPEAVOdbcBase@KizuODBC@@PEBD111H@Z 0000000140005a90 f   DeleLowGr.obj
 0001:00004be0       ?SetDeleteOkFlg@DeleLowGr@@AEAA_NPEAVOdbcBase@KizuODBC@@PEBD@Z 0000000140005be0 f   DeleLowGr.obj
 0001:00004d40       ??0DeleTable@@QEAA@HPEAHPEAX1V?$CStringT@DV?$StrTraitMFC_DLL@DV?$ChTraitsCRT@D@ATL@@@@@ATL@@2@Z 0000000140005d40 f   DeleTable.obj
 0001:000057c0       ??_EDeleTable@@UEAAPEAXI@Z 00000001400067c0 f i * CIL library *:* CIL module *
 0001:000057c0       ??_GDeleTable@@UEAAPEAXI@Z 00000001400067c0 f i DeleTable.obj
 0001:00005800       ??0DEL_TBL@KizuDeleteManager@@QEAA@XZ 0000000140006800 f i DeleTable.obj
 0001:00005800       ??0DEL_TBL_CNT@KizuDeleteManager@@QEAA@XZ 0000000140006800 f i DeleTable.obj
 0001:00005830       ??1DEL_TBL_CNT@KizuDeleteManager@@QEAA@XZ 0000000140006830 f i DeleTable.obj
 0001:00005830       ??1DEL_TBL@KizuDeleteManager@@QEAA@XZ 0000000140006830 f i DeleTable.obj
 0001:00005860       ??1DeleTable@@UEAA@XZ      0000000140006860 f   DeleTable.obj
 0001:000059c0       ?ExecCycle@DeleTable@@EEAAXXZ 00000001400069c0 f   DeleTable.obj
 0001:00005aa0       ?ExecSizeMin@DeleTable@@EEAAXXZ 0000000140006aa0 f   DeleTable.obj
 0001:00005cc0       ?ExecFast@DeleTable@@EEAAXXZ 0000000140006cc0 f   DeleTable.obj
 0001:00005d50       ?Delete_BackUp@DeleTable@@AEAAXPEBD@Z 0000000140006d50 f   DeleTable.obj
 0001:00005ec0       ??0KizuDeleteManager@@QEAA@HPEAHPEAX1V?$CStringT@DV?$StrTraitMFC_DLL@DV?$ChTraitsCRT@D@ATL@@@@@ATL@@2@Z 0000000140006ec0 f   KizuDeleteManager.obj
 0001:00005ff0       ??_GKizuDeleteManager@@UEAAPEAXI@Z 0000000140006ff0 f i KizuDeleteManager.obj
 0001:00005ff0       ??_EKizuDeleteManager@@UEAAPEAXI@Z 0000000140006ff0 f i * CIL library *:* CIL module *
 0001:00006080       ??1KizuDeleteManager@@UEAA@XZ 0000000140007080 f   KizuDeleteManager.obj
 0001:000060f0       ?MainThread@KizuDeleteManager@@KAIPEAX@Z 00000001400070f0 f   KizuDeleteManager.obj
 0001:00006370       ?Select_OldKey@KizuDeleteManager@@IEAA_NPEBD0HPEAD@Z 0000000140007370 f   KizuDeleteManager.obj
 0001:000066a0       ?Select_OldKey@KizuDeleteManager@@IEAA_NPEBD00HPEAD@Z 00000001400076a0 f   KizuDeleteManager.obj
 0001:000069f0       ?Exec_Shrink@KizuDeleteManager@@IEAA_NXZ 00000001400079f0 f   KizuDeleteManager.obj
 0001:00006dd0       ?Delete_Day@KizuDeleteManager@@IEAA_NPEBD0H@Z 0000000140007dd0 f   KizuDeleteManager.obj
 0001:00007090       ?Delete_Day2@KizuDeleteManager@@IEAA_NPEBD0H@Z 0000000140008090 f   KizuDeleteManager.obj
 0001:00007530       ?Delete_Cnt@KizuDeleteManager@@IEAA_NPEBD00HH@Z 0000000140008530 f   KizuDeleteManager.obj
 0001:000079c0       ?Delete_Inf@KizuDeleteManager@@IEAA_NPEBD00@Z 00000001400089c0 f   KizuDeleteManager.obj
 0001:00007c60       ?Delete_Inf@KizuDeleteManager@@IEAA_NPEBD00H0@Z 0000000140008c60 f   KizuDeleteManager.obj
 0001:000080b0       ?Delete_OldInf@KizuDeleteManager@@IEAA_NPEBD00H0@Z 00000001400090b0 f   KizuDeleteManager.obj
 0001:000084a0       ??0MainInctance@@QEAA@XZ   00000001400094a0 f   MainInctance.obj
 0001:00008560       ??_EMainInctance@@UEAAPEAXI@Z 0000000140009560 f i * CIL library *:* CIL module *
 0001:00008560       ??_GMainInctance@@UEAAPEAXI@Z 0000000140009560 f i MainInctance.obj
 0001:000085d0       ??1MainInctance@@UEAA@XZ   00000001400095d0 f   MainInctance.obj
 0001:00008620       ?Init@MainInctance@@QEAAHXZ 0000000140009620 f   MainInctance.obj
 0001:000089b0       ?Exit@MainInctance@@QEAAXXZ 00000001400099b0 f   MainInctance.obj
 0001:00008cf0       ?SetWaitMode@MainInctance@@QEAAX_N@Z 0000000140009cf0 f   MainInctance.obj
 0001:00008dd0       ?MainThread@MainInctance@@CAIPEAX@Z 0000000140009dd0 f   MainInctance.obj
 0001:00008ef0       ?_AtlInitializeCriticalSectionEx@ATL@@YAHPEAU_RTL_CRITICAL_SECTION@@KK@Z 0000000140009ef0 f i stdafx.obj
 0001:00008f00       ?GetMessageMap@CTI_DELETEApp@@MEBAPEBUAFX_MSGMAP@@XZ 0000000140009f00 f   TI_DELETE.obj
 0001:00008f10       ??_ECTI_DELETEApp@@UEAAPEAXI@Z 0000000140009f10 f i * CIL library *:* CIL module *
 0001:00008f10       ??_GCTI_DELETEApp@@UEAAPEAXI@Z 0000000140009f10 f i TI_DELETE.obj
 0001:00008f60       ?InitInstance@CTI_DELETEApp@@UEAAHXZ 0000000140009f60 f   TI_DELETE.obj
 0001:000090d0       ??1CTI_DELETEDlg@@UEAA@XZ  000000014000a0d0 f i TI_DELETE.obj
 0001:00009150       ?GetApplicationRecoveryPingInterval@CWinApp@@UEAAKXZ 000000014000a150 f i TI_DELETE.obj
 0001:00009160       ?RestoreAutosavedFilesAtRestart@CWinApp@@UEBAHXZ 000000014000a160 f i TI_DELETE.obj
 0001:00009170       ?ReopenPreviousFilesAtRestart@CWinApp@@UEBAHXZ 000000014000a170 f i TI_DELETE.obj
 0001:00009180       ?SupportsAutosaveAtInterval@CWinApp@@UEBAHXZ 000000014000a180 f i TI_DELETE.obj
 0001:00009190       ?SupportsAutosaveAtRestart@CWinApp@@UEBAHXZ 000000014000a190 f i TI_DELETE.obj
 0001:000091a0       ?SupportsApplicationRecovery@CWinApp@@UEBAHXZ 000000014000a1a0 f i TI_DELETE.obj
 0001:000091b0       ?SupportsRestartManager@CWinApp@@UEBAHXZ 000000014000a1b0 f i TI_DELETE.obj
 0001:000091c0       ??_GCTI_DELETEDlg@@UEAAPEAXI@Z 000000014000a1c0 f i TI_DELETEDlg.obj
 0001:000091c0       ??_ECTI_DELETEDlg@@UEAAPEAXI@Z 000000014000a1c0 f i * CIL library *:* CIL module *
 0001:00009270       ?DoDataExchange@CTI_DELETEDlg@@MEAAXPEAVCDataExchange@@@Z 000000014000a270 f   TI_DELETEDlg.obj
 0001:000092c0       ?GetMessageMap@CTI_DELETEDlg@@MEBAPEBUAFX_MSGMAP@@XZ 000000014000a2c0 f   TI_DELETEDlg.obj
 0001:000092d0       ?OnInitDialog@CTI_DELETEDlg@@MEAAHXZ 000000014000a2d0 f   TI_DELETEDlg.obj
 0001:000093d0       ?OnPaint@CTI_DELETEDlg@@IEAAXXZ 000000014000a3d0 f   TI_DELETEDlg.obj
 0001:000094e0       ?OnQueryDragIcon@CTI_DELETEDlg@@IEAAPEAUHICON__@@XZ 000000014000a4e0 f   TI_DELETEDlg.obj
 0001:000094f0       ?OnBnClickedOk@CTI_DELETEDlg@@QEAAXXZ 000000014000a4f0 f   TI_DELETEDlg.obj
 0001:00009580       ?OnLbnDblclkList1@CTI_DELETEDlg@@QEAAXXZ 000000014000a580 f   TI_DELETEDlg.obj
 0001:00009590       ?InitProcess@CTI_DELETEDlg@@AEAAXXZ 000000014000a590 f   TI_DELETEDlg.obj
 0001:00009750       ?ExitProcess@CTI_DELETEDlg@@AEAAXXZ 000000014000a750 f   TI_DELETEDlg.obj
 0001:000098b0       ?MainThread@CTI_DELETEDlg@@CAIPEAX@Z 000000014000a8b0 f   TI_DELETEDlg.obj
 0001:000099a0       ?OnTimer@CTI_DELETEDlg@@QEAAX_K@Z 000000014000a9a0 f   TI_DELETEDlg.obj
 0001:00009c50       ?Create@CDialog@@UEAAHIPEAVCWnd@@@Z 000000014000ac50 f i TI_DELETEDlg.obj
 0001:00009c60       ??_GCComboBox@@UEAAPEAXI@Z 000000014000ac60 f i TI_DELETEDlg.obj
 0001:00009c60       ??_ECComboBox@@UEAAPEAXI@Z 000000014000ac60 f i * CIL library *:* CIL module *
 0001:00009cb0       ??_ECListBox@@UEAAPEAXI@Z  000000014000acb0 f i * CIL library *:* CIL module *
 0001:00009cb0       ??_GCListBox@@UEAAPEAXI@Z  000000014000acb0 f i TI_DELETEDlg.obj
 0001:00009d00       ?BeginModalState@CWnd@@UEAAXXZ 000000014000ad00 f i TI_DELETEDlg.obj
 0001:00009d10       ?EndModalState@CWnd@@UEAAXXZ 000000014000ad10 f i TI_DELETEDlg.obj
 0001:00009d20       ??0ThreadManager@@QEAA@PEBDH@Z 000000014000ad20 f   KizuLibMFC:ThreadManager.obj
 0001:00009e00       ??_GThreadManager@@UEAAPEAXI@Z 000000014000ae00 f i KizuLibMFC:ThreadManager.obj
 0001:00009e00       ??_EThreadManager@@UEAAPEAXI@Z 000000014000ae00 f i * CIL library *:* CIL module *
 0001:00009e80       ??1ThreadManager@@UEAA@XZ  000000014000ae80 f   KizuLibMFC:ThreadManager.obj
 0001:00009ee0       ?MainThread@ThreadManager@@KAIPEAX@Z 000000014000aee0 f   KizuLibMFC:ThreadManager.obj
 0001:00009f20       ?ThreadMainLoop@ThreadManager@@MEAAHXZ 000000014000af20 f   KizuLibMFC:ThreadManager.obj
 0001:0000a020       ??0exception@std@@QEAA@AEBV01@@Z 000000014000b020 f i KizuLibMFC:LogFileManager.obj
 0001:0000a060       ?what@exception@std@@UEBAPEBDXZ 000000014000b060 f i KizuLibMFC:LogFileManager.obj
 0001:0000a080       ??_Gexception@std@@UEAAPEAXI@Z 000000014000b080 f i KizuLibMFC:LogFileManager.obj
 0001:0000a080       ??_Ebad_cast@std@@UEAAPEAXI@Z 000000014000b080 f i * CIL library *:* CIL module *
 0001:0000a080       ??_Eexception@std@@UEAAPEAXI@Z 000000014000b080 f i * CIL library *:* CIL module *
 0001:0000a080       ??_Gbad_cast@std@@UEAAPEAXI@Z 000000014000b080 f i KizuLibMFC:LogFileManager.obj
 0001:0000a0d0       ??1bad_cast@std@@UEAA@XZ   000000014000b0d0 f i KizuLibMFC:LogFileManager.obj
 0001:0000a0f0       ??1locale@std@@QEAA@XZ     000000014000b0f0 f i KizuLibMFC:LogFileManager.obj
 0001:0000a130       ??1AutoLock@KizuLib@@UEAA@XZ 000000014000b130 f i KizuLibMFC:LogFileManager.obj
 0001:0000a160       ??_GAutoLock@KizuLib@@UEAAPEAXI@Z 000000014000b160 f i KizuLibMFC:LogFileManager.obj
 0001:0000a160       ??_EAutoLock@KizuLib@@UEAAPEAXI@Z 000000014000b160 f i * CIL library *:* CIL module *
 0001:0000a1c0       ?GetNowLogPath@LogFileManager@KizuLib@@QEAA?AV?$CStringT@DV?$StrTraitMFC_DLL@DV?$ChTraitsCRT@D@ATL@@@@@ATL@@XZ 000000014000b1c0 f i KizuLibMFC:LogFileManager.obj
 0001:0000a1f0       ??0LogFileManager@KizuLib@@QEAA@PEBDPEAVCListBox@@HH@Z 000000014000b1f0 f   KizuLibMFC:LogFileManager.obj
 0001:0000a5c0       ??_GLogFileManager@KizuLib@@UEAAPEAXI@Z 000000014000b5c0 f i KizuLibMFC:LogFileManager.obj
 0001:0000a5c0       ??_ELogFileManager@KizuLib@@UEAAPEAXI@Z 000000014000b5c0 f i * CIL library *:* CIL module *
 0001:0000a600       ??_D?$basic_ofstream@DU?$char_traits@D@std@@@std@@QEAAXXZ 000000014000b600 f i KizuLibMFC:LogFileManager.obj
 0001:0000a630       ??1LogFileManager@KizuLib@@UEAA@XZ 000000014000b630 f   KizuLibMFC:LogFileManager.obj
 0001:0000a7c0       ?Write@LogFileManager@KizuLib@@QEAAXW4LNO@12@PEBDZZ 000000014000b7c0 f   KizuLibMFC:LogFileManager.obj
 0001:0000aa80       ?WriteFile@LogFileManager@KizuLib@@QEAAXPEBD@Z 000000014000ba80 f   KizuLibMFC:LogFileManager.obj
 0001:0000ac00       ?WriteList@LogFileManager@KizuLib@@AEAAXPEBD@Z 000000014000bc00 f   KizuLibMFC:LogFileManager.obj
 0001:0000acf0       ?AllGetQueue@LogFileManager@KizuLib@@QEAAHXZ 000000014000bcf0 f   KizuLibMFC:LogFileManager.obj
 0001:0000ad90       ?ShowEdit@LogFileManager@KizuLib@@QEAAXXZ 000000014000bd90 f   KizuLibMFC:LogFileManager.obj
 0001:0000ae70       ?MainThread@LogFileManager@KizuLib@@CAIPEAX@Z 000000014000be70 f   KizuLibMFC:LogFileManager.obj
 0001:0000b010       ??1?$basic_string@DU?$char_traits@D@std@@V?$allocator@D@2@@std@@QEAA@XZ 000000014000c010 f i KizuLibMFC:LogFileManager.obj
 0001:0000b0a0       ??1?$basic_ofstream@DU?$char_traits@D@std@@@std@@UEAA@XZ 000000014000c0a0 f i KizuLibMFC:LogFileManager.obj
 0001:0000b170       ??0?$basic_ofstream@DU?$char_traits@D@std@@@std@@QEAA@XZ 000000014000c170 f i KizuLibMFC:LogFileManager.obj
 0001:0000b250       ?imbue@?$basic_filebuf@DU?$char_traits@D@std@@@std@@MEAAXAEBVlocale@2@@Z 000000014000c250 f i KizuLibMFC:LogFileManager.obj
 0001:0000b2a0       ?sync@?$basic_filebuf@DU?$char_traits@D@std@@@std@@MEAAHXZ 000000014000c2a0 f i KizuLibMFC:LogFileManager.obj
 0001:0000b2f0       ?setbuf@?$basic_filebuf@DU?$char_traits@D@std@@@std@@MEAAPEAV?$basic_streambuf@DU?$char_traits@D@std@@@2@PEAD_J@Z 000000014000c2f0 f i KizuLibMFC:LogFileManager.obj
 0001:0000b3e0       ?seekpos@?$basic_filebuf@DU?$char_traits@D@std@@@std@@MEAA?AV?$fpos@U_Mbstatet@@@2@V32@H@Z 000000014000c3e0 f i KizuLibMFC:LogFileManager.obj
 0001:0000b4d0       ?seekoff@?$basic_filebuf@DU?$char_traits@D@std@@@std@@MEAA?AV?$fpos@U_Mbstatet@@@2@_JHH@Z 000000014000c4d0 f i KizuLibMFC:LogFileManager.obj
 0001:0000b5d0       ?uflow@?$basic_filebuf@DU?$char_traits@D@std@@@std@@MEAAHXZ 000000014000c5d0 f i KizuLibMFC:LogFileManager.obj
 0001:0000b9a0       ?underflow@?$basic_filebuf@DU?$char_traits@D@std@@@std@@MEAAHXZ 000000014000c9a0 f i KizuLibMFC:LogFileManager.obj
 0001:0000ba10       ?pbackfail@?$basic_filebuf@DU?$char_traits@D@std@@@std@@MEAAHH@Z 000000014000ca10 f i KizuLibMFC:LogFileManager.obj
 0001:0000baf0       ?overflow@?$basic_filebuf@DU?$char_traits@D@std@@@std@@MEAAHH@Z 000000014000caf0 f i KizuLibMFC:LogFileManager.obj
 0001:0000be60       ?_Unlock@?$basic_filebuf@DU?$char_traits@D@std@@@std@@UEAAXXZ 000000014000ce60 f i KizuLibMFC:LogFileManager.obj
 0001:0000be80       ?_Lock@?$basic_filebuf@DU?$char_traits@D@std@@@std@@UEAAXXZ 000000014000ce80 f i KizuLibMFC:LogFileManager.obj
 0001:0000bea0       ??_E?$basic_ofstream@DU?$char_traits@D@std@@@std@@UEAAPEAXI@Z 000000014000cea0 f i * CIL library *:* CIL module *
 0001:0000bea0       ??_G?$basic_ofstream@DU?$char_traits@D@std@@@std@@UEAAPEAXI@Z 000000014000cea0 f i KizuLibMFC:LogFileManager.obj
 0001:0000bef0       ??_E?$basic_filebuf@DU?$char_traits@D@std@@@std@@UEAAPEAXI@Z 000000014000cef0 f i * CIL library *:* CIL module *
 0001:0000bef0       ??_G?$basic_filebuf@DU?$char_traits@D@std@@@std@@UEAAPEAXI@Z 000000014000cef0 f i KizuLibMFC:LogFileManager.obj
 0001:0000bf90       ?_Reset_back@?$basic_filebuf@DU?$char_traits@D@std@@@std@@AEAAXXZ 000000014000cf90 f i KizuLibMFC:LogFileManager.obj
 0001:0000bfc0       ?_Endwrite@?$basic_filebuf@DU?$char_traits@D@std@@@std@@IEAA_NXZ 000000014000cfc0 f i KizuLibMFC:LogFileManager.obj
 0001:0000c240       ?close@?$basic_filebuf@DU?$char_traits@D@std@@@std@@QEAAPEAV12@XZ 000000014000d240 f i KizuLibMFC:LogFileManager.obj
 0001:0000c2c0       ?open@?$basic_filebuf@DU?$char_traits@D@std@@@std@@QEAAPEAV12@PEBDHH@Z 000000014000d2c0 f i KizuLibMFC:LogFileManager.obj
 0001:0000c400       ?_Copy@?$basic_string@DU?$char_traits@D@std@@V?$allocator@D@2@@std@@QEAAX_K0@Z 000000014000d400 f i KizuLibMFC:LogFileManager.obj
 0001:0000c5b0       ?allocate@?$_Wrap_alloc@V?$allocator@D@std@@@std@@QEAAPEAD_K@Z 000000014000d5b0 f i KizuLibMFC:LogFileManager.obj
 0001:0000c620       ??0?$ThreadQueue@D@KizuLib@@QEAA@H@Z 000000014000d620 f i KizuLibMFC:LogFileManager.obj
 0001:0000c6d0       ??1?$ThreadQueue@D@KizuLib@@UEAA@XZ 000000014000d6d0 f i KizuLibMFC:LogFileManager.obj
 0001:0000c780       ?GetFromHead@?$ThreadQueue@D@KizuLib@@QEAAPEADXZ 000000014000d780 f i KizuLibMFC:LogFileManager.obj
 0001:0000c820       ??$?6U?$char_traits@D@std@@@std@@YAAEAV?$basic_ostream@DU?$char_traits@D@std@@@0@AEAV10@PEBD@Z 000000014000d820 f i KizuLibMFC:LogFileManager.obj
 0001:0000c9f0       ??$endl@DU?$char_traits@D@std@@@std@@YAAEAV?$basic_ostream@DU?$char_traits@D@std@@@0@AEAV10@@Z 000000014000d9f0 f i KizuLibMFC:LogFileManager.obj
 0001:0000ca30       ??$use_facet@V?$codecvt@DDU_Mbstatet@@@std@@@std@@YAAEBV?$codecvt@DDU_Mbstatet@@@0@AEBVlocale@0@@Z 000000014000da30 f i KizuLibMFC:LogFileManager.obj
 0001:0000cb40       ??0bad_cast@std@@QEAA@AEBV01@@Z 000000014000db40 f i KizuLibMFC:LogFileManager.obj
 0001:0000cb80       ??_E?$ThreadQueue@D@KizuLib@@UEAAPEAXI@Z 000000014000db80 f i * CIL library *:* CIL module *
 0001:0000cb80       ??_G?$ThreadQueue@D@KizuLib@@UEAAPEAXI@Z 000000014000db80 f i KizuLibMFC:LogFileManager.obj
 0001:0000cbc0       ?push_back@?$deque@PEADV?$allocator@PEAD@std@@@std@@QEAAXAEBQEAD@Z 000000014000dbc0 f i KizuLibMFC:LogFileManager.obj
 0001:0000cc90       ??1sentry@?$basic_ostream@DU?$char_traits@D@std@@@std@@QEAA@XZ 000000014000dc90 f i KizuLibMFC:LogFileManager.obj
 0001:0000cce0       ?_Tidy@?$deque@PEADV?$allocator@PEAD@std@@@std@@IEAAXXZ 000000014000dce0 f i KizuLibMFC:LogFileManager.obj
 0001:0000cdd0       ?_Growmap@?$deque@PEADV?$allocator@PEAD@std@@@std@@IEAAX_K@Z 000000014000ddd0 f i KizuLibMFC:LogFileManager.obj
 0001:0000d030       ?begin@?$deque@PEADV?$allocator@PEAD@std@@@std@@QEAA?AV?$_Deque_iterator@V?$_Deque_val@U?$_Deque_simple_types@PEAD@std@@@std@@@2@XZ 000000014000e030 f i KizuLibMFC:LogFileManager.obj
 0001:0000d050       ??1_Sentry_base@?$basic_ostream@DU?$char_traits@D@std@@@std@@QEAA@XZ 000000014000e050 f i KizuLibMFC:LogFileManager.obj
 0001:0000d080       ??_E?$basic_ofstream@DU?$char_traits@D@std@@@std@@$4PPPPPPPM@A@EAAPEAXI@Z 000000014000e080 f i KizuLibMFC:LogFileManager.obj
 0001:0000d090       sprintf                    000000014000e090 f i KizuLibMFC:LogFileManager.obj
 0001:0000d0f0       __local_stdio_printf_options 000000014000e0f0 f i KizuLibMFC:LogFileManager.obj
 0001:0000d100       ??_GWorkThread@KizuLib@@UEAAPEAXI@Z 000000014000e100 f i KizuLib:WorkThread.obj
 0001:0000d100       ??_EWorkThread@KizuLib@@UEAAPEAXI@Z 000000014000e100 f i * CIL library *:* CIL module *
 0001:0000d150       ??1WorkThread@KizuLib@@UEAA@XZ 000000014000e150 f   KizuLib:WorkThread.obj
 0001:0000d170       ?MainThread@WorkThread@KizuLib@@MEAAIXZ 000000014000e170 f   KizuLib:WorkThread.obj
 0001:0000d180       ?SetThreadName@WorkThread@KizuLib@@SAXPEBDK@Z 000000014000e180 f   KizuLib:WorkThread.obj
 0001:0000d1c0       ?task_init@@YAHPEBDH@Z     000000014000e1c0 f   KizuLib:KizuLib.obj
 0001:0000d2c0       ?syslog@@YAHJPEBDZZ        000000014000e2c0 f   KizuLib:KizuLib.obj
 0001:0000d450       ?statelog@@YAHJJJPEBDZZ    000000014000e450 f   KizuLib:KizuLib.obj
 0001:0000d5e0       ?SetStatus@KizuFunction@KizuLib@@SA_NHH_NPEBD@Z 000000014000e5e0 f   KizuLib:KizuFunction.obj
 0001:0000d960       ??_GKizuPerformanceCounter@KizuLib@@UEAAPEAXI@Z 000000014000e960 f i KizuLib:KizuPerformanceCounter.obj
 0001:0000d960       ??_EKizuPerformanceCounter@KizuLib@@UEAAPEAXI@Z 000000014000e960 f i * CIL library *:* CIL module *
 0001:0000d990       ??1KizuPerformanceCounter@KizuLib@@UEAA@XZ 000000014000e990 f   KizuLib:KizuPerformanceCounter.obj
 0001:0000d9a0       ??0KizuPcInfManager@KizuLib@@QEAA@H@Z 000000014000e9a0 f   KizuLib:KizuPcInfManager.obj
 0001:0000da80       ??_EKizuPcInfManager@KizuLib@@UEAAPEAXI@Z 000000014000ea80 f i * CIL library *:* CIL module *
 0001:0000da80       ??_GKizuPcInfManager@KizuLib@@UEAAPEAXI@Z 000000014000ea80 f i KizuLib:KizuPcInfManager.obj
 0001:0000dab0       ?SetPcName@KizuPcInfManager@KizuLib@@QEAA_NPEADPEBD1@Z 000000014000eab0 f   KizuLib:KizuPcInfManager.obj
 0001:0000e070       ?GetError@MailSlotManager@KizuLib@@UEAAHXZ 000000014000f070 f i KizuLib:MailSlotManager.obj
 0001:0000e080       ??_EMailSlotManager@KizuLib@@UEAAPEAXI@Z 000000014000f080 f i * CIL library *:* CIL module *
 0001:0000e080       ??_GMailSlotManager@KizuLib@@UEAAPEAXI@Z 000000014000f080 f i KizuLib:MailSlotManager.obj
 0001:0000e0e0       ?SendMail@MailSlotManager@KizuLib@@SAHPEBD0PEBXK@Z 000000014000f0e0 f   KizuLib:MailSlotManager.obj
 0001:0000e1e0       ?Create@MailSlotManager@KizuLib@@QEAA_NPEBDK@Z 000000014000f1e0 f   KizuLib:MailSlotManager.obj
 0001:0000e260       ?Recv@MailSlotManager@KizuLib@@UEAAHPEAXK@Z 000000014000f260 f   KizuLib:MailSlotManager.obj
 0001:0000e320       ?Send@MailSlotManager@KizuLib@@UEAAHPEBXK@Z 000000014000f320 f   KizuLib:MailSlotManager.obj
 0001:0000e360       ?Recv@MailSlotManager@KizuLib@@UEAA_NPEAXKPEAU_OVERLAPPED@@@Z 000000014000f360 f   KizuLib:MailSlotManager.obj
 0001:0000e3b0       ?Send@MailSlotManager@KizuLib@@UEAA_NPEBXKPEAU_OVERLAPPED@@@Z 000000014000f3b0 f   KizuLib:MailSlotManager.obj
 0001:0000e400       ?GetResult@MailSlotManager@KizuLib@@UEAA_NPEAU_OVERLAPPED@@@Z 000000014000f400 f   KizuLib:MailSlotManager.obj
 0001:0000e440       ??_EOdbcBase@KizuODBC@@UEAAPEAXI@Z 000000014000f440 f i * CIL library *:* CIL module *
 0001:0000e440       ??_GOdbcBase@KizuODBC@@UEAAPEAXI@Z 000000014000f440 f i KizuODBC:OdbcBase.obj
 0001:0000e480       ??1OdbcBase@KizuODBC@@UEAA@XZ 000000014000f480 f   KizuODBC:OdbcBase.obj
 0001:0000e530       ?OpenCheck@OdbcBase@KizuODBC@@SA_NPEBD0@Z 000000014000f530 f   KizuODBC:OdbcBase.obj
 0001:0000e640       ?DisConnect@OdbcBase@KizuODBC@@QEAAXXZ 000000014000f640 f   KizuODBC:OdbcBase.obj
 0001:0000e6b0       ?GetSelectKey@OdbcBase@KizuODBC@@QEAA_NPEBDHPEAD@Z 000000014000f6b0 f   KizuODBC:OdbcBase.obj
 0001:0000e7c0       ?GetSelectKey@OdbcBase@KizuODBC@@QEAA_NPEBDPEAH@Z 000000014000f7c0 f   KizuODBC:OdbcBase.obj
 0001:0000e8d0       ?GetSelectKey_Static@OdbcBase@KizuODBC@@SA_NPEBDPEAH00@Z 000000014000f8d0 f   KizuODBC:OdbcBase.obj
 0001:0000ea40       ??0OdbcEnv@KizuODBC@@AEAA@XZ 000000014000fa40 f   KizuODBC:OdbcEnv.obj
 0001:0000eb00       ??_GOdbcEnv@KizuODBC@@UEAAPEAXI@Z 000000014000fb00 f i KizuODBC:OdbcEnv.obj
 0001:0000eb00       ??_EOdbcEnv@KizuODBC@@UEAAPEAXI@Z 000000014000fb00 f i * CIL library *:* CIL module *
 0001:0000eb60       ?GetErrMsg@OdbcEnv@KizuODBC@@QEAAXXZ 000000014000fb60 f   KizuODBC:OdbcEnv.obj
 0001:0000ebe0       ??_EOdbcManager@KizuODBC@@UEAAPEAXI@Z 000000014000fbe0 f i * CIL library *:* CIL module *
 0001:0000ebe0       ??_GOdbcManager@KizuODBC@@UEAAPEAXI@Z 000000014000fbe0 f i KizuODBC:OdbcManager.obj
 0001:0000ec20       ??1OdbcManager@KizuODBC@@UEAA@XZ 000000014000fc20 f   KizuODBC:OdbcManager.obj
 0001:0000ece0       ?Alloc@OdbcManager@KizuODBC@@IEAAXXZ 000000014000fce0 f   KizuODBC:OdbcManager.obj
 0001:0000ee00       ?Connect@OdbcManager@KizuODBC@@QEAAHPEBD0@Z 000000014000fe00 f   KizuODBC:OdbcManager.obj
 0001:0000ef00       ?Connect@OdbcManager@KizuODBC@@QEAAHPEBD00@Z 000000014000ff00 f   KizuODBC:OdbcManager.obj
 0001:0000f0c0       ?ExecuteDirect@OdbcManager@KizuODBC@@QEAAFPEBD@Z 00000001400100c0 f   KizuODBC:OdbcManager.obj
 0001:0000f160       ?ExecuteDirectAsync@OdbcManager@KizuODBC@@QEAAFPEBD_N@Z 0000000140010160 f   KizuODBC:OdbcManager.obj
 0001:0000f230       ?GetErrMsg@OdbcManager@KizuODBC@@QEAAXXZ 0000000140010230 f   KizuODBC:OdbcManager.obj
 0001:0000f2d0       ?GetErrMsg@OdbcManager@KizuODBC@@QEAAXF@Z 00000001400102d0 f   KizuODBC:OdbcManager.obj
 0001:0000f382       ??3@YAXPEAX@Z              0000000140010382 f   mfc140:mfc140.dll
 0001:0000f388       ??2@YAPEAX_K@Z             0000000140010388 f   mfc140:mfc140.dll
 0001:0000f38e       ?OnHelp@CWinApp@@IEAAXXZ   000000014001038e f   mfc140:mfc140.dll
 0001:0000f394       ?GetThisMessageMap@CWinApp@@KAPEBUAFX_MSGMAP@@XZ 0000000140010394 f   mfc140:mfc140.dll
 0001:0000f39a       ?DoModal@CDialog@@UEAA_JXZ 000000014001039a f   mfc140:mfc140.dll
 0001:0000f3a0       ?GetRuntimeClass@CWinApp@@UEBAPEAUCRuntimeClass@@XZ 00000001400103a0 f   mfc140:mfc140.dll
 0001:0000f3a6       ?OnCmdMsg@CCmdTarget@@UEAAHIHPEAXPEAUAFX_CMDHANDLERINFO@@@Z 00000001400103a6 f   mfc140:mfc140.dll
 0001:0000f3ac       ?OnFinalRelease@CCmdTarget@@UEAAXXZ 00000001400103ac f   mfc140:mfc140.dll
 0001:0000f3b2       ?IsInvokeAllowed@CCmdTarget@@UEAAHJ@Z 00000001400103b2 f   mfc140:mfc140.dll
 0001:0000f3b8       ?GetDispatchIID@CCmdTarget@@UEAAHPEAU_GUID@@@Z 00000001400103b8 f   mfc140:mfc140.dll
 0001:0000f3be       ?GetTypeInfoCount@CCmdTarget@@UEAAIXZ 00000001400103be f   mfc140:mfc140.dll
 0001:0000f3c4       ?GetTypeLibCache@CCmdTarget@@UEAAPEAVCTypeLibCache@@XZ 00000001400103c4 f   mfc140:mfc140.dll
 0001:0000f3ca       ?GetTypeLib@CCmdTarget@@UEAAJKPEAPEAUITypeLib@@@Z 00000001400103ca f   mfc140:mfc140.dll
 0001:0000f3d0       ?GetCommandMap@CCmdTarget@@MEBAPEBUAFX_OLECMDMAP@@XZ 00000001400103d0 f   mfc140:mfc140.dll
 0001:0000f3d6       ?GetDispatchMap@CCmdTarget@@MEBAPEBUAFX_DISPMAP@@XZ 00000001400103d6 f   mfc140:mfc140.dll
 0001:0000f3dc       ?GetConnectionMap@CCmdTarget@@MEBAPEBUAFX_CONNECTIONMAP@@XZ 00000001400103dc f   mfc140:mfc140.dll
 0001:0000f3e2       ?GetInterfaceMap@CCmdTarget@@MEBAPEBUAFX_INTERFACEMAP@@XZ 00000001400103e2 f   mfc140:mfc140.dll
 0001:0000f3e8       ?GetEventSinkMap@CCmdTarget@@MEBAPEBUAFX_EVENTSINKMAP@@XZ 00000001400103e8 f   mfc140:mfc140.dll
 0001:0000f3ee       ?OnCreateAggregates@CCmdTarget@@UEAAHXZ 00000001400103ee f   mfc140:mfc140.dll
 0001:0000f3f4       ?GetInterfaceHook@CCmdTarget@@UEAAPEAUIUnknown@@PEBX@Z 00000001400103f4 f   mfc140:mfc140.dll
 0001:0000f3fa       ?GetExtraConnectionPoints@CCmdTarget@@MEAAHPEAVCPtrArray@@@Z 00000001400103fa f   mfc140:mfc140.dll
 0001:0000f400       ?GetConnectionHook@CCmdTarget@@MEAAPEAUIConnectionPoint@@AEBU_GUID@@@Z 0000000140010400 f   mfc140:mfc140.dll
 0001:0000f406       ?Run@CWinApp@@UEAAHXZ      0000000140010406 f   mfc140:mfc140.dll
 0001:0000f40c       ?PreTranslateMessage@CWinThread@@UEAAHPEAUtagMSG@@@Z 000000014001040c f   mfc140:mfc140.dll
 0001:0000f412       ?PumpMessage@CWinThread@@UEAAHXZ 0000000140010412 f   mfc140:mfc140.dll
 0001:0000f418       ?OnIdle@CWinApp@@UEAAHJ@Z  0000000140010418 f   mfc140:mfc140.dll
 0001:0000f41e       ?IsIdleMessage@CWinThread@@UEAAHPEAUtagMSG@@@Z 000000014001041e f   mfc140:mfc140.dll
 0001:0000f424       ?ExitInstance@CWinApp@@UEAAHXZ 0000000140010424 f   mfc140:mfc140.dll
 0001:0000f42a       ?ProcessWndProcException@CWinApp@@UEAA_JPEAVCException@@PEBUtagMSG@@@Z 000000014001042a f   mfc140:mfc140.dll
 0001:0000f430       ?ProcessMessageFilter@CWinThread@@UEAAHHPEAUtagMSG@@@Z 0000000140010430 f   mfc140:mfc140.dll
 0001:0000f436       ?GetMainWnd@CWinThread@@UEAAPEAVCWnd@@XZ 0000000140010436 f   mfc140:mfc140.dll
 0001:0000f43c       ?Delete@CWinThread@@UEAAXXZ 000000014001043c f   mfc140:mfc140.dll
 0001:0000f442       ?GetProfileIntA@CWinApp@@UEAAIPEBD0H@Z 0000000140010442 f   mfc140:mfc140.dll
 0001:0000f448       ?WriteProfileInt@CWinApp@@UEAAHPEBD0H@Z 0000000140010448 f   mfc140:mfc140.dll
 0001:0000f44e       ?GetProfileStringA@CWinApp@@UEAA?AV?$CStringT@DV?$StrTraitMFC_DLL@DV?$ChTraitsCRT@D@ATL@@@@@ATL@@PEBD00@Z 000000014001044e f   mfc140:mfc140.dll
 0001:0000f454       ?WriteProfileStringA@CWinApp@@UEAAHPEBD00@Z 0000000140010454 f   mfc140:mfc140.dll
 0001:0000f45a       ?GetProfileBinary@CWinApp@@UEAAHPEBD0PEAPEAEPEAI@Z 000000014001045a f   mfc140:mfc140.dll
 0001:0000f460       ?WriteProfileBinary@CWinApp@@UEAAHPEBD0PEAEI@Z 0000000140010460 f   mfc140:mfc140.dll
 0001:0000f466       ?InitLibId@CWinApp@@UEAAXXZ 0000000140010466 f   mfc140:mfc140.dll
 0001:0000f46c       ?Register@CWinApp@@UEAAHXZ 000000014001046c f   mfc140:mfc140.dll
 0001:0000f472       ?Unregister@CWinApp@@UEAAHXZ 0000000140010472 f   mfc140:mfc140.dll
 0001:0000f478       ?OpenDocumentFile@CWinApp@@UEAAPEAVCDocument@@PEBDH@Z 0000000140010478 f   mfc140:mfc140.dll
 0001:0000f47e       ?OpenDocumentFile@CWinApp@@UEAAPEAVCDocument@@PEBD@Z 000000014001047e f   mfc140:mfc140.dll
 0001:0000f484       ?AddToRecentFileList@CWinApp@@UEAAXPEBD@Z 0000000140010484 f   mfc140:mfc140.dll
 0001:0000f48a       ?InitApplication@CWinApp@@UEAAHXZ 000000014001048a f   mfc140:mfc140.dll
 0001:0000f490       ?SaveAllModified@CWinApp@@UEAAHXZ 0000000140010490 f   mfc140:mfc140.dll
 0001:0000f496       ?DoMessageBox@CWinApp@@UEAAHPEBDII@Z 0000000140010496 f   mfc140:mfc140.dll
 0001:0000f49c       ?DoWaitCursor@CWinApp@@UEAAXH@Z 000000014001049c f   mfc140:mfc140.dll
 0001:0000f4a2       ?OnDDECommand@CWinApp@@UEAAHPEAD@Z 00000001400104a2 f   mfc140:mfc140.dll
 0001:0000f4a8       ?WinHelpA@CWinApp@@UEAAX_KI@Z 00000001400104a8 f   mfc140:mfc140.dll
 0001:0000f4ae       ?HtmlHelpA@CWinApp@@UEAAX_KI@Z 00000001400104ae f   mfc140:mfc140.dll
 0001:0000f4b4       ?WinHelpInternal@CWinApp@@UEAAX_KI@Z 00000001400104b4 f   mfc140:mfc140.dll
 0001:0000f4ba       ?RegisterWithRestartManager@CWinApp@@UEAAJPEB_WKP6AKPEAX@Z1KK@Z 00000001400104ba f   mfc140:mfc140.dll
 0001:0000f4c0       ?RegisterWithRestartManager@CWinApp@@UEAAJHAEBV?$CStringT@DV?$StrTraitMFC_DLL@DV?$ChTraitsCRT@D@ATL@@@@@ATL@@@Z 00000001400104c0 f   mfc140:mfc140.dll
 0001:0000f4c6       ?ApplicationRecoveryCallback@CWinApp@@UEAAKPEAX@Z 00000001400104c6 f   mfc140:mfc140.dll
 0001:0000f4cc       ?GetDataRecoveryHandler@CWinApp@@UEAAPEAVCDataRecoveryHandler@@XZ 00000001400104cc f   mfc140:mfc140.dll
 0001:0000f4d2       ?IsTaskbarInteractionEnabled@CWinApp@@UEAAHXZ 00000001400104d2 f   mfc140:mfc140.dll
 0001:0000f4d8       ?RestartInstance@CWinApp@@UEAAHXZ 00000001400104d8 f   mfc140:mfc140.dll
 0001:0000f4de       ?LoadAppLangResourceDLL@CWinApp@@UEAAPEAUHINSTANCE__@@XZ 00000001400104de f   mfc140:mfc140.dll
 0001:0000f4e4       ?LoadSysPolicies@CWinApp@@UEAAHXZ 00000001400104e4 f   mfc140:mfc140.dll
 0001:0000f4ea       ?CharToItem@CListBox@@UEAAHII@Z 00000001400104ea f   mfc140:mfc140.dll
 0001:0000f4f0       ?VKeyToItem@CListBox@@UEAAHII@Z 00000001400104f0 f   mfc140:mfc140.dll
 0001:0000f4f6       ?DeleteItem@CListBox@@UEAAXPEAUtagDELETEITEMSTRUCT@@@Z 00000001400104f6 f   mfc140:mfc140.dll
 0001:0000f4fc       ?CompareItem@CListBox@@UEAAHPEAUtagCOMPAREITEMSTRUCT@@@Z 00000001400104fc f   mfc140:mfc140.dll
 0001:0000f502       ?MeasureItem@CListBox@@UEAAXPEAUtagMEASUREITEMSTRUCT@@@Z 0000000140010502 f   mfc140:mfc140.dll
 0001:0000f508       ?DrawItem@CListBox@@UEAAXPEAUtagDRAWITEMSTRUCT@@@Z 0000000140010508 f   mfc140:mfc140.dll
 0001:0000f50e       ?Create@CListBox@@UEAAHKAEBUtagRECT@@PEAVCWnd@@I@Z 000000014001050e f   mfc140:mfc140.dll
 0001:0000f514       ?GetOccDialogInfo@CWnd@@MEAAPEAU_AFX_OCC_DIALOG_INFO@@XZ 0000000140010514 f   mfc140:mfc140.dll
 0001:0000f51a       ?SetOccDialogInfo@CWnd@@MEAAHPEAU_AFX_OCC_DIALOG_INFO@@@Z 000000014001051a f   mfc140:mfc140.dll
 0001:0000f520       ?CreateControlSite@CWnd@@MEAAHPEAVCOleControlContainer@@PEAPEAVCOleControlSite@@IAEBU_GUID@@@Z 0000000140010520 f   mfc140:mfc140.dll
 0001:0000f526       ?CreateControlContainer@CWnd@@MEAAHPEAPEAVCOleControlContainer@@@Z 0000000140010526 f   mfc140:mfc140.dll
 0001:0000f52c       ?IsFrameWnd@CWnd@@UEBAHXZ  000000014001052c f   mfc140:mfc140.dll
 0001:0000f532       ?CheckAutoCenter@CWnd@@UEAAHXZ 0000000140010532 f   mfc140:mfc140.dll
 0001:0000f538       ?ResizeDynamicLayout@CWnd@@MEAAXXZ 0000000140010538 f   mfc140:mfc140.dll
 0001:0000f53e       ?OnGesturePressAndTap@CWnd@@MEAAHVCPoint@@J@Z 000000014001053e f   mfc140:mfc140.dll
 0001:0000f544       ?OnGestureTwoFingerTap@CWnd@@MEAAHVCPoint@@@Z 0000000140010544 f   mfc140:mfc140.dll
 0001:0000f54a       ?OnGestureRotate@CWnd@@MEAAHVCPoint@@N@Z 000000014001054a f   mfc140:mfc140.dll
 0001:0000f550       ?OnGesturePan@CWnd@@MEAAHVCPoint@@0@Z 0000000140010550 f   mfc140:mfc140.dll
 0001:0000f556       ?OnGestureZoom@CWnd@@MEAAHVCPoint@@J@Z 0000000140010556 f   mfc140:mfc140.dll
 0001:0000f55c       ?GetGestureStatus@CWnd@@MEAAKVCPoint@@@Z 000000014001055c f   mfc140:mfc140.dll
 0001:0000f562       ?OnTouchInput@CWnd@@MEAAHVCPoint@@HHPEAUtagTOUCHINPUT@@@Z 0000000140010562 f   mfc140:mfc140.dll
 0001:0000f568       ?OnTouchInputs@CWnd@@MEAAHIPEAUtagTOUCHINPUT@@@Z 0000000140010568 f   mfc140:mfc140.dll
 0001:0000f56e       ?OnChildNotify@CListBox@@MEAAHI_K_JPEA_J@Z 000000014001056e f   mfc140:mfc140.dll
 0001:0000f574       ?PostNcDestroy@CWnd@@MEAAXXZ 0000000140010574 f   mfc140:mfc140.dll
 0001:0000f57a       ?DefWindowProcA@CWnd@@MEAA_JI_K_J@Z 000000014001057a f   mfc140:mfc140.dll
 0001:0000f580       ?OnWndMsg@CWnd@@MEAAHI_K_JPEA_J@Z 0000000140010580 f   mfc140:mfc140.dll
 0001:0000f586       ?WindowProc@CWnd@@MEAA_JI_K_J@Z 0000000140010586 f   mfc140:mfc140.dll
 0001:0000f58c       ?OnAmbientProperty@CWnd@@UEAAHPEAVCOleControlSite@@JPEAUtagVARIANT@@@Z 000000014001058c f   mfc140:mfc140.dll
 0001:0000f592       ?PreTranslateMessage@CWnd@@UEAAHPEAUtagMSG@@@Z 0000000140010592 f   mfc140:mfc140.dll
 0001:0000f598       ?GetSuperWndProcAddr@CWnd@@MEAAPEAP6A_JPEAUHWND__@@I_K_J@ZXZ 0000000140010598 f   mfc140:mfc140.dll
 0001:0000f59e       ?OnNotify@CWnd@@MEAAH_K_JPEA_J@Z 000000014001059e f   mfc140:mfc140.dll
 0001:0000f5a4       ?OnCommand@CWnd@@MEAAH_K_J@Z 00000001400105a4 f   mfc140:mfc140.dll
 0001:0000f5aa       ?CreateAccessibleProxy@CWnd@@UEAAJ_K_JPEA_J@Z 00000001400105aa f   mfc140:mfc140.dll
 0001:0000f5b0       ?SetProxy@CWnd@@UEAAJPEAUIAccessibleProxy@@@Z 00000001400105b0 f   mfc140:mfc140.dll
 0001:0000f5b6       ?put_accValue@CWnd@@UEAAJUtagVARIANT@@PEA_W@Z 00000001400105b6 f   mfc140:mfc140.dll
 0001:0000f5bc       ?put_accName@CWnd@@UEAAJUtagVARIANT@@PEA_W@Z 00000001400105bc f   mfc140:mfc140.dll
 0001:0000f5c2       ?accDoDefaultAction@CWnd@@UEAAJUtagVARIANT@@@Z 00000001400105c2 f   mfc140:mfc140.dll
 0001:0000f5c8       ?accHitTest@CWnd@@UEAAJJJPEAUtagVARIANT@@@Z 00000001400105c8 f   mfc140:mfc140.dll
 0001:0000f5ce       ?accNavigate@CWnd@@UEAAJJUtagVARIANT@@PEAU2@@Z 00000001400105ce f   mfc140:mfc140.dll
 0001:0000f5d4       ?accLocation@CWnd@@UEAAJPEAJ000UtagVARIANT@@@Z 00000001400105d4 f   mfc140:mfc140.dll
 0001:0000f5da       ?accSelect@CWnd@@UEAAJJUtagVARIANT@@@Z 00000001400105da f   mfc140:mfc140.dll
 0001:0000f5e0       ?get_accDefaultAction@CWnd@@UEAAJUtagVARIANT@@PEAPEA_W@Z 00000001400105e0 f   mfc140:mfc140.dll
 0001:0000f5e6       ?get_accSelection@CWnd@@UEAAJPEAUtagVARIANT@@@Z 00000001400105e6 f   mfc140:mfc140.dll
 0001:0000f5ec       ?get_accFocus@CWnd@@UEAAJPEAUtagVARIANT@@@Z 00000001400105ec f   mfc140:mfc140.dll
 0001:0000f5f2       ?get_accKeyboardShortcut@CWnd@@UEAAJUtagVARIANT@@PEAPEA_W@Z 00000001400105f2 f   mfc140:mfc140.dll
 0001:0000f5f8       ?get_accHelpTopic@CWnd@@UEAAJPEAPEA_WUtagVARIANT@@PEAJ@Z 00000001400105f8 f   mfc140:mfc140.dll
 0001:0000f5fe       ?get_accHelp@CWnd@@UEAAJUtagVARIANT@@PEAPEA_W@Z 00000001400105fe f   mfc140:mfc140.dll
 0001:0000f604       ?get_accState@CWnd@@UEAAJUtagVARIANT@@PEAU2@@Z 0000000140010604 f   mfc140:mfc140.dll
 0001:0000f60a       ?get_accRole@CWnd@@UEAAJUtagVARIANT@@PEAU2@@Z 000000014001060a f   mfc140:mfc140.dll
 0001:0000f610       ?get_accDescription@CWnd@@UEAAJUtagVARIANT@@PEAPEA_W@Z 0000000140010610 f   mfc140:mfc140.dll
 0001:0000f616       ?get_accValue@CWnd@@UEAAJUtagVARIANT@@PEAPEA_W@Z 0000000140010616 f   mfc140:mfc140.dll
 0001:0000f61c       ?get_accName@CWnd@@UEAAJUtagVARIANT@@PEAPEA_W@Z 000000014001061c f   mfc140:mfc140.dll
 0001:0000f622       ?get_accChild@CWnd@@UEAAJUtagVARIANT@@PEAPEAUIDispatch@@@Z 0000000140010622 f   mfc140:mfc140.dll
 0001:0000f628       ?get_accChildCount@CWnd@@UEAAJPEAJ@Z 0000000140010628 f   mfc140:mfc140.dll
 0001:0000f62e       ?get_accParent@CWnd@@UEAAJPEAPEAUIDispatch@@@Z 000000014001062e f   mfc140:mfc140.dll
 0001:0000f634       ?EnsureStdObj@CWnd@@UEAAJXZ 0000000140010634 f   mfc140:mfc140.dll
 0001:0000f63a       ?OnDrawIconicThumbnailOrLivePreview@CWnd@@UEAAXAEAVCDC@@VCRect@@VCSize@@HAEAH@Z 000000014001063a f   mfc140:mfc140.dll
 0001:0000f640       ?EndModalLoop@CWnd@@UEAAXH@Z 0000000140010640 f   mfc140:mfc140.dll
 0001:0000f646       ?ContinueModal@CWnd@@UEAAHXZ 0000000140010646 f   mfc140:mfc140.dll
 0001:0000f64c       ?WinHelpInternal@CWnd@@UEAAX_KI@Z 000000014001064c f   mfc140:mfc140.dll
 0001:0000f652       ?HtmlHelpA@CWnd@@UEAAX_KI@Z 0000000140010652 f   mfc140:mfc140.dll
 0001:0000f658       ?WinHelpA@CWnd@@UEAAX_KI@Z 0000000140010658 f   mfc140:mfc140.dll
 0001:0000f65e       ?GetScrollBarCtrl@CWnd@@UEBAPEAVCScrollBar@@H@Z 000000014001065e f   mfc140:mfc140.dll
 0001:0000f664       ?OnToolHitTest@CWnd@@UEBA_JVCPoint@@PEAUtagTOOLINFOA@@@Z 0000000140010664 f   mfc140:mfc140.dll
 0001:0000f66a       ?SetMenu@CWnd@@UEAAHPEAVCMenu@@@Z 000000014001066a f   mfc140:mfc140.dll
 0001:0000f670       ?GetMenu@CWnd@@UEBAPEAVCMenu@@XZ 0000000140010670 f   mfc140:mfc140.dll
 0001:0000f676       ?CalcWindowRect@CWnd@@UEAAXPEAUtagRECT@@I@Z 0000000140010676 f   mfc140:mfc140.dll
 0001:0000f67c       ?PreCreateWindow@CWnd@@UEAAHAEAUtagCREATESTRUCTA@@@Z 000000014001067c f   mfc140:mfc140.dll
 0001:0000f682       ?DestroyWindow@CWnd@@UEAAHXZ 0000000140010682 f   mfc140:mfc140.dll
 0001:0000f688       ?CreateEx@CWnd@@UEAAHKPEBD0KHHHHPEAUHWND__@@PEAUHMENU__@@PEAX@Z 0000000140010688 f   mfc140:mfc140.dll
 0001:0000f68e       ?CreateEx@CWnd@@UEAAHKPEBD0KAEBUtagRECT@@PEAV1@IPEAX@Z 000000014001068e f   mfc140:mfc140.dll
 0001:0000f694       ?Create@CWnd@@UEAAHPEBD0KAEBUtagRECT@@PEAV1@IPEAUCCreateContext@@@Z 0000000140010694 f   mfc140:mfc140.dll
 0001:0000f69a       ?PreSubclassWindow@CWnd@@UEAAXXZ 000000014001069a f   mfc140:mfc140.dll
 0001:0000f6a0       ?GetInterfaceMap@CWnd@@MEBAPEBUAFX_INTERFACEMAP@@XZ 00000001400106a0 f   mfc140:mfc140.dll
 0001:0000f6a6       ?GetMessageMap@CWnd@@MEBAPEBUAFX_MSGMAP@@XZ 00000001400106a6 f   mfc140:mfc140.dll
 0001:0000f6ac       ?OnFinalRelease@CWnd@@UEAAXXZ 00000001400106ac f   mfc140:mfc140.dll
 0001:0000f6b2       ?GetRuntimeClass@CListBox@@UEBAPEAUCRuntimeClass@@XZ 00000001400106b2 f   mfc140:mfc140.dll
 0001:0000f6b8       ?DeleteItem@CComboBox@@UEAAXPEAUtagDELETEITEMSTRUCT@@@Z 00000001400106b8 f   mfc140:mfc140.dll
 0001:0000f6be       ?CompareItem@CComboBox@@UEAAHPEAUtagCOMPAREITEMSTRUCT@@@Z 00000001400106be f   mfc140:mfc140.dll
 0001:0000f6c4       ?MeasureItem@CComboBox@@UEAAXPEAUtagMEASUREITEMSTRUCT@@@Z 00000001400106c4 f   mfc140:mfc140.dll
 0001:0000f6ca       ?DrawItem@CComboBox@@UEAAXPEAUtagDRAWITEMSTRUCT@@@Z 00000001400106ca f   mfc140:mfc140.dll
 0001:0000f6d0       ?Create@CComboBox@@UEAAHKAEBUtagRECT@@PEAVCWnd@@I@Z 00000001400106d0 f   mfc140:mfc140.dll
 0001:0000f6d6       ?OnChildNotify@CComboBox@@MEAAHI_K_JPEA_J@Z 00000001400106d6 f   mfc140:mfc140.dll
 0001:0000f6dc       ?GetRuntimeClass@CComboBox@@UEBAPEAUCRuntimeClass@@XZ 00000001400106dc f   mfc140:mfc140.dll
 0001:0000f6e2       ?AfxGetModuleState@@YAPEAVAFX_MODULE_STATE@@XZ 00000001400106e2 f   mfc140:mfc140.dll
 0001:0000f6e8       ?GetThisMessageMap@CDialog@@KAPEBUAFX_MSGMAP@@XZ 00000001400106e8 f   mfc140:mfc140.dll
 0001:0000f6ee       ?GetRuntimeClass@CDialog@@UEBAPEAUCRuntimeClass@@XZ 00000001400106ee f   mfc140:mfc140.dll
 0001:0000f6f4       ?OnCmdMsg@CDialog@@UEAAHIHPEAXPEAUAFX_CMDHANDLERINFO@@@Z 00000001400106f4 f   mfc140:mfc140.dll
 0001:0000f6fa       ?PreTranslateMessage@CDialog@@UEAAHPEAUtagMSG@@@Z 00000001400106fa f   mfc140:mfc140.dll
 0001:0000f700       ?OnChildNotify@CWnd@@MEAAHI_K_JPEA_J@Z 0000000140010700 f   mfc140:mfc140.dll
 0001:0000f706       ?CheckAutoCenter@CDialog@@UEAAHXZ 0000000140010706 f   mfc140:mfc140.dll
 0001:0000f70c       ?SetOccDialogInfo@CDialog@@MEAAHPEAU_AFX_OCC_DIALOG_INFO@@@Z 000000014001070c f   mfc140:mfc140.dll
 0001:0000f712       ?GetOccDialogInfo@CDialog@@MEAAPEAU_AFX_OCC_DIALOG_INFO@@XZ 0000000140010712 f   mfc140:mfc140.dll
 0001:0000f718       ?Create@CDialog@@UEAAHPEBDPEAVCWnd@@@Z 0000000140010718 f   mfc140:mfc140.dll
 0001:0000f71e       ?CreateIndirect@CDialog@@UEAAHPEAXPEAVCWnd@@@Z 000000014001071e f   mfc140:mfc140.dll
 0001:0000f724       ?CreateIndirect@CDialog@@UEAAHPEBUDLGTEMPLATE@@PEAVCWnd@@PEAX@Z 0000000140010724 f   mfc140:mfc140.dll
 0001:0000f72a       ?OnSetFont@CDialog@@UEAAXPEAVCFont@@@Z 000000014001072a f   mfc140:mfc140.dll
 0001:0000f730       ?OnOK@CDialog@@MEAAXXZ     0000000140010730 f   mfc140:mfc140.dll
 0001:0000f736       ?PreInitDialog@CDialog@@MEAAXXZ 0000000140010736 f   mfc140:mfc140.dll
 0001:0000f73c       ??_V@YAXPEAX@Z             000000014001073c f   mfc140:mfc140.dll
 0001:0000f760       __security_check_cookie    0000000140010760 f   msvcrt:_amdsecgs_.obj
 0001:0000f784       ??3@YAXPEAX_K@Z            0000000140010784 f   msvcrt:delete_scalar_size.obj
 0001:0000f78c       ??_Etype_info@@UEAAPEAXI@Z 000000014001078c f i msvcrt:std_type_info_static.obj
 0001:0000f78c       ??_Gtype_info@@UEAAPEAXI@Z 000000014001078c f i msvcrt:std_type_info_static.obj
 0001:0000f7b8       ??_L@YAXPEAX_K1P6AX0@Z2@Z  00000001400107b8 f   msvcrt:ehvecctr.obj
 0001:0000f828       ??_M@YAXPEAX_K1P6AX0@Z@Z   0000000140010828 f   msvcrt:ehvecdtr.obj
 0001:0000f894       ?__ArrayUnwind@@YAXPEAX_K1P6AX0@Z@Z 0000000140010894 f   msvcrt:ehvecdtr.obj
 0001:0000f8f8       ??_V@YAXPEAX_K@Z           00000001400108f8 f   msvcrt:delete_array_size.obj
 0001:0000fa48       __scrt_acquire_startup_lock 0000000140010a48 f   msvcrt:utility.obj
 0001:0000fa84       __scrt_initialize_crt      0000000140010a84 f   msvcrt:utility.obj
 0001:0000fad0       __scrt_initialize_onexit_tables 0000000140010ad0 f   msvcrt:utility.obj
 0001:0000fb9c       __scrt_is_nonwritable_in_current_image 0000000140010b9c f   msvcrt:utility.obj
 0001:0000fc38       __scrt_release_startup_lock 0000000140010c38 f   msvcrt:utility.obj
 0001:0000fc5c       __scrt_uninitialize_crt    0000000140010c5c f   msvcrt:utility.obj
 0001:0000fc88       _onexit                    0000000140010c88 f   msvcrt:utility.obj
 0001:0000fcd8       atexit                     0000000140010cd8 f   msvcrt:utility.obj
 0001:0000ff44       WinMainCRTStartup          0000000140010f44 f   msvcrt:exe_winmain.obj
 0001:0000ff58       __raise_securityfailure    0000000140010f58 f   msvcrt:gs_report.obj
 0001:0000ff8c       __report_gsfailure         0000000140010f8c f   msvcrt:gs_report.obj
 0001:000100d4       _guard_check_icall         00000001400110d4 f i msvcrt:checkcfg.obj
 0001:000100dc       __scrt_fastfail            00000001400110dc f   msvcrt:utility_desktop.obj
 0001:00010224       __scrt_get_show_window_mode 0000000140011224 f   msvcrt:utility_desktop.obj
 0001:00010260       __scrt_is_managed_app      0000000140011260 f   msvcrt:utility_desktop.obj
 0001:000102b4       __scrt_set_unhandled_exception_filter 00000001400112b4 f   msvcrt:utility_desktop.obj
 0001:000102c4       __scrt_unhandled_exception_filter 00000001400112c4 f   msvcrt:utility_desktop.obj
 0001:000102fc       __isa_available_init       00000001400112fc f   msvcrt:_cpu_disp_.obj
 0001:000104c4       _get_startup_argv_mode     00000001400114c4 f   msvcrt:argv_mode.obj
 0001:000104cc       __scrt_is_ucrt_dll_in_use  00000001400114cc f   msvcrt:ucrt_detection.obj
 0001:000104d8       __security_init_cookie     00000001400114d8 f   msvcrt:gs_support.obj
 0001:00010584       _get_startup_file_mode     0000000140011584 f   msvcrt:file_mode.obj
 0001:0001058c       ?__scrt_initialize_type_info@@YAXXZ 000000014001158c f   msvcrt:tncleanup.obj
 0001:0001059c       __local_stdio_scanf_options 000000014001159c f i msvcrt:default_local_stdio_options.obj
 0001:000105a4       __scrt_initialize_default_local_stdio_options 00000001400115a4 f   msvcrt:default_local_stdio_options.obj
 0001:000105c0       __scrt_is_user_matherr_present 00000001400115c0 f   msvcrt:matherr_detection.obj
 0001:000105cc       __scrt_get_dyn_tls_init_callback 00000001400115cc f   msvcrt:dyn_tls_init.obj
 0001:000105d4       __scrt_get_dyn_tls_dtor_callback 00000001400115d4 f   msvcrt:dyn_tls_dtor.obj
 0001:000105dc       _RTC_Initialize            00000001400115dc f   msvcrt:_initsect_.obj
 0001:00010628       _RTC_Terminate             0000000140011628 f   msvcrt:_initsect_.obj
 0001:00010674       __GSHandlerCheck           0000000140011674 f   msvcrt:_gshandler_.obj
 0001:00010694       __GSHandlerCheckCommon     0000000140011694 f   msvcrt:_gshandler_.obj
 0001:000106f0       IsProcessorFeaturePresent  00000001400116f0 f   kernel32:KERNEL32.dll
 0001:000106f8       ??0CAtlBaseModule@ATL@@QEAA@XZ 00000001400116f8 f   atls:atlbase.obj
 0001:000107a0       ??1CAtlBaseModule@ATL@@QEAA@XZ 00000001400117a0 f   atls:atlbase.obj
 0001:000107d4       ??_G_Fac_node@std@@QEAAPEAXI@Z 00000001400117d4 f i msvcprt:locale0_implib.obj
 0001:00010860       ?_Facet_Register@std@@YAXPEAV_Facet_base@1@@Z 0000000140011860 f   msvcprt:locale0_implib.obj
 0001:00010898       ?showmanyc@?$basic_streambuf@DU?$char_traits@D@std@@@std@@MEAA_JXZ 0000000140011898 f   msvcprt:MSVCP140.dll
 0001:0001089e       ?xsgetn@?$basic_streambuf@DU?$char_traits@D@std@@@std@@MEAA_JPEAD_J@Z 000000014001189e f   msvcprt:MSVCP140.dll
 0001:000108a4       ?xsputn@?$basic_streambuf@DU?$char_traits@D@std@@@std@@MEAA_JPEBD_J@Z 00000001400118a4 f   msvcprt:MSVCP140.dll
 0001:000108aa       __std_terminate            00000001400118aa f   vcruntime:VCRUNTIME140.dll
 0001:000108b0       _purecall                  00000001400118b0 f   vcruntime:VCRUNTIME140.dll
 0001:000108b6       memset                     00000001400118b6 f   vcruntime:VCRUNTIME140.dll
 0001:000108bc       __C_specific_handler       00000001400118bc f   vcruntime:VCRUNTIME140.dll
 0001:000108c2       __CxxFrameHandler3         00000001400118c2 f   vcruntime:VCRUNTIME140.dll
 0001:000108c8       __vcrt_InitializeCriticalSectionEx 00000001400118c8 f   vcruntime:VCRUNTIME140.dll
 0001:000108ce       free                       00000001400118ce f   ucrt:api-ms-win-crt-heap-l1-1-0.dll
 0001:000108d4       exit                       00000001400118d4 f   ucrt:api-ms-win-crt-runtime-l1-1-0.dll
 0001:000108da       terminate                  00000001400118da f   ucrt:api-ms-win-crt-runtime-l1-1-0.dll
 0001:000108e0       _configure_narrow_argv     00000001400118e0 f   ucrt:api-ms-win-crt-runtime-l1-1-0.dll
 0001:000108e6       _initialize_narrow_environment 00000001400118e6 f   ucrt:api-ms-win-crt-runtime-l1-1-0.dll
 0001:000108ec       _initialize_onexit_table   00000001400118ec f   ucrt:api-ms-win-crt-runtime-l1-1-0.dll
 0001:000108f2       _register_onexit_function  00000001400118f2 f   ucrt:api-ms-win-crt-runtime-l1-1-0.dll
 0001:000108f8       _crt_atexit                00000001400118f8 f   ucrt:api-ms-win-crt-runtime-l1-1-0.dll
 0001:000108fe       _cexit                     00000001400118fe f   ucrt:api-ms-win-crt-runtime-l1-1-0.dll
 0001:00010904       _seh_filter_exe            0000000140011904 f   ucrt:api-ms-win-crt-runtime-l1-1-0.dll
 0001:0001090a       _set_app_type              000000014001190a f   ucrt:api-ms-win-crt-runtime-l1-1-0.dll
 0001:00010910       __setusermatherr           0000000140011910 f   ucrt:api-ms-win-crt-math-l1-1-0.dll
 0001:00010916       _get_narrow_winmain_command_line 0000000140011916 f   ucrt:api-ms-win-crt-runtime-l1-1-0.dll
 0001:0001091c       _initterm                  000000014001191c f   ucrt:api-ms-win-crt-runtime-l1-1-0.dll
 0001:00010922       _initterm_e                0000000140011922 f   ucrt:api-ms-win-crt-runtime-l1-1-0.dll
 0001:00010928       _exit                      0000000140011928 f   ucrt:api-ms-win-crt-runtime-l1-1-0.dll
 0001:0001092e       _set_fmode                 000000014001192e f   ucrt:api-ms-win-crt-stdio-l1-1-0.dll
 0001:00010934       _c_exit                    0000000140011934 f   ucrt:api-ms-win-crt-runtime-l1-1-0.dll
 0001:0001093a       _register_thread_local_exe_atexit_callback 000000014001193a f   ucrt:api-ms-win-crt-runtime-l1-1-0.dll
 0001:00010940       _configthreadlocale        0000000140011940 f   ucrt:api-ms-win-crt-locale-l1-1-0.dll
 0001:00010946       _set_new_mode              0000000140011946 f   ucrt:api-ms-win-crt-heap-l1-1-0.dll
 0001:0001094c       __p__commode               000000014001194c f   ucrt:api-ms-win-crt-stdio-l1-1-0.dll
 0001:00010954       ?AfxInitialize@@YAHHK@Z    0000000140011954 f   mfcs140:appmodul.obj
 0001:0001098c       WinMain                    000000014001198c f   mfcs140:appmodul.obj
 0001:00010992       ?AfxWinMain@@YAHPEAUHINSTANCE__@@0PEADH@Z 0000000140011992 f   mfc140:mfc140.dll
 0001:00010998       __vcrt_initialize          0000000140011998 f   msvcrt:ucrt_stubs.obj
 0001:00010998       _should_initialize_environment 0000000140011998 f   msvcrt:env_mode.obj
 0001:00010998       __acrt_initialize          0000000140011998 f   msvcrt:ucrt_stubs.obj
 0001:00010998       __scrt_stub_for_acrt_uninitialize 0000000140011998 f   msvcrt:ucrt_stubs.obj
 0001:00010998       __scrt_stub_for_acrt_initialize 0000000140011998 f   msvcrt:ucrt_stubs.obj
 0001:00010998       __acrt_uninitialize        0000000140011998 f   msvcrt:ucrt_stubs.obj
 0001:00010998       __vcrt_uninitialize        0000000140011998 f   msvcrt:ucrt_stubs.obj
 0001:0001099c       __GSHandlerCheck_EH        000000014001199c f   msvcrt:gshandlereh.obj
 0001:00010a30       __chkstk                   0000000140011a30 f   msvcrt:_chkstk_.obj
 0001:00010a30       _alloca_probe              0000000140011a30 f   msvcrt:_chkstk_.obj
 0001:00010a82       _CxxThrowException         0000000140011a82 f   vcruntime:VCRUNTIME140.dll
 0001:00010a88       memcpy                     0000000140011a88 f   vcruntime:VCRUNTIME140.dll
 0001:00010aa0       _guard_dispatch_icall_nop  0000000140011aa0 f   msvcrt:_guard_dispatch_.obj
 0002:00000000       __imp_InitCommonControlsEx 0000000140013000     comctl32:COMCTL32.dll
 0002:00000008       \177COMCTL32_NULL_THUNK_DATA 0000000140013008     comctl32:COMCTL32.dll
 0002:00000010       __imp_CloseHandle          0000000140013010     kernel32:KERNEL32.dll
 0002:00000018       __imp_SetWaitableTimer     0000000140013018     kernel32:KERNEL32.dll
 0002:00000020       __imp_GetPrivateProfileStringA 0000000140013020     kernel32:KERNEL32.dll
 0002:00000028       __imp_SetEvent             0000000140013028     kernel32:KERNEL32.dll
 0002:00000030       __imp_CreateEventA         0000000140013030     kernel32:KERNEL32.dll
 0002:00000038       __imp_GetLocalTime         0000000140013038     kernel32:KERNEL32.dll
 0002:00000040       __imp_GetCurrentThreadId   0000000140013040     kernel32:KERNEL32.dll
 0002:00000048       __imp_InitializeCriticalSection 0000000140013048     kernel32:KERNEL32.dll
 0002:00000050       __imp_DeleteCriticalSection 0000000140013050     kernel32:KERNEL32.dll
 0002:00000058       __imp_WaitForMultipleObjects 0000000140013058     kernel32:KERNEL32.dll
 0002:00000060       __imp_Sleep                0000000140013060     kernel32:KERNEL32.dll
 0002:00000068       __imp_EnterCriticalSection 0000000140013068     kernel32:KERNEL32.dll
 0002:00000070       __imp_LeaveCriticalSection 0000000140013070     kernel32:KERNEL32.dll
 0002:00000078       __imp_ResetEvent           0000000140013078     kernel32:KERNEL32.dll
 0002:00000080       __imp_WaitForSingleObject  0000000140013080     kernel32:KERNEL32.dll
 0002:00000088       __imp_InitializeCriticalSectionAndSpinCount 0000000140013088     kernel32:KERNEL32.dll
 0002:00000090       __imp_GetLastError         0000000140013090     kernel32:KERNEL32.dll
 0002:00000098       __imp_RaiseException       0000000140013098     kernel32:KERNEL32.dll
 0002:000000a0       __imp_OutputDebugStringW   00000001400130a0     kernel32:KERNEL32.dll
 0002:000000a8       __imp_GetCurrentDirectoryA 00000001400130a8     kernel32:KERNEL32.dll
 0002:000000b0       __imp_GetStartupInfoA      00000001400130b0     kernel32:KERNEL32.dll
 0002:000000b8       __imp_CreateProcessA       00000001400130b8     kernel32:KERNEL32.dll
 0002:000000c0       __imp_CreateSemaphoreA     00000001400130c0     kernel32:KERNEL32.dll
 0002:000000c8       __imp_ReleaseSemaphore     00000001400130c8     kernel32:KERNEL32.dll
 0002:000000d0       __imp_SetThreadPriority    00000001400130d0     kernel32:KERNEL32.dll
 0002:000000d8       __imp_TerminateThread      00000001400130d8     kernel32:KERNEL32.dll
 0002:000000e0       __imp_GetPrivateProfileIntA 00000001400130e0     kernel32:KERNEL32.dll
 0002:000000e8       __imp_QueryPerformanceFrequency 00000001400130e8     kernel32:KERNEL32.dll
 0002:000000f0       __imp_QueryPerformanceCounter 00000001400130f0     kernel32:KERNEL32.dll
 0002:000000f8       __imp_GetComputerNameA     00000001400130f8     kernel32:KERNEL32.dll
 0002:00000100       __imp_WriteFile            0000000140013100     kernel32:KERNEL32.dll
 0002:00000108       __imp_CreateFileA          0000000140013108     kernel32:KERNEL32.dll
 0002:00000110       __imp_CreateMailslotA      0000000140013110     kernel32:KERNEL32.dll
 0002:00000118       __imp_ReadFile             0000000140013118     kernel32:KERNEL32.dll
 0002:00000120       __imp_GetOverlappedResult  0000000140013120     kernel32:KERNEL32.dll
 0002:00000128       __imp_CreateEventW         0000000140013128     kernel32:KERNEL32.dll
 0002:00000130       __imp_GetModuleHandleW     0000000140013130     kernel32:KERNEL32.dll
 0002:00000138       __imp_GetProcAddress       0000000140013138     kernel32:KERNEL32.dll
 0002:00000140       __imp_RtlCaptureContext    0000000140013140     kernel32:KERNEL32.dll
 0002:00000148       __imp_RtlLookupFunctionEntry 0000000140013148     kernel32:KERNEL32.dll
 0002:00000150       __imp_RtlVirtualUnwind     0000000140013150     kernel32:KERNEL32.dll
 0002:00000158       __imp_UnhandledExceptionFilter 0000000140013158     kernel32:KERNEL32.dll
 0002:00000160       __imp_SetUnhandledExceptionFilter 0000000140013160     kernel32:KERNEL32.dll
 0002:00000168       __imp_GetCurrentProcess    0000000140013168     kernel32:KERNEL32.dll
 0002:00000170       __imp_TerminateProcess     0000000140013170     kernel32:KERNEL32.dll
 0002:00000178       __imp_IsProcessorFeaturePresent 0000000140013178     kernel32:KERNEL32.dll
 0002:00000180       __imp_IsDebuggerPresent    0000000140013180     kernel32:KERNEL32.dll
 0002:00000188       __imp_GetStartupInfoW      0000000140013188     kernel32:KERNEL32.dll
 0002:00000190       __imp_GetCurrentProcessId  0000000140013190     kernel32:KERNEL32.dll
 0002:00000198       __imp_GetSystemTimeAsFileTime 0000000140013198     kernel32:KERNEL32.dll
 0002:000001a0       __imp_InitializeSListHead  00000001400131a0     kernel32:KERNEL32.dll
 0002:000001a8       __imp_CancelWaitableTimer  00000001400131a8     kernel32:KERNEL32.dll
 0002:000001b0       __imp_CreateWaitableTimerA 00000001400131b0     kernel32:KERNEL32.dll
 0002:000001b8       \177KERNEL32_NULL_THUNK_DATA 00000001400131b8     kernel32:KERNEL32.dll
 0002:000001c0       __imp_?_Osfx@?$basic_ostream@DU?$char_traits@D@std@@@std@@QEAAXXZ 00000001400131c0     msvcprt:MSVCP140.dll
 0002:000001c8       __imp_?uncaught_exception@std@@YA_NXZ 00000001400131c8     msvcprt:MSVCP140.dll
 0002:000001d0       __imp_?id@?$codecvt@DDU_Mbstatet@@@std@@2V0locale@2@A 00000001400131d0     msvcprt:MSVCP140.dll
 0002:000001d8       __imp_?_Fiopen@std@@YAPEAU_iobuf@@PEBDHH@Z 00000001400131d8     msvcprt:MSVCP140.dll
 0002:000001e0       __imp_?_BADOFF@std@@3_JB   00000001400131e0     msvcprt:MSVCP140.dll
 0002:000001e8       __imp_?_Getgloballocale@locale@std@@CAPEAV_Locimp@12@XZ 00000001400131e8     msvcprt:MSVCP140.dll
 0002:000001f0       __imp_??1_Lockit@std@@QEAA@XZ 00000001400131f0     msvcprt:MSVCP140.dll
 0002:000001f8       __imp_??0_Lockit@std@@QEAA@H@Z 00000001400131f8     msvcprt:MSVCP140.dll
 0002:00000200       __imp_?_Xlength_error@std@@YAXPEBD@Z 0000000140013200     msvcprt:MSVCP140.dll
 0002:00000208       __imp_?_Xbad_alloc@std@@YAXXZ 0000000140013208     msvcprt:MSVCP140.dll
 0002:00000210       __imp_??Bid@locale@std@@QEAA_KXZ 0000000140013210     msvcprt:MSVCP140.dll
 0002:00000218       __imp_?sputn@?$basic_streambuf@DU?$char_traits@D@std@@@std@@QEAA_JPEBD_J@Z 0000000140013218     msvcprt:MSVCP140.dll
 0002:00000220       __imp_?always_noconv@codecvt_base@std@@QEBA_NXZ 0000000140013220     msvcprt:MSVCP140.dll
 0002:00000228       __imp_??6?$basic_ostream@DU?$char_traits@D@std@@@std@@QEAAAEAV01@P6AAEAV01@AEAV01@@Z@Z 0000000140013228     msvcprt:MSVCP140.dll
 0002:00000230       __imp_??1?$basic_ostream@DU?$char_traits@D@std@@@std@@UEAA@XZ 0000000140013230     msvcprt:MSVCP140.dll
 0002:00000238       __imp_?xsputn@?$basic_streambuf@DU?$char_traits@D@std@@@std@@MEAA_JPEBD_J@Z 0000000140013238     msvcprt:MSVCP140.dll
 0002:00000240       __imp_?xsgetn@?$basic_streambuf@DU?$char_traits@D@std@@@std@@MEAA_JPEAD_J@Z 0000000140013240     msvcprt:MSVCP140.dll
 0002:00000248       __imp_?showmanyc@?$basic_streambuf@DU?$char_traits@D@std@@@std@@MEAA_JXZ 0000000140013248     msvcprt:MSVCP140.dll
 0002:00000250       __imp_??1?$basic_streambuf@DU?$char_traits@D@std@@@std@@UEAA@XZ 0000000140013250     msvcprt:MSVCP140.dll
 0002:00000258       __imp_??1?$basic_ios@DU?$char_traits@D@std@@@std@@UEAA@XZ 0000000140013258     msvcprt:MSVCP140.dll
 0002:00000260       __imp_?out@?$codecvt@DDU_Mbstatet@@@std@@QEBAHAEAU_Mbstatet@@PEBD1AEAPEBDPEAD3AEAPEAD@Z 0000000140013260     msvcprt:MSVCP140.dll
 0002:00000268       __imp_?in@?$codecvt@DDU_Mbstatet@@@std@@QEBAHAEAU_Mbstatet@@PEBD1AEAPEBDPEAD3AEAPEAD@Z 0000000140013268     msvcprt:MSVCP140.dll
 0002:00000270       __imp_??0?$basic_ostream@DU?$char_traits@D@std@@@std@@QEAA@PEAV?$basic_streambuf@DU?$char_traits@D@std@@@1@_N@Z 0000000140013270     msvcprt:MSVCP140.dll
 0002:00000278       __imp_?put@?$basic_ostream@DU?$char_traits@D@std@@@std@@QEAAAEAV12@D@Z 0000000140013278     msvcprt:MSVCP140.dll
 0002:00000280       __imp_?flush@?$basic_ostream@DU?$char_traits@D@std@@@std@@QEAAAEAV12@XZ 0000000140013280     msvcprt:MSVCP140.dll
 0002:00000288       __imp_?_Getcat@?$codecvt@DDU_Mbstatet@@@std@@SA_KPEAPEBVfacet@locale@2@PEBV42@@Z 0000000140013288     msvcprt:MSVCP140.dll
 0002:00000290       __imp_?widen@?$basic_ios@DU?$char_traits@D@std@@@std@@QEBADD@Z 0000000140013290     msvcprt:MSVCP140.dll
 0002:00000298       __imp_?sputc@?$basic_streambuf@DU?$char_traits@D@std@@@std@@QEAAHD@Z 0000000140013298     msvcprt:MSVCP140.dll
 0002:000002a0       __imp_??0?$basic_streambuf@DU?$char_traits@D@std@@@std@@IEAA@XZ 00000001400132a0     msvcprt:MSVCP140.dll
 0002:000002a8       __imp_?getloc@?$basic_streambuf@DU?$char_traits@D@std@@@std@@QEBA?AVlocale@2@XZ 00000001400132a8     msvcprt:MSVCP140.dll
 0002:000002b0       __imp_?_Init@?$basic_streambuf@DU?$char_traits@D@std@@@std@@IEAAXXZ 00000001400132b0     msvcprt:MSVCP140.dll
 0002:000002b8       __imp_?unshift@?$codecvt@DDU_Mbstatet@@@std@@QEBAHAEAU_Mbstatet@@PEAD1AEAPEAD@Z 00000001400132b8     msvcprt:MSVCP140.dll
 0002:000002c0       __imp_?clear@?$basic_ios@DU?$char_traits@D@std@@@std@@QEAAXH_N@Z 00000001400132c0     msvcprt:MSVCP140.dll
 0002:000002c8       __imp_?setstate@?$basic_ios@DU?$char_traits@D@std@@@std@@QEAAXH_N@Z 00000001400132c8     msvcprt:MSVCP140.dll
 0002:000002d0       __imp_??0?$basic_ios@DU?$char_traits@D@std@@@std@@IEAA@XZ 00000001400132d0     msvcprt:MSVCP140.dll
 0002:000002d8       \177MSVCP140_NULL_THUNK_DATA 00000001400132d8     msvcprt:MSVCP140.dll
 0002:000002e0       __imp_SQLSetStmtAttr       00000001400132e0     KizuODBC:ODBC32.dll
 0002:000002e8       __imp_SQLCancel            00000001400132e8     KizuODBC:ODBC32.dll
 0002:000002f0       __imp_SQLFetch             00000001400132f0     KizuODBC:ODBC32.dll
 0002:000002f8       __imp_SQLGetData           00000001400132f8     KizuODBC:ODBC32.dll
 0002:00000300       __imp_SQLError             0000000140013300     KizuODBC:ODBC32.dll
 0002:00000308       __imp_SQLDisconnect        0000000140013308     KizuODBC:ODBC32.dll
 0002:00000310       __imp_SQLConnect           0000000140013310     KizuODBC:ODBC32.dll
 0002:00000318       __imp_SQLSetConnectAttr    0000000140013318     KizuODBC:ODBC32.dll
 0002:00000320       __imp_SQLGetDiagRec        0000000140013320     KizuODBC:ODBC32.dll
 0002:00000328       __imp_SQLFreeHandle        0000000140013328     KizuODBC:ODBC32.dll
 0002:00000330       __imp_SQLSetEnvAttr        0000000140013330     KizuODBC:ODBC32.dll
 0002:00000338       __imp_SQLAllocHandle       0000000140013338     KizuODBC:ODBC32.dll
 0002:00000340       __imp_SQLTransact          0000000140013340     KizuODBC:ODBC32.dll
 0002:00000348       __imp_SQLExecDirect        0000000140013348     KizuODBC:ODBC32.dll
 0002:00000350       \177ODBC32_NULL_THUNK_DATA 0000000140013350     KizuODBC:ODBC32.dll
 0002:00000358       __imp_PostThreadMessageA   0000000140013358     user32:USER32.dll
 0002:00000360       __imp_PostMessageA         0000000140013360     user32:USER32.dll
 0002:00000368       __imp_KillTimer            0000000140013368     user32:USER32.dll
 0002:00000370       __imp_PeekMessageA         0000000140013370     user32:USER32.dll
 0002:00000378       __imp_SetTimer             0000000140013378     user32:USER32.dll
 0002:00000380       __imp_DrawIcon             0000000140013380     user32:USER32.dll
 0002:00000388       __imp_GetClientRect        0000000140013388     user32:USER32.dll
 0002:00000390       __imp_IsIconic             0000000140013390     user32:USER32.dll
 0002:00000398       __imp_EnableMenuItem       0000000140013398     user32:USER32.dll
 0002:000003a0       __imp_GetSystemMenu        00000001400133a0     user32:USER32.dll
 0002:000003a8       __imp_SendMessageA         00000001400133a8     user32:USER32.dll
 0002:000003b0       __imp_LoadIconW            00000001400133b0     user32:USER32.dll
 0002:000003b8       __imp_EnableWindow         00000001400133b8     user32:USER32.dll
 0002:000003c0       __imp_GetMessageA          00000001400133c0     user32:USER32.dll
 0002:000003c8       __imp_GetSystemMetrics     00000001400133c8     user32:USER32.dll
 0002:000003d0       \177USER32_NULL_THUNK_DATA 00000001400133d0     user32:USER32.dll
 0002:000003d8       __imp___CxxFrameHandler3   00000001400133d8     vcruntime:VCRUNTIME140.dll
 0002:000003e0       __imp___C_specific_handler 00000001400133e0     vcruntime:VCRUNTIME140.dll
 0002:000003e8       __imp_memset               00000001400133e8     vcruntime:VCRUNTIME140.dll
 0002:000003f0       __imp_memmove              00000001400133f0     vcruntime:VCRUNTIME140.dll
 0002:000003f8       __imp___std_exception_destroy 00000001400133f8     vcruntime:VCRUNTIME140.dll
 0002:00000400       __imp___std_exception_copy 0000000140013400     vcruntime:VCRUNTIME140.dll
 0002:00000408       __imp_memcpy               0000000140013408     vcruntime:VCRUNTIME140.dll
 0002:00000410       __imp__purecall            0000000140013410     vcruntime:VCRUNTIME140.dll
 0002:00000418       __imp___std_terminate      0000000140013418     vcruntime:VCRUNTIME140.dll
 0002:00000420       __imp__CxxThrowException   0000000140013420     vcruntime:VCRUNTIME140.dll
 0002:00000428       __imp___vcrt_InitializeCriticalSectionEx 0000000140013428     vcruntime:VCRUNTIME140.dll
 0002:00000430       \177VCRUNTIME140_NULL_THUNK_DATA 0000000140013430     vcruntime:VCRUNTIME140.dll
 0002:00000438       __imp_atoi                 0000000140013438     ucrt:api-ms-win-crt-convert-l1-1-0.dll
 0002:00000440       __imp_atof                 0000000140013440     ucrt:api-ms-win-crt-convert-l1-1-0.dll
 0002:00000448       \177api-ms-win-crt-convert-l1-1-0_NULL_THUNK_DATA 0000000140013448     ucrt:api-ms-win-crt-convert-l1-1-0.dll
 0002:00000450       __imp__mkdir               0000000140013450     ucrt:api-ms-win-crt-filesystem-l1-1-0.dll
 0002:00000458       __imp_remove               0000000140013458     ucrt:api-ms-win-crt-filesystem-l1-1-0.dll
 0002:00000460       __imp_rename               0000000140013460     ucrt:api-ms-win-crt-filesystem-l1-1-0.dll
 0002:00000468       __imp__unlock_file         0000000140013468     ucrt:api-ms-win-crt-filesystem-l1-1-0.dll
 0002:00000470       __imp__lock_file           0000000140013470     ucrt:api-ms-win-crt-filesystem-l1-1-0.dll
 0002:00000478       \177api-ms-win-crt-filesystem-l1-1-0_NULL_THUNK_DATA 0000000140013478     ucrt:api-ms-win-crt-filesystem-l1-1-0.dll
 0002:00000480       __imp_free                 0000000140013480     ucrt:api-ms-win-crt-heap-l1-1-0.dll
 0002:00000488       __imp__set_new_mode        0000000140013488     ucrt:api-ms-win-crt-heap-l1-1-0.dll
 0002:00000490       \177api-ms-win-crt-heap-l1-1-0_NULL_THUNK_DATA 0000000140013490     ucrt:api-ms-win-crt-heap-l1-1-0.dll
 0002:00000498       __imp_setlocale            0000000140013498     ucrt:api-ms-win-crt-locale-l1-1-0.dll
 0002:000004a0       __imp__setmbcp             00000001400134a0     ucrt:api-ms-win-crt-locale-l1-1-0.dll
 0002:000004a8       __imp__configthreadlocale  00000001400134a8     ucrt:api-ms-win-crt-locale-l1-1-0.dll
 0002:000004b0       \177api-ms-win-crt-locale-l1-1-0_NULL_THUNK_DATA 00000001400134b0     ucrt:api-ms-win-crt-locale-l1-1-0.dll
 0002:000004b8       __imp___setusermatherr     00000001400134b8     ucrt:api-ms-win-crt-math-l1-1-0.dll
 0002:000004c0       \177api-ms-win-crt-math-l1-1-0_NULL_THUNK_DATA 00000001400134c0     ucrt:api-ms-win-crt-math-l1-1-0.dll
 0002:000004c8       __imp__invalid_parameter_noinfo_noreturn 00000001400134c8     ucrt:api-ms-win-crt-runtime-l1-1-0.dll
 0002:000004d0       __imp__invalid_parameter_noinfo 00000001400134d0     ucrt:api-ms-win-crt-runtime-l1-1-0.dll
 0002:000004d8       __imp__register_thread_local_exe_atexit_callback 00000001400134d8     ucrt:api-ms-win-crt-runtime-l1-1-0.dll
 0002:000004e0       __imp__c_exit              00000001400134e0     ucrt:api-ms-win-crt-runtime-l1-1-0.dll
 0002:000004e8       __imp__errno               00000001400134e8     ucrt:api-ms-win-crt-runtime-l1-1-0.dll
 0002:000004f0       __imp__exit                00000001400134f0     ucrt:api-ms-win-crt-runtime-l1-1-0.dll
 0002:000004f8       __imp__initterm_e          00000001400134f8     ucrt:api-ms-win-crt-runtime-l1-1-0.dll
 0002:00000500       __imp__initterm            0000000140013500     ucrt:api-ms-win-crt-runtime-l1-1-0.dll
 0002:00000508       __imp__get_narrow_winmain_command_line 0000000140013508     ucrt:api-ms-win-crt-runtime-l1-1-0.dll
 0002:00000510       __imp__set_app_type        0000000140013510     ucrt:api-ms-win-crt-runtime-l1-1-0.dll
 0002:00000518       __imp__seh_filter_exe      0000000140013518     ucrt:api-ms-win-crt-runtime-l1-1-0.dll
 0002:00000520       __imp__cexit               0000000140013520     ucrt:api-ms-win-crt-runtime-l1-1-0.dll
 0002:00000528       __imp__crt_atexit          0000000140013528     ucrt:api-ms-win-crt-runtime-l1-1-0.dll
 0002:00000530       __imp__register_onexit_function 0000000140013530     ucrt:api-ms-win-crt-runtime-l1-1-0.dll
 0002:00000538       __imp__initialize_onexit_table 0000000140013538     ucrt:api-ms-win-crt-runtime-l1-1-0.dll
 0002:00000540       __imp__initialize_narrow_environment 0000000140013540     ucrt:api-ms-win-crt-runtime-l1-1-0.dll
 0002:00000548       __imp__configure_narrow_argv 0000000140013548     ucrt:api-ms-win-crt-runtime-l1-1-0.dll
 0002:00000550       __imp_terminate            0000000140013550     ucrt:api-ms-win-crt-runtime-l1-1-0.dll
 0002:00000558       __imp__beginthreadex       0000000140013558     ucrt:api-ms-win-crt-runtime-l1-1-0.dll
 0002:00000560       __imp_exit                 0000000140013560     ucrt:api-ms-win-crt-runtime-l1-1-0.dll
 0002:00000568       \177api-ms-win-crt-runtime-l1-1-0_NULL_THUNK_DATA 0000000140013568     ucrt:api-ms-win-crt-runtime-l1-1-0.dll
 0002:00000570       __imp_fclose               0000000140013570     ucrt:api-ms-win-crt-stdio-l1-1-0.dll
 0002:00000578       __imp__get_stream_buffer_pointers 0000000140013578     ucrt:api-ms-win-crt-stdio-l1-1-0.dll
 0002:00000580       __imp_fwrite               0000000140013580     ucrt:api-ms-win-crt-stdio-l1-1-0.dll
 0002:00000588       __imp_fgetpos              0000000140013588     ucrt:api-ms-win-crt-stdio-l1-1-0.dll
 0002:00000590       __imp__fseeki64            0000000140013590     ucrt:api-ms-win-crt-stdio-l1-1-0.dll
 0002:00000598       __imp_fsetpos              0000000140013598     ucrt:api-ms-win-crt-stdio-l1-1-0.dll
 0002:000005a0       __imp_setvbuf              00000001400135a0     ucrt:api-ms-win-crt-stdio-l1-1-0.dll
 0002:000005a8       __imp_fflush               00000001400135a8     ucrt:api-ms-win-crt-stdio-l1-1-0.dll
 0002:000005b0       __imp___stdio_common_vsprintf 00000001400135b0     ucrt:api-ms-win-crt-stdio-l1-1-0.dll
 0002:000005b8       __imp_ungetc               00000001400135b8     ucrt:api-ms-win-crt-stdio-l1-1-0.dll
 0002:000005c0       __imp_fputc                00000001400135c0     ucrt:api-ms-win-crt-stdio-l1-1-0.dll
 0002:000005c8       __imp_fgetc                00000001400135c8     ucrt:api-ms-win-crt-stdio-l1-1-0.dll
 0002:000005d0       __imp__set_fmode           00000001400135d0     ucrt:api-ms-win-crt-stdio-l1-1-0.dll
 0002:000005d8       __imp___p__commode         00000001400135d8     ucrt:api-ms-win-crt-stdio-l1-1-0.dll
 0002:000005e0       \177api-ms-win-crt-stdio-l1-1-0_NULL_THUNK_DATA 00000001400135e0     ucrt:api-ms-win-crt-stdio-l1-1-0.dll
 0002:000005e8       __imp__time64              00000001400135e8     ucrt:api-ms-win-crt-time-l1-1-0.dll
 0002:000005f0       \177api-ms-win-crt-time-l1-1-0_NULL_THUNK_DATA 00000001400135f0     ucrt:api-ms-win-crt-time-l1-1-0.dll
 0002:000005f8       __imp_?get_accState@CWnd@@UEAAJUtagVARIANT@@PEAU2@@Z 00000001400135f8     mfc140:mfc140.dll
 0002:00000600       __imp_?get_accHelp@CWnd@@UEAAJUtagVARIANT@@PEAPEA_W@Z 0000000140013600     mfc140:mfc140.dll
 0002:00000608       __imp_?get_accHelpTopic@CWnd@@UEAAJPEAPEA_WUtagVARIANT@@PEAJ@Z 0000000140013608     mfc140:mfc140.dll
 0002:00000610       __imp_?get_accKeyboardShortcut@CWnd@@UEAAJUtagVARIANT@@PEAPEA_W@Z 0000000140013610     mfc140:mfc140.dll
 0002:00000618       __imp_?get_accFocus@CWnd@@UEAAJPEAUtagVARIANT@@@Z 0000000140013618     mfc140:mfc140.dll
 0002:00000620       __imp_?get_accSelection@CWnd@@UEAAJPEAUtagVARIANT@@@Z 0000000140013620     mfc140:mfc140.dll
 0002:00000628       __imp_?get_accDefaultAction@CWnd@@UEAAJUtagVARIANT@@PEAPEA_W@Z 0000000140013628     mfc140:mfc140.dll
 0002:00000630       __imp_?accSelect@CWnd@@UEAAJJUtagVARIANT@@@Z 0000000140013630     mfc140:mfc140.dll
 0002:00000638       __imp_?accLocation@CWnd@@UEAAJPEAJ000UtagVARIANT@@@Z 0000000140013638     mfc140:mfc140.dll
 0002:00000640       __imp_?accNavigate@CWnd@@UEAAJJUtagVARIANT@@PEAU2@@Z 0000000140013640     mfc140:mfc140.dll
 0002:00000648       __imp_?accHitTest@CWnd@@UEAAJJJPEAUtagVARIANT@@@Z 0000000140013648     mfc140:mfc140.dll
 0002:00000650       __imp_?accDoDefaultAction@CWnd@@UEAAJUtagVARIANT@@@Z 0000000140013650     mfc140:mfc140.dll
 0002:00000658       __imp_?put_accName@CWnd@@UEAAJUtagVARIANT@@PEA_W@Z 0000000140013658     mfc140:mfc140.dll
 0002:00000660       __imp_?put_accValue@CWnd@@UEAAJUtagVARIANT@@PEA_W@Z 0000000140013660     mfc140:mfc140.dll
 0002:00000668       __imp_?SetProxy@CWnd@@UEAAJPEAUIAccessibleProxy@@@Z 0000000140013668     mfc140:mfc140.dll
 0002:00000670       __imp_?CreateAccessibleProxy@CWnd@@UEAAJ_K_JPEA_J@Z 0000000140013670     mfc140:mfc140.dll
 0002:00000678       __imp_?OnCommand@CWnd@@MEAAH_K_J@Z 0000000140013678     mfc140:mfc140.dll
 0002:00000680       __imp_?OnNotify@CWnd@@MEAAH_K_JPEA_J@Z 0000000140013680     mfc140:mfc140.dll
 0002:00000688       __imp_?GetSuperWndProcAddr@CWnd@@MEAAPEAP6A_JPEAUHWND__@@I_K_J@ZXZ 0000000140013688     mfc140:mfc140.dll
 0002:00000690       __imp_?PreTranslateMessage@CWnd@@UEAAHPEAUtagMSG@@@Z 0000000140013690     mfc140:mfc140.dll
 0002:00000698       __imp_?OnAmbientProperty@CWnd@@UEAAHPEAVCOleControlSite@@JPEAUtagVARIANT@@@Z 0000000140013698     mfc140:mfc140.dll
 0002:000006a0       __imp_?WindowProc@CWnd@@MEAA_JI_K_J@Z 00000001400136a0     mfc140:mfc140.dll
 0002:000006a8       __imp_?OnWndMsg@CWnd@@MEAAHI_K_JPEA_J@Z 00000001400136a8     mfc140:mfc140.dll
 0002:000006b0       __imp_?DefWindowProcA@CWnd@@MEAA_JI_K_J@Z 00000001400136b0     mfc140:mfc140.dll
 0002:000006b8       __imp_?PostNcDestroy@CWnd@@MEAAXXZ 00000001400136b8     mfc140:mfc140.dll
 0002:000006c0       __imp_?OnChildNotify@CListBox@@MEAAHI_K_JPEA_J@Z 00000001400136c0     mfc140:mfc140.dll
 0002:000006c8       __imp_?OnTouchInputs@CWnd@@MEAAHIPEAUtagTOUCHINPUT@@@Z 00000001400136c8     mfc140:mfc140.dll
 0002:000006d0       __imp_?OnTouchInput@CWnd@@MEAAHVCPoint@@HHPEAUtagTOUCHINPUT@@@Z 00000001400136d0     mfc140:mfc140.dll
 0002:000006d8       __imp_?GetGestureStatus@CWnd@@MEAAKVCPoint@@@Z 00000001400136d8     mfc140:mfc140.dll
 0002:000006e0       __imp_?OnGestureZoom@CWnd@@MEAAHVCPoint@@J@Z 00000001400136e0     mfc140:mfc140.dll
 0002:000006e8       __imp_?OnGesturePan@CWnd@@MEAAHVCPoint@@0@Z 00000001400136e8     mfc140:mfc140.dll
 0002:000006f0       __imp_?OnGestureRotate@CWnd@@MEAAHVCPoint@@N@Z 00000001400136f0     mfc140:mfc140.dll
 0002:000006f8       __imp_?OnGestureTwoFingerTap@CWnd@@MEAAHVCPoint@@@Z 00000001400136f8     mfc140:mfc140.dll
 0002:00000700       __imp_?OnGesturePressAndTap@CWnd@@MEAAHVCPoint@@J@Z 0000000140013700     mfc140:mfc140.dll
 0002:00000708       __imp_?ResizeDynamicLayout@CWnd@@MEAAXXZ 0000000140013708     mfc140:mfc140.dll
 0002:00000710       __imp_?CheckAutoCenter@CWnd@@UEAAHXZ 0000000140013710     mfc140:mfc140.dll
 0002:00000718       __imp_?IsFrameWnd@CWnd@@UEBAHXZ 0000000140013718     mfc140:mfc140.dll
 0002:00000720       __imp_?CreateControlContainer@CWnd@@MEAAHPEAPEAVCOleControlContainer@@@Z 0000000140013720     mfc140:mfc140.dll
 0002:00000728       __imp_?CreateControlSite@CWnd@@MEAAHPEAVCOleControlContainer@@PEAPEAVCOleControlSite@@IAEBU_GUID@@@Z 0000000140013728     mfc140:mfc140.dll
 0002:00000730       __imp_?SetOccDialogInfo@CWnd@@MEAAHPEAU_AFX_OCC_DIALOG_INFO@@@Z 0000000140013730     mfc140:mfc140.dll
 0002:00000738       __imp_?GetOccDialogInfo@CWnd@@MEAAPEAU_AFX_OCC_DIALOG_INFO@@XZ 0000000140013738     mfc140:mfc140.dll
 0002:00000740       __imp_?Create@CListBox@@UEAAHKAEBUtagRECT@@PEAVCWnd@@I@Z 0000000140013740     mfc140:mfc140.dll
 0002:00000748       __imp_?DrawItem@CListBox@@UEAAXPEAUtagDRAWITEMSTRUCT@@@Z 0000000140013748     mfc140:mfc140.dll
 0002:00000750       __imp_?MeasureItem@CListBox@@UEAAXPEAUtagMEASUREITEMSTRUCT@@@Z 0000000140013750     mfc140:mfc140.dll
 0002:00000758       __imp_?CompareItem@CListBox@@UEAAHPEAUtagCOMPAREITEMSTRUCT@@@Z 0000000140013758     mfc140:mfc140.dll
 0002:00000760       __imp_?DeleteItem@CListBox@@UEAAXPEAUtagDELETEITEMSTRUCT@@@Z 0000000140013760     mfc140:mfc140.dll
 0002:00000768       __imp_?VKeyToItem@CListBox@@UEAAHII@Z 0000000140013768     mfc140:mfc140.dll
 0002:00000770       __imp_?CharToItem@CListBox@@UEAAHII@Z 0000000140013770     mfc140:mfc140.dll
 0002:00000778       __imp_??0CDialog@@QEAA@IPEAVCWnd@@@Z 0000000140013778     mfc140:mfc140.dll
 0002:00000780       __imp_?LoadSysPolicies@CWinApp@@UEAAHXZ 0000000140013780     mfc140:mfc140.dll
 0002:00000788       __imp_?LoadAppLangResourceDLL@CWinApp@@UEAAPEAUHINSTANCE__@@XZ 0000000140013788     mfc140:mfc140.dll
 0002:00000790       __imp_?RestartInstance@CWinApp@@UEAAHXZ 0000000140013790     mfc140:mfc140.dll
 0002:00000798       __imp_?IsTaskbarInteractionEnabled@CWinApp@@UEAAHXZ 0000000140013798     mfc140:mfc140.dll
 0002:000007a0       __imp_?GetDataRecoveryHandler@CWinApp@@UEAAPEAVCDataRecoveryHandler@@XZ 00000001400137a0     mfc140:mfc140.dll
 0002:000007a8       __imp_?ApplicationRecoveryCallback@CWinApp@@UEAAKPEAX@Z 00000001400137a8     mfc140:mfc140.dll
 0002:000007b0       __imp_?RegisterWithRestartManager@CWinApp@@UEAAJHAEBV?$CStringT@DV?$StrTraitMFC_DLL@DV?$ChTraitsCRT@D@ATL@@@@@ATL@@@Z 00000001400137b0     mfc140:mfc140.dll
 0002:000007b8       __imp_?RegisterWithRestartManager@CWinApp@@UEAAJPEB_WKP6AKPEAX@Z1KK@Z 00000001400137b8     mfc140:mfc140.dll
 0002:000007c0       __imp_?WinHelpInternal@CWinApp@@UEAAX_KI@Z 00000001400137c0     mfc140:mfc140.dll
 0002:000007c8       __imp_?HtmlHelpA@CWinApp@@UEAAX_KI@Z 00000001400137c8     mfc140:mfc140.dll
 0002:000007d0       __imp_?WinHelpA@CWinApp@@UEAAX_KI@Z 00000001400137d0     mfc140:mfc140.dll
 0002:000007d8       __imp_?OnDDECommand@CWinApp@@UEAAHPEAD@Z 00000001400137d8     mfc140:mfc140.dll
 0002:000007e0       __imp_?DoWaitCursor@CWinApp@@UEAAXH@Z 00000001400137e0     mfc140:mfc140.dll
 0002:000007e8       __imp_?DoMessageBox@CWinApp@@UEAAHPEBDII@Z 00000001400137e8     mfc140:mfc140.dll
 0002:000007f0       __imp_?SaveAllModified@CWinApp@@UEAAHXZ 00000001400137f0     mfc140:mfc140.dll
 0002:000007f8       __imp_?InitApplication@CWinApp@@UEAAHXZ 00000001400137f8     mfc140:mfc140.dll
 0002:00000800       __imp_?AddToRecentFileList@CWinApp@@UEAAXPEBD@Z 0000000140013800     mfc140:mfc140.dll
 0002:00000808       __imp_?Default@CWnd@@IEAA_JXZ 0000000140013808     mfc140:mfc140.dll
 0002:00000810       __imp_?get_accRole@CWnd@@UEAAJUtagVARIANT@@PEAU2@@Z 0000000140013810     mfc140:mfc140.dll
 0002:00000818       __imp_?Unregister@CWinApp@@UEAAHXZ 0000000140013818     mfc140:mfc140.dll
 0002:00000820       __imp_?Register@CWinApp@@UEAAHXZ 0000000140013820     mfc140:mfc140.dll
 0002:00000828       __imp_?InitLibId@CWinApp@@UEAAXXZ 0000000140013828     mfc140:mfc140.dll
 0002:00000830       __imp_?WriteProfileBinary@CWinApp@@UEAAHPEBD0PEAEI@Z 0000000140013830     mfc140:mfc140.dll
 0002:00000838       __imp_?GetProfileBinary@CWinApp@@UEAAHPEBD0PEAPEAEPEAI@Z 0000000140013838     mfc140:mfc140.dll
 0002:00000840       __imp_?WriteProfileStringA@CWinApp@@UEAAHPEBD00@Z 0000000140013840     mfc140:mfc140.dll
 0002:00000848       __imp_?get_accValue@CWnd@@UEAAJUtagVARIANT@@PEAPEA_W@Z 0000000140013848     mfc140:mfc140.dll
 0002:00000850       __imp_?WriteProfileInt@CWinApp@@UEAAHPEBD0H@Z 0000000140013850     mfc140:mfc140.dll
 0002:00000858       __imp_?GetProfileIntA@CWinApp@@UEAAIPEBD0H@Z 0000000140013858     mfc140:mfc140.dll
 0002:00000860       __imp_?Delete@CWinThread@@UEAAXXZ 0000000140013860     mfc140:mfc140.dll
 0002:00000868       __imp_?GetMainWnd@CWinThread@@UEAAPEAVCWnd@@XZ 0000000140013868     mfc140:mfc140.dll
 0002:00000870       __imp_?ProcessMessageFilter@CWinThread@@UEAAHHPEAUtagMSG@@@Z 0000000140013870     mfc140:mfc140.dll
 0002:00000878       __imp_?ProcessWndProcException@CWinApp@@UEAA_JPEAVCException@@PEBUtagMSG@@@Z 0000000140013878     mfc140:mfc140.dll
 0002:00000880       __imp_?ExitInstance@CWinApp@@UEAAHXZ 0000000140013880     mfc140:mfc140.dll
 0002:00000888       __imp_?IsIdleMessage@CWinThread@@UEAAHPEAUtagMSG@@@Z 0000000140013888     mfc140:mfc140.dll
 0002:00000890       __imp_?OnIdle@CWinApp@@UEAAHJ@Z 0000000140013890     mfc140:mfc140.dll
 0002:00000898       __imp_?PumpMessage@CWinThread@@UEAAHXZ 0000000140013898     mfc140:mfc140.dll
 0002:000008a0       __imp_?PreTranslateMessage@CWinThread@@UEAAHPEAUtagMSG@@@Z 00000001400138a0     mfc140:mfc140.dll
 0002:000008a8       __imp_?Run@CWinApp@@UEAAHXZ 00000001400138a8     mfc140:mfc140.dll
 0002:000008b0       __imp_?GetConnectionHook@CCmdTarget@@MEAAPEAUIConnectionPoint@@AEBU_GUID@@@Z 00000001400138b0     mfc140:mfc140.dll
 0002:000008b8       __imp_?GetExtraConnectionPoints@CCmdTarget@@MEAAHPEAVCPtrArray@@@Z 00000001400138b8     mfc140:mfc140.dll
 0002:000008c0       __imp_?GetInterfaceHook@CCmdTarget@@UEAAPEAUIUnknown@@PEBX@Z 00000001400138c0     mfc140:mfc140.dll
 0002:000008c8       __imp_?OnCreateAggregates@CCmdTarget@@UEAAHXZ 00000001400138c8     mfc140:mfc140.dll
 0002:000008d0       __imp_?GetEventSinkMap@CCmdTarget@@MEBAPEBUAFX_EVENTSINKMAP@@XZ 00000001400138d0     mfc140:mfc140.dll
 0002:000008d8       __imp_?GetInterfaceMap@CCmdTarget@@MEBAPEBUAFX_INTERFACEMAP@@XZ 00000001400138d8     mfc140:mfc140.dll
 0002:000008e0       __imp_?GetConnectionMap@CCmdTarget@@MEBAPEBUAFX_CONNECTIONMAP@@XZ 00000001400138e0     mfc140:mfc140.dll
 0002:000008e8       __imp_?GetDispatchMap@CCmdTarget@@MEBAPEBUAFX_DISPMAP@@XZ 00000001400138e8     mfc140:mfc140.dll
 0002:000008f0       __imp_?GetCommandMap@CCmdTarget@@MEBAPEBUAFX_OLECMDMAP@@XZ 00000001400138f0     mfc140:mfc140.dll
 0002:000008f8       __imp_?GetTypeLib@CCmdTarget@@UEAAJKPEAPEAUITypeLib@@@Z 00000001400138f8     mfc140:mfc140.dll
 0002:00000900       __imp_?GetTypeLibCache@CCmdTarget@@UEAAPEAVCTypeLibCache@@XZ 0000000140013900     mfc140:mfc140.dll
 0002:00000908       __imp_?GetTypeInfoCount@CCmdTarget@@UEAAIXZ 0000000140013908     mfc140:mfc140.dll
 0002:00000910       __imp_?GetDispatchIID@CCmdTarget@@UEAAHPEAU_GUID@@@Z 0000000140013910     mfc140:mfc140.dll
 0002:00000918       __imp_?IsInvokeAllowed@CCmdTarget@@UEAAHJ@Z 0000000140013918     mfc140:mfc140.dll
 0002:00000920       __imp_?OnFinalRelease@CCmdTarget@@UEAAXXZ 0000000140013920     mfc140:mfc140.dll
 0002:00000928       __imp_?OnCmdMsg@CCmdTarget@@UEAAHIHPEAXPEAUAFX_CMDHANDLERINFO@@@Z 0000000140013928     mfc140:mfc140.dll
 0002:00000930       __imp_?GetRuntimeClass@CWinApp@@UEBAPEAUCRuntimeClass@@XZ 0000000140013930     mfc140:mfc140.dll
 0002:00000938       __imp_??1CComboBox@@UEAA@XZ 0000000140013938     mfc140:mfc140.dll
 0002:00000940       __imp_??1CListBox@@UEAA@XZ 0000000140013940     mfc140:mfc140.dll
 0002:00000948       __imp_??1CDialog@@UEAA@XZ  0000000140013948     mfc140:mfc140.dll
 0002:00000950       __imp_?DoModal@CDialog@@UEAA_JXZ 0000000140013950     mfc140:mfc140.dll
 0002:00000958       __imp_?SetRegistryKey@CWinApp@@IEAAXPEBD@Z 0000000140013958     mfc140:mfc140.dll
 0002:00000960       __imp_?AfxEnableControlContainer@@YAXPEAVCOccManager@@@Z 0000000140013960     mfc140:mfc140.dll
 0002:00000968       __imp_?InitInstance@CWinApp@@UEAAHXZ 0000000140013968     mfc140:mfc140.dll
 0002:00000970       __imp_??1CWinApp@@UEAA@XZ  0000000140013970     mfc140:mfc140.dll
 0002:00000978       __imp_??0CWinApp@@QEAA@PEBD@Z 0000000140013978     mfc140:mfc140.dll
 0002:00000980       __imp_?GetThisMessageMap@CWinApp@@KAPEBUAFX_MSGMAP@@XZ 0000000140013980     mfc140:mfc140.dll
 0002:00000988       __imp_?OnHelp@CWinApp@@IEAAXXZ 0000000140013988     mfc140:mfc140.dll
 0002:00000990       __imp_?Compare@?$CStringT@DV?$StrTraitMFC_DLL@DV?$ChTraitsCRT@D@ATL@@@@@ATL@@QEBAHPEBD@Z 0000000140013990     mfc140:mfc140.dll
 0002:00000998       __imp_?AppendFormat@?$CStringT@DV?$StrTraitMFC_DLL@DV?$ChTraitsCRT@D@ATL@@@@@ATL@@QEAAXPEBDZZ 0000000140013998     mfc140:mfc140.dll
 0002:000009a0       __imp_??_U@YAPEAX_K@Z      00000001400139a0     mfc140:mfc140.dll
 0002:000009a8       __imp_??0?$CStringT@DV?$StrTraitMFC_DLL@DV?$ChTraitsCRT@D@ATL@@@@@ATL@@QEAA@PEBD@Z 00000001400139a8     mfc140:mfc140.dll
 0002:000009b0       __imp_??0?$CStringT@DV?$StrTraitMFC_DLL@DV?$ChTraitsCRT@D@ATL@@@@@ATL@@QEAA@AEBV01@@Z 00000001400139b0     mfc140:mfc140.dll
 0002:000009b8       __imp_?Trim@?$CStringT@DV?$StrTraitMFC_DLL@DV?$ChTraitsCRT@D@ATL@@@@@ATL@@QEAAAEAV12@PEBD@Z 00000001400139b8     mfc140:mfc140.dll
 0002:000009c0       __imp_?Tokenize@?$CStringT@DV?$StrTraitMFC_DLL@DV?$ChTraitsCRT@D@ATL@@@@@ATL@@QEBA?AV12@PEBDAEAH@Z 00000001400139c0     mfc140:mfc140.dll
 0002:000009c8       __imp_??Y?$CStringT@DV?$StrTraitMFC_DLL@DV?$ChTraitsCRT@D@ATL@@@@@ATL@@QEAAAEAV01@PEBD@Z 00000001400139c8     mfc140:mfc140.dll
 0002:000009d0       __imp_??Y?$CStringT@DV?$StrTraitMFC_DLL@DV?$ChTraitsCRT@D@ATL@@@@@ATL@@QEAAAEAV01@AEBV?$CSimpleStringT@D$00@1@@Z 00000001400139d0     mfc140:mfc140.dll
 0002:000009d8       __imp_??4?$CStringT@DV?$StrTraitMFC_DLL@DV?$ChTraitsCRT@D@ATL@@@@@ATL@@QEAAAEAV01@PEBD@Z 00000001400139d8     mfc140:mfc140.dll
 0002:000009e0       __imp_??4?$CStringT@DV?$StrTraitMFC_DLL@DV?$ChTraitsCRT@D@ATL@@@@@ATL@@QEAAAEAV01@AEBV01@@Z 00000001400139e0     mfc140:mfc140.dll
 0002:000009e8       __imp_?Format@?$CStringT@DV?$StrTraitMFC_DLL@DV?$ChTraitsCRT@D@ATL@@@@@ATL@@QEAAXPEBDZZ 00000001400139e8     mfc140:mfc140.dll
 0002:000009f0       __imp_??0?$CStringT@DV?$StrTraitMFC_DLL@DV?$ChTraitsCRT@D@ATL@@@@@ATL@@QEAA@XZ 00000001400139f0     mfc140:mfc140.dll
 0002:000009f8       __imp_??1?$CStringT@DV?$StrTraitMFC_DLL@DV?$ChTraitsCRT@D@ATL@@@@@ATL@@QEAA@XZ 00000001400139f8     mfc140:mfc140.dll
 0002:00000a00       __imp_??2@YAPEAX_K@Z       0000000140013a00     mfc140:mfc140.dll
 0002:00000a08       __imp_?SetDlgItemTextA@CWnd@@QEAAXHPEBD@Z 0000000140013a08     mfc140:mfc140.dll
 0002:00000a10       __imp_?get_accName@CWnd@@UEAAJUtagVARIANT@@PEAPEA_W@Z 0000000140013a10     mfc140:mfc140.dll
 0002:00000a18       __imp_?CompareItem@CComboBox@@UEAAHPEAUtagCOMPAREITEMSTRUCT@@@Z 0000000140013a18     mfc140:mfc140.dll
 0002:00000a20       __imp_?MessageBoxA@CWnd@@QEAAHPEBD0I@Z 0000000140013a20     mfc140:mfc140.dll
 0002:00000a28       __imp_?OnPaint@CDialog@@IEAAXXZ 0000000140013a28     mfc140:mfc140.dll
 0002:00000a30       __imp_?get_accChild@CWnd@@UEAAJUtagVARIANT@@PEAPEAUIDispatch@@@Z 0000000140013a30     mfc140:mfc140.dll
 0002:00000a38       __imp_?get_accChildCount@CWnd@@UEAAJPEAJ@Z 0000000140013a38     mfc140:mfc140.dll
 0002:00000a40       __imp_??1CPaintDC@@UEAA@XZ 0000000140013a40     mfc140:mfc140.dll
 0002:00000a48       __imp_?get_accParent@CWnd@@UEAAJPEAPEAUIDispatch@@@Z 0000000140013a48     mfc140:mfc140.dll
 0002:00000a50       __imp_?EnsureStdObj@CWnd@@UEAAJXZ 0000000140013a50     mfc140:mfc140.dll
 0002:00000a58       __imp_?OnDrawIconicThumbnailOrLivePreview@CWnd@@UEAAXAEAVCDC@@VCRect@@VCSize@@HAEAH@Z 0000000140013a58     mfc140:mfc140.dll
 0002:00000a60       __imp_?EndModalLoop@CWnd@@UEAAXH@Z 0000000140013a60     mfc140:mfc140.dll
 0002:00000a68       __imp_?ContinueModal@CWnd@@UEAAHXZ 0000000140013a68     mfc140:mfc140.dll
 0002:00000a70       __imp_??0CPaintDC@@QEAA@PEAVCWnd@@@Z 0000000140013a70     mfc140:mfc140.dll
 0002:00000a78       __imp_?FromHandle@CMenu@@SAPEAV1@PEAUHMENU__@@@Z 0000000140013a78     mfc140:mfc140.dll
 0002:00000a80       __imp_?SetWindowTextA@CWnd@@QEAAXPEBD@Z 0000000140013a80     mfc140:mfc140.dll
 0002:00000a88       __imp_?WinHelpInternal@CWnd@@UEAAX_KI@Z 0000000140013a88     mfc140:mfc140.dll
 0002:00000a90       __imp_?HtmlHelpA@CWnd@@UEAAX_KI@Z 0000000140013a90     mfc140:mfc140.dll
 0002:00000a98       __imp_?WinHelpA@CWnd@@UEAAX_KI@Z 0000000140013a98     mfc140:mfc140.dll
 0002:00000aa0       __imp_?GetScrollBarCtrl@CWnd@@UEBAPEAVCScrollBar@@H@Z 0000000140013aa0     mfc140:mfc140.dll
 0002:00000aa8       __imp_?OnToolHitTest@CWnd@@UEBA_JVCPoint@@PEAUtagTOOLINFOA@@@Z 0000000140013aa8     mfc140:mfc140.dll
 0002:00000ab0       __imp_?SetMenu@CWnd@@UEAAHPEAVCMenu@@@Z 0000000140013ab0     mfc140:mfc140.dll
 0002:00000ab8       __imp_?GetMenu@CWnd@@UEBAPEAVCMenu@@XZ 0000000140013ab8     mfc140:mfc140.dll
 0002:00000ac0       __imp_?GetWindowTextA@CWnd@@QEBAXAEAV?$CStringT@DV?$StrTraitMFC_DLL@DV?$ChTraitsCRT@D@ATL@@@@@ATL@@@Z 0000000140013ac0     mfc140:mfc140.dll
 0002:00000ac8       __imp_?OnInitDialog@CDialog@@UEAAHXZ 0000000140013ac8     mfc140:mfc140.dll
 0002:00000ad0       __imp_?CalcWindowRect@CWnd@@UEAAXPEAUtagRECT@@I@Z 0000000140013ad0     mfc140:mfc140.dll
 0002:00000ad8       __imp_?PreCreateWindow@CWnd@@UEAAHAEAUtagCREATESTRUCTA@@@Z 0000000140013ad8     mfc140:mfc140.dll
 0002:00000ae0       __imp_?DestroyWindow@CWnd@@UEAAHXZ 0000000140013ae0     mfc140:mfc140.dll
 0002:00000ae8       __imp_?CreateEx@CWnd@@UEAAHKPEBD0KHHHHPEAUHWND__@@PEAUHMENU__@@PEAX@Z 0000000140013ae8     mfc140:mfc140.dll
 0002:00000af0       __imp_?CreateEx@CWnd@@UEAAHKPEBD0KAEBUtagRECT@@PEAV1@IPEAX@Z 0000000140013af0     mfc140:mfc140.dll
 0002:00000af8       __imp_?Create@CWnd@@UEAAHPEBD0KAEBUtagRECT@@PEAV1@IPEAUCCreateContext@@@Z 0000000140013af8     mfc140:mfc140.dll
 0002:00000b00       __imp_?PreSubclassWindow@CWnd@@UEAAXXZ 0000000140013b00     mfc140:mfc140.dll
 0002:00000b08       __imp_?GetInterfaceMap@CWnd@@MEBAPEBUAFX_INTERFACEMAP@@XZ 0000000140013b08     mfc140:mfc140.dll
 0002:00000b10       __imp_?GetMessageMap@CWnd@@MEBAPEBUAFX_MSGMAP@@XZ 0000000140013b10     mfc140:mfc140.dll
 0002:00000b18       __imp_?OnFinalRelease@CWnd@@UEAAXXZ 0000000140013b18     mfc140:mfc140.dll
 0002:00000b20       __imp_?GetRuntimeClass@CListBox@@UEBAPEAUCRuntimeClass@@XZ 0000000140013b20     mfc140:mfc140.dll
 0002:00000b28       __imp_??0CWnd@@QEAA@XZ     0000000140013b28     mfc140:mfc140.dll
 0002:00000b30       __imp_?GetBuffer@?$CSimpleStringT@D$00@ATL@@QEAAPEADXZ 0000000140013b30     mfc140:mfc140.dll
 0002:00000b38       __imp_??_V@YAXPEAX@Z       0000000140013b38     mfc140:mfc140.dll
 0002:00000b40       __imp_?PreInitDialog@CDialog@@MEAAXXZ 0000000140013b40     mfc140:mfc140.dll
 0002:00000b48       __imp_?OnOK@CDialog@@MEAAXXZ 0000000140013b48     mfc140:mfc140.dll
 0002:00000b50       __imp_?OnSetFont@CDialog@@UEAAXPEAVCFont@@@Z 0000000140013b50     mfc140:mfc140.dll
 0002:00000b58       __imp_?GetThisMessageMap@CDialog@@KAPEBUAFX_MSGMAP@@XZ 0000000140013b58     mfc140:mfc140.dll
 0002:00000b60       __imp_?CreateIndirect@CDialog@@UEAAHPEBUDLGTEMPLATE@@PEAVCWnd@@PEAX@Z 0000000140013b60     mfc140:mfc140.dll
 0002:00000b68       __imp_?CreateIndirect@CDialog@@UEAAHPEAXPEAVCWnd@@@Z 0000000140013b68     mfc140:mfc140.dll
 0002:00000b70       __imp_?Create@CDialog@@UEAAHPEBDPEAVCWnd@@@Z 0000000140013b70     mfc140:mfc140.dll
 0002:00000b78       __imp_?GetOccDialogInfo@CDialog@@MEAAPEAU_AFX_OCC_DIALOG_INFO@@XZ 0000000140013b78     mfc140:mfc140.dll
 0002:00000b80       __imp_?SetOccDialogInfo@CDialog@@MEAAHPEAU_AFX_OCC_DIALOG_INFO@@@Z 0000000140013b80     mfc140:mfc140.dll
 0002:00000b88       __imp_?CheckAutoCenter@CDialog@@UEAAHXZ 0000000140013b88     mfc140:mfc140.dll
 0002:00000b90       __imp_?OnChildNotify@CWnd@@MEAAHI_K_JPEA_J@Z 0000000140013b90     mfc140:mfc140.dll
 0002:00000b98       __imp_?DDX_Control@@YAXPEAVCDataExchange@@HAEAVCWnd@@@Z 0000000140013b98     mfc140:mfc140.dll
 0002:00000ba0       __imp_?AfxGetModuleState@@YAPEAVAFX_MODULE_STATE@@XZ 0000000140013ba0     mfc140:mfc140.dll
 0002:00000ba8       __imp_?PreTranslateMessage@CDialog@@UEAAHPEAUtagMSG@@@Z 0000000140013ba8     mfc140:mfc140.dll
 0002:00000bb0       __imp_?AfxFindResourceHandle@@YAPEAUHINSTANCE__@@PEBD0@Z 0000000140013bb0     mfc140:mfc140.dll
 0002:00000bb8       __imp_?GetRuntimeClass@CComboBox@@UEBAPEAUCRuntimeClass@@XZ 0000000140013bb8     mfc140:mfc140.dll
 0002:00000bc0       __imp_?OnCmdMsg@CDialog@@UEAAHIHPEAXPEAUAFX_CMDHANDLERINFO@@@Z 0000000140013bc0     mfc140:mfc140.dll
 0002:00000bc8       __imp_?get_accDescription@CWnd@@UEAAJUtagVARIANT@@PEAPEA_W@Z 0000000140013bc8     mfc140:mfc140.dll
 0002:00000bd0       __imp_?OnChildNotify@CComboBox@@MEAAHI_K_JPEA_J@Z 0000000140013bd0     mfc140:mfc140.dll
 0002:00000bd8       __imp_?Create@CComboBox@@UEAAHKAEBUtagRECT@@PEAVCWnd@@I@Z 0000000140013bd8     mfc140:mfc140.dll
 0002:00000be0       __imp_?GetProfileStringA@CWinApp@@UEAA?AV?$CStringT@DV?$StrTraitMFC_DLL@DV?$ChTraitsCRT@D@ATL@@@@@ATL@@PEBD00@Z 0000000140013be0     mfc140:mfc140.dll
 0002:00000be8       __imp_?DrawItem@CComboBox@@UEAAXPEAUtagDRAWITEMSTRUCT@@@Z 0000000140013be8     mfc140:mfc140.dll
 0002:00000bf0       __imp_?GetRuntimeClass@CDialog@@UEBAPEAUCRuntimeClass@@XZ 0000000140013bf0     mfc140:mfc140.dll
 0002:00000bf8       __imp_?OpenDocumentFile@CWinApp@@UEAAPEAVCDocument@@PEBD@Z 0000000140013bf8     mfc140:mfc140.dll
 0002:00000c00       __imp_??3@YAXPEAX@Z        0000000140013c00     mfc140:mfc140.dll
 0002:00000c08       __imp_?MeasureItem@CComboBox@@UEAAXPEAUtagMEASUREITEMSTRUCT@@@Z 0000000140013c08     mfc140:mfc140.dll
 0002:00000c10       __imp_?AfxWinMain@@YAHPEAUHINSTANCE__@@0PEADH@Z 0000000140013c10     mfc140:mfc140.dll
 0002:00000c18       __imp_?OpenDocumentFile@CWinApp@@UEAAPEAVCDocument@@PEBDH@Z 0000000140013c18     mfc140:mfc140.dll
 0002:00000c20       __imp_?DeleteItem@CComboBox@@UEAAXPEAUtagDELETEITEMSTRUCT@@@Z 0000000140013c20     mfc140:mfc140.dll
 0002:00000c28       \177mfc140_NULL_THUNK_DATA 0000000140013c28     mfc140:mfc140.dll
 0002:00000c30       __guard_check_icall_fptr   0000000140013c30     msvcrt:guard_support.obj
 0002:00000c38       __guard_dispatch_icall_fptr 0000000140013c38     msvcrt:guard_support.obj
 0002:00000c40       __xc_a                     0000000140013c40     msvcrt:initializers.obj
 0002:00000c78       __xc_z                     0000000140013c78     msvcrt:initializers.obj
 0002:00000c80       __xi_a                     0000000140013c80     msvcrt:initializers.obj
 0002:00000ca0       __xi_z                     0000000140013ca0     msvcrt:initializers.obj
 0002:00000ca8       __xl_a                     0000000140013ca8     msvcrt:tlssup.obj
 0002:00000cb0       __xl_z                     0000000140013cb0     msvcrt:tlssup.obj
 0002:00000cb8       __xp_a                     0000000140013cb8     msvcrt:initializers.obj
 0002:00000cc0       __xp_z                     0000000140013cc0     msvcrt:initializers.obj
 0002:00000cc8       __xt_a                     0000000140013cc8     msvcrt:initializers.obj
 0002:00000cd0       __xt_z                     0000000140013cd0     msvcrt:initializers.obj
 0002:00000ce8       ??_7type_info@@6B@         0000000140013ce8     msvcrt:std_type_info_static.obj
 0002:00000cf0       ??_C@_1BK@MGMFAEKH@?$AAk?$AAe?$AAr?$AAn?$AAe?$AAl?$AA3?$AA2?$AA?4?$AAd?$AAl?$AAl?$AA?$AA@ 0000000140013cf0     msvcrt:thread_safe_statics.obj
 0002:00000d10       ??_C@_0BM@HLJJNPAH@InitializeConditionVariable?$AA@ 0000000140013d10     msvcrt:thread_safe_statics.obj
 0002:00000d30       ??_C@_0BJ@JEBJOJFJ@SleepConditionVariableCS?$AA@ 0000000140013d30     msvcrt:thread_safe_statics.obj
 0002:00000d50       ??_C@_0BJ@PGPPEPCC@WakeAllConditionVariable?$AA@ 0000000140013d50     msvcrt:thread_safe_statics.obj
 0002:00000d80       GUID_ATLVer110             0000000140013d80     atls:atlbase.obj
 0002:00000d90       ??_C@_1IC@ONKHOIDK@?$AAE?$AAR?$AAR?$AAO?$AAR?$AA?5?$AA?3?$AA?5?$AAU?$AAn?$AAa?$AAb?$AAl?$AAe?$AA?5?$AAt?$AAo?$AA?5?$AAi?$AAn?$AAi?$AAt?$AAi?$AAa?$AAl?$AAi?$AAz?$AAe?$AA?5?$AAc?$AAr?$AAi@ 0000000140013d90     atls:atlbase.obj
 0002:00000e40       ??_C@_0N@ECNHOAOD@CntDefragMgr?$AA@ 0000000140013e40     ControlDefragManager.obj
 0002:00000e50       ??_C@_0P@OBNDCGCB@?4?2KizuTask?4ini?$AA@ 0000000140013e50     ControlDefragManager.obj
 0002:00000e60       ??_C@_0BE@MALFKOHN@DEFRAG_INTERVAL_DAY?$AA@ 0000000140013e60     ControlDefragManager.obj
 0002:00000e78       ??_C@_09GKBOAPFD@TI_DELETE?$AA@ 0000000140013e78     ControlDefragManager.obj
 0002:00000e88       ??_C@_0BP@DAEHMFNK@?$FL?$CFs?$FN?5ThreadEvent?5EventNo?5NG?$DN?$CFd?$AA@ 0000000140013e88     ControlDefragManager.obj
 0002:00000ea8       ??_C@_0P@OPHGMINA@SQL_DEFRAG_RUN?$AA@ 0000000140013ea8     ControlDefragManager.obj
 0002:00000ec0       ??_7ControlDefragManager@@6B@ 0000000140013ec0     ControlDefragManager.obj
 0002:00000ef8       ??_C@_00CNPNBAHC@?$AA@     0000000140013ef8     ControlDefragManager.obj
 0002:00000efc       ??_C@_01IHBHIGKO@?0?$AA@   0000000140013efc     ControlLowGr.obj
 0002:00000f00       ??_C@_02OJDBNLEE@?5?7?$AA@ 0000000140013f00     ControlLowGr.obj
 0002:00000f08       ??_C@_09PPGNOHC@LowGrCont?$AA@ 0000000140013f08     ControlLowGr.obj
 0002:00000f18       ??_C@_0BD@DHJHLMOH@LOWGR_THREAD_COUNT?$AA@ 0000000140013f18     ControlLowGr.obj
 0002:00000f30       ??_C@_0M@BGLGFNJN@LOWGR_CYCLE?$AA@ 0000000140013f30     ControlLowGr.obj
 0002:00000f40       ??_C@_0O@CFFFIGCA@LOWGR_DELEDAY?$AA@ 0000000140013f40     ControlLowGr.obj
 0002:00000f50       ??_C@_0P@KNICPFNL@SQL_SELECT_KEY?$AA@ 0000000140013f50     ControlLowGr.obj
 0002:00000f60       ??_C@_0P@CAOECLJN@COILRESULT_TBL?$AA@ 0000000140013f60     ControlLowGr.obj
 0002:00000f70       ??_C@_0BA@NFFDFNKE@COILRESULT_TIME?$AA@ 0000000140013f70     ControlLowGr.obj
 0002:00000f80       ??_C@_0N@MLJCJIPI@MAINKEY_NAME?$AA@ 0000000140013f80     ControlLowGr.obj
 0002:00000f90       ??_C@_0M@BLGBCMCB@SUBKEY_NAME?$AA@ 0000000140013f90     ControlLowGr.obj
 0002:00000fa0       ??_C@_0L@PCBDAEOL@TBL_KEY_?$CFd?$AA@ 0000000140013fa0     ControlLowGr.obj
 0002:00000fb0       ??_C@_0O@FAHECACF@TBL_SUB_?$CFd_?$CFd?$AA@ 0000000140013fb0     ControlLowGr.obj
 0002:00000fc0       ??_C@_0BO@OOBANHCI@?$FL?$CFs?$FN?5?$IKe?$IOq?$IDX?$ID?$IM?$IDb?$IDh?$JC?b?$IO?$HO?$JHv?$IL?$IB?$IK?$KO?$JH?$LJ?$AA@ 0000000140013fc0     ControlLowGr.obj
 0002:00000fe0       ??_C@_0BE@OMPBADJC@?$FL?$CFs?$FN?5?$JC?h?$IO?$PM?$IK?z?$IO?$MA?$INs?$IO?$LI?$JEs?$AA@ 0000000140013fe0     ControlLowGr.obj
 0002:00000ff8       ??_C@_0BK@GODIKHPG@?$FL?$CFs?$FN?5?$IDo?$IDb?$IDN?$IDA?$IDb?$IDv?$IO?$MA?$INs?$IO?$LI?$JEs?$AA@ 0000000140013ff8     ControlLowGr.obj
 0002:00001014       ??_C@_02LFGCCOHG@DB?$AA@   0000000140014014     ControlLowGr.obj
 0002:00001018       ??_C@_0BH@FDMKAALM@?$FL?$CFs?$FN?5?$FL?$CFs?$FN?5DB?$JA?Z?$JB?$LB?$IDG?$ID?$IJ?$IB?$FL?$AA@ 0000000140014018     ControlLowGr.obj
 0002:00001030       ??_C@_0BD@IIFCAOFH@?$FL?$CFs?$FN?5?$IDL?$IB?$FL?$IO?f?$JD?$LO?5?$FL?$CFs?$FN?$AA@ 0000000140014030     ControlLowGr.obj
 0002:00001048       ??_C@_0O@BGOOENLE@?$FL?$CFs?3?$IDL?$IB?$FL?$IO?f?$JD?$LO?$FN?$AA@ 0000000140014048     ControlLowGr.obj
 0002:00001058       ??_C@_0BE@MIFNHDKM@?$FL?$CFs?3?$IO?e?$IDL?$IB?$FL?$IO?f?$JD?$LO?$IP?$II?$JH?$JN?$FN?$AA@ 0000000140014058     ControlLowGr.obj
 0002:00001070       ??_C@_0CJ@IGHOOHDG@SELECT?5?$CFs?5FROM?5?$CFs?5WHERE?5?$CFs?$CL?$CFd?$DM?8?$CF@ 0000000140014070     ControlLowGr.obj
 0002:000010a0       ??_C@_0CM@IJDIBGCB@?$FL?$CFs?$FN?53?$JD?z?$JBO?$IC?L?$IO?e?$IDL?$IB?$FL?$JG?$LD?$IC?$LF?$IBB?$JG?$LD?$IKQGr?$IN?m@ 00000001400140a0     ControlLowGr.obj
 0002:000010d0       ??_C@_0CM@EGOGAD@SELECT?5DISTINCT?5?$CFs?5FROM?5?$CFs?5WHERE@ 00000001400140d0     ControlLowGr.obj
 0002:00001100       ??_C@_0M@NMMAAMGI@?5UNION?5ALL?5?$AA@ 0000000140014100     ControlLowGr.obj
 0002:00001110       ??_C@_0DC@IMJAGMHI@?$FL?$CFs?$FN?5?$IDo?$IDb?$IDN?$IDA?$IDb?$IDv?$IC?E?$IL?$KN?$JA?$KH?$JG?$LD?$IKQGr?$IN?m?$IP@ 0000000140014110     ControlLowGr.obj
 0002:00001144       ??_C@_04LIFAFMCE@?$FL?$CFs?$FN?$AA@ 0000000140014144     ControlLowGr.obj
 0002:00001158       ??_7ControlLowGr@@6B@      0000000140014158     ControlLowGr.obj
 0002:00001198       ??_7LockManager@KizuLib@@6B@ 0000000140014198     ControlManager.obj
 0002:000011a0       ??_C@_07HPNJHHGJ@DB_ODBC?$AA@ 00000001400141a0     ControlManager.obj
 0002:000011a8       ??_C@_0BE@EMKPMJBD@DB_TRAN_SIZE_ERR_ID?$AA@ 00000001400141a8     ControlManager.obj
 0002:000011c0       ??_C@_0BB@OEBJCIIF@DB_TRAN_ERR_SIZE?$AA@ 00000001400141c0     ControlManager.obj
 0002:000011d8       ??_C@_0L@GEGNJABH@TIME_CYCLE?$AA@ 00000001400141d8     ControlManager.obj
 0002:000011e8       ??_C@_0P@KEBCDGPK@TIME_SIZECHECK?$AA@ 00000001400141e8     ControlManager.obj
 0002:000011f8       ??_C@_0N@ONFKLPMI@THREAD_COUNT?$AA@ 00000001400141f8     ControlManager.obj
 0002:00001208       ??_C@_0M@DEDIJCCM@DEL_RITU_?$CFd?$AA@ 0000000140014208     ControlManager.obj
 0002:00001218       ??_C@_0O@EEDILOMG@TIME_MAX_WAIT?$AA@ 0000000140014218     ControlManager.obj
 0002:00001228       ??_C@_0O@JDNDAMIH@TIME_MIN_WAIT?$AA@ 0000000140014228     ControlManager.obj
 0002:00001238       ??_C@_0M@FIDIMEAN@LOG_SAVEDAY?$AA@ 0000000140014238     ControlManager.obj
 0002:00001248       ??_C@_0P@KDCEDJPF@COIL_DEL_COUNT?$AA@ 0000000140014248     ControlManager.obj
 0002:00001258       ??_C@_0P@BKGEJMMF@COILRESULT_KEY?$AA@ 0000000140014258     ControlManager.obj
 0002:00001268       ??_C@_0BA@GLLBJDF@COILRESULT_SORT?$AA@ 0000000140014268     ControlManager.obj
 0002:00001278       ??_C@_0CF@NGNPBMMA@?$FLCont?$FN?5?$FL?$CFs?$FN?5?$IKe?$IOq?$IDX?$ID?$IM?$IDb?$IDh?$JC?b?$IO?$HO?$JHv?$IL?$IB@ 0000000140014278     ControlManager.obj
 0002:000012a0       ??_C@_0CA@MAIJNEDF@?$FLCont?$FN?5?$FL?$CFs?$FN?5?$IDX?$ID?$IM?$IDb?$IDh?$IKJ?$IOn?5?$FL0x?$CFX?$FN?$AA@ 00000001400142a0     ControlManager.obj
 0002:000012c0       ??_C@_0CA@GKBFEDPG@?$FLCont?$FN?5?$FL?$CFs?$FN?5?$IDX?$ID?$IM?$IDb?$IDh?$IPI?$JH?$LJ?5?$FL0x?$CFX?$FN?$AA@ 00000001400142c0     ControlManager.obj
 0002:000012e0       ??_C@_0BI@KMLCKEPC@?$FLCont?$FN?5?$FL?$CFs?$FN?5DB?$JA?Z?$JB?$LB?$IO?$LI?$JEs?5?$AA@ 00000001400142e0     ControlManager.obj
 0002:000012f8       ??_C@_0BO@NLIPOEHD@?$FLCont?$FN?5?$FL?$CFs?$FN?5?$IK?y?$IC?I?$IBA?$JC?h?$IO?$PM?$IK?z?$IO?$MA?$INs?5?$AA@ 00000001400142f8     ControlManager.obj
 0002:00001318       ??_C@_0BL@CADINKPD@?$FLCont?$FN?5?$FL?$CFs?$FN?5?$JC?h?$IO?$PM?$IK?z?$IO?$MA?$INs?$II?K?$JH?$IK?$AA@ 0000000140014318     ControlManager.obj
 0002:00001340       ??_C@_0EF@JEODMBNN@?$FLCont?$FN?5?$FL?$CFs?$FN?5?$IN?E?$IPI?$IDX?$ID?$IM?$IDb?$IDh?$IO?$MA?$INs?$JC?$IG?$IC?I@ 0000000140014340     ControlManager.obj
 0002:00001388       ??_C@_0BM@DOHKMPJC@?$FLCont?$FN?5?$FL?$CFs?$FN?5DB?$JHe?$JH?J?5?$FL?$CF?42f?$CF?$CF?$FN?$AA@ 0000000140014388     ControlManager.obj
 0002:000013a8       ??_C@_0DD@KBACPOLP@?$FLCont?$FN?5?$FL?$CFs?$FN?5DB?$JHe?$JH?J?$JC?a?$IJ?$LK?5?$FL?$CF?42f?$CF?$CF?$FN?5@ 00000001400143a8     ControlManager.obj
 0002:000013e0       ??_C@_0BN@LOFEJNPF@?$FLCont?$FN?5?$FL?$CFs?$FN?5DB?$JA?Z?$JB?$LB?$IDG?$ID?$IJ?$IB?$FL?$FL?$CFs?$FN?$AA@ 00000001400143e0     ControlManager.obj
 0002:00001400       ??_C@_05CCMOGDN@?$CFs?3?$CFs?$AA@ 0000000140014400     ControlManager.obj
 0002:00001408       ??_C@_0N@CMHHFDHO@sp_spaceused?$AA@ 0000000140014408     ControlManager.obj
 0002:00001418       ??_C@_0CD@LIEPBJIO@?$FLCont?$FN?5?$FL?$CFs?$FN?5DBSizeCheck?$IDG?$ID?$IJ?$IB?$FL?5?$FL?$CF@ 0000000140014418     ControlManager.obj
 0002:00001440       ??_C@_0BG@FNHAJADK@?$FLDBSizeCheck?5?$DN?5?$CFs?3?$CFs?$FN?$AA@ 0000000140014440     ControlManager.obj
 0002:00001458       ??_C@_0DA@HKLKDBAE@?$FLCont?$FN?5?$FL?$CFs?$FN?5?$IDg?$ID?$IJ?$ID?$JD?$IDU?$IDN?$IDV?$ID?$IH?$ID?$JD?$ID?$IN?$IDO@ 0000000140014458     ControlManager.obj
 0002:00001488       ??_C@_0DE@IOIDGHEI@?$FLCont?$FN?5?$FL?$CFs?$FN?5?$IDg?$ID?$IJ?$ID?$JD?$IDU?$IDN?$IDV?$ID?$IH?$ID?$JD?$ID?$IN?$IDO@ 0000000140014488     ControlManager.obj
 0002:000014c0       ??_C@_0DE@PGLCECEA@?$FLCont?$FN?5?$FL?$CFs?$FN?5?$IDg?$ID?$IJ?$ID?$JD?$IDU?$IDN?$IDV?$ID?$IH?$ID?$JD?$ID?$IN?$IDO@ 00000001400144c0     ControlManager.obj
 0002:00001500       ??_7ControlManager@@6B@    0000000140014500     ControlManager.obj
 0002:00001510       ??_C@_05LFHGFJK@?$CFs_?$CFd?$AA@ 0000000140014510     DefragManager.obj
 0002:00001518       ??_C@_09CBPGKNBF@DefragMgr?$AA@ 0000000140014518     DefragManager.obj
 0002:00001524       ??_C@_05BKLCHKKJ@ZI_?$CFd?$AA@ 0000000140014524     DefragManager.obj
 0002:00001530       ??_C@_0BK@NPCMMEDM@?$FL?$CFs?$FN?5?$IDf?$IDt?$ID?$IJ?$IDO?$IN?D?$IKJ?5?$CI?$CFd?3?$CFd?$CJ?$AA@ 0000000140014530     DefragManager.obj
 0002:00001550       ??_C@_0BN@CKFGGLPP@?$FL?$CFs?$FN?5Index?$IDe?$IB?$FL?$IDu?$ID?$IL?$IO?f?$JD?$LO?5?$CFs?$DN?$CFd?$AA@ 0000000140014550     DefragManager.obj
 0002:00001570       ??_C@_0BC@GGMGDJLO@?$FL?$CFs?$FN?5?$IDf?$IDt?$ID?$IJ?$IDO?$IK?$KO?$JH?$LJ?$AA@ 0000000140014570     DefragManager.obj
 0002:00001590       ??_C@_0GH@GHKBDBLA@SELECT?5i?4name?5FROM?5sys?4indexes?5A@ 0000000140014590     DefragManager.obj
 0002:000015f8       ??_C@_0BB@BMKHPHGH@?5AND?5o?4name?$DN?8?$CFs?8?$AA@ 00000001400145f8     DefragManager.obj
 0002:00001610       ??_C@_0BC@OBLLOIHN@?$FL?$CFs?$FN?5DB?$JA?Z?$JB?$LB?$IDG?$ID?$IJ?$IB?$FL?$AA@ 0000000140014610     DefragManager.obj
 0002:00001628       ??_C@_0BD@DAPABFON@?$FL?$CFs?$FN?5SQL?$IO?$MA?$INs?$IDG?$ID?$IJ?$IB?$FL?$AA@ 0000000140014628     DefragManager.obj
 0002:00001640       ??_C@_0N@JEKDNJMP@?$IK?G?$JH?$JN?$IDe?$IB?$FL?$IDu?$ID?$IL?$AA@ 0000000140014640     DefragManager.obj
 0002:00001650       ??_C@_0CA@GACOEAG@ALTER?5INDEX?5?$CFs?5on?5?$CFs?5REORGANIZE?$AA@ 0000000140014650     DefragManager.obj
 0002:00001670       ??_C@_0CD@FBHHHNJA@?$FL?$CFs?$FN?5Index?$IDf?$IDt?$ID?$IJ?$IDO?$JC?$IG?$JCf?$JEF?$IO?$KP?5?$FL?$CFs?3?$CF@ 0000000140014670     DefragManager.obj
 0002:00001698       ??_C@_0BJ@FCJALCDE@?$FL?$CFs?$FN?5?$IDL?$ID?$ID?$ID?$JD?$IDZ?$ID?$IL?$IO?$LI?$JEs?5?$FL?$CFs?$FN?$AA@ 0000000140014698     DefragManager.obj
 0002:000016b8       ??_C@_0BE@KKBONJDL@?$FL?$CFs?$FN?5?$IDL?$ID?$ID?$ID?$JD?$IDZ?$ID?$IL?$JA?$KM?$IM?w?$AA@ 00000001400146b8     DefragManager.obj
 0002:000016d0       ??_C@_0CF@ILECOMGL@?$FL?$CFs?$FN?5Index?$IDf?$IDt?$ID?$IJ?$IDO?$IK?$KO?$JH?$LJ?5?$FL?$CFs?3?$CFs?$FN?5?$CI@ 00000001400146d0     DefragManager.obj
 0002:000016f8       ??_C@_0BD@OLBABOEK@vector?$DMT?$DO?5too?5long?$AA@ 00000001400146f8     DefragManager.obj
 0002:00001718       ??_7DefragManager@@6B@     0000000140014718     DefragManager.obj
 0002:00001750       ??_C@_0BG@HJIJFDH@DBCC?5SHRINKFILE?$CI2?0?50?$CJ?$AA@ 0000000140014750     DeleLowGr.obj
 0002:00001768       ??_C@_05LDPBGMMD@LowGr?$AA@ 0000000140014768     DeleLowGr.obj
 0002:00001770       ??_C@_0P@LOGEABBF@SQL_SELECT_END?$AA@ 0000000140014770     DeleLowGr.obj
 0002:00001780       ??_C@_0BO@IHLPOLPG@?$FL?$CFs?$FN?5?$JG?$LD?$IKQGr?$IN?m?$IP?$JM?5?$IO?$MA?$INs?$II?K?$JH?$IK?5?$FL?$CFs?$FN?$AA@ 0000000140014780     DeleLowGr.obj
 0002:000017a0       ??_C@_0HC@JAGGKMOH@SELECT?5ISNULL?$CIMAX?$CIa?4?$CFs?$CJ?00?$CJ?5FROM?5@ 00000001400147a0     DeleLowGr.obj
 0002:00001818       ??_C@_0CL@BELOCCOF@?$FL?$CFs?$FN?5?$IN?m?$IP?$JM?$JC?$IG?5?$KF?$KF?$KF?5?$FL?$CFs?$FN?5?$FL?$CFs?$FN?5?arNo?$DN?$CF@ 0000000140014818     DeleLowGr.obj
 0002:00001850       ??_C@_0FN@CLHKENGF@DELETE?5FROM?5?$CFs?5WHERE?5?$CFs?$DN?8?$CFs?8?5AND@ 0000000140014850     DeleLowGr.obj
 0002:000018b0       ??_C@_0BA@KDIFBJBF@?$FL?$CFs?$FN?5?$CFs?$IN?m?$IP?$JM?$IO?$LI?$JEs?$AA@ 00000001400148b0     DeleLowGr.obj
 0002:000018c0       ??_C@_0BD@IDOADAFE@?$FL?$CFs?$FN?5?$INX?$JAV?$IO?$LI?$JEs?5?$CI?$CFs?$CJ?$AA@ 00000001400148c0     DeleLowGr.obj
 0002:000018d8       ??_C@_0BI@IKKCADOA@?$FL?$CFs?$FN?5?$JG?$LD?$IKQGr?$IN?m?$IP?$JM?$IK?$KO?$JH?$LJ?$FL?$CFs?$FN?$AA@ 00000001400148d8     DeleLowGr.obj
 0002:000018f8       ??_7DeleLowGr@@6B@         00000001400148f8     DeleLowGr.obj
 0002:00001938       ??_7DeleTable@@6B@         0000000140014938     DeleTable.obj
 0002:00001960       ??_C@_05CALIBLNJ@TI_?$CFd?$AA@ 0000000140014960     DeleTable.obj
 0002:00001968       ??_C@_05DOGLCJPK@CI_?$CFd?$AA@ 0000000140014968     DeleTable.obj
 0002:00001970       ??_C@_0FE@OLEHONCN@?$FLDele?$FN?5?$FL?$CFs?$FN?5?$ID?2?$IB?$FL?$IDg?$IDL?$IB?$FL?$IOw?$JC?h?$IC?L?$IC?$LN?$IC?$NP@ 0000000140014970     DeleTable.obj
 0002:000019c8       ??_C@_0CG@OGDHBIIM@?$FLDele?$FN?5?$FL?$CFs?$FN?5?$IDo?$IDb?$IDN?$IDA?$IDb?$IDv?$IN?m?$IP?$JM?$IO?$MA?$INs@ 00000001400149c8     DeleTable.obj
 0002:000019f0       ??_C@_0CC@JAMGAMOF@?$FLKD?$FN?5?$FL?$CFs?$FN?5?$IDX?$ID?$IM?$IDb?$IDh?$DM?$CFd?$DO?$IKJ?$IOn?5?$FL0x?$CFX@ 00000001400149f0     KizuDeleteManager.obj
 0002:00001a18       ??_C@_0CC@DKFKJLCG@?$FLKD?$FN?5?$FL?$CFs?$FN?5?$IDX?$ID?$IM?$IDb?$IDh?$DM?$CFd?$DO?$IPI?$JH?$LJ?5?$FL0x?$CFX@ 0000000140014a18     KizuDeleteManager.obj
 0002:00001a40       ??_C@_0CG@OCCFAMJJ@?$FLKD?$FN?5?$FL?$CFs?$FN?5?$IDX?$ID?$IM?$IDb?$IDh?$DM?$CFd?$DO?5?$JC?h?$IO?$PM?$IK?z?$IO?$MA?$IN@ 0000000140014a40     KizuDeleteManager.obj
 0002:00001a68       ??_C@_0CG@OFPOOHCA@?$FLKD?$FN?5?$FL?$CFs?$FN?5?$IDX?$ID?$IM?$IDb?$IDh?$DM?$CFd?$DO?5?$JC?h?$IO?$PM?$IK?z?$IO?$MA?$IN@ 0000000140014a68     KizuDeleteManager.obj
 0002:00001a90       ??_C@_0CK@ECLBIPBF@?$FLKD?$FN?5?$FL?$CFs?$FN?5?$IDX?$ID?$IM?$IDb?$IDh?$DM?$CFd?$DO?5DB?$JHe?$JH?J?$JC?a?$IJ@ 0000000140014a90     KizuDeleteManager.obj
 0002:00001ac0       ??_C@_0CK@EFGKGEKM@?$FLKD?$FN?5?$FL?$CFs?$FN?5?$IDX?$ID?$IM?$IDb?$IDh?$DM?$CFd?$DO?5DB?$JHe?$JH?J?$JC?a?$IJ@ 0000000140014ac0     KizuDeleteManager.obj
 0002:00001af0       ??_C@_0CE@BPFGPHIC@?$FLKD?$FN?5?$FL?$CFs?$FN?5?$IDX?$ID?$IM?$IDb?$IDh?$DM?$CFd?$DO?5?$IP?$IJ?$IJ?q?$IO?$MA?$INs?$IK@ 0000000140014af0     KizuDeleteManager.obj
 0002:00001b18       ??_C@_0CE@BIINBMDL@?$FLKD?$FN?5?$FL?$CFs?$FN?5?$IDX?$ID?$IM?$IDb?$IDh?$DM?$CFd?$DO?5?$IP?$IJ?$IJ?q?$IO?$MA?$INs?$IP@ 0000000140014b18     KizuDeleteManager.obj
 0002:00001b40       ??_C@_0BH@GPGCHMFE@?$FLKD?$FN?5?$FL?$CFs?$FN?5DB?$JA?Z?$JB?$LB?$IDG?$ID?$IJ?$IB?$FL?$AA@ 0000000140014b40     KizuDeleteManager.obj
 0002:00001b58       ??_C@_0CF@JIDHPBOF@SELECT?5ISNULL?$CI?5Min?$CI?$CFs?$CJ?0?5?8?8?$CJ?5FROM@ 0000000140014b58     KizuDeleteManager.obj
 0002:00001b80       ??_C@_0CF@GNNMJBLE@?$FLKD?$FN?5?$FL?$CFs?$FN?5?$IDX?$ID?$IM?$IDb?$IDh?$DM?$CFd?$DO?5?$IDL?$IB?$FL?$IO?f?$JD?$LO?5@ 0000000140014b80     KizuDeleteManager.obj
 0002:00001ba8       ??_C@_0L@KIDOJHPF@?$FL?$IDL?$IB?$FL?$IO?f?$JD?$LO?$FN?$AA@ 0000000140014ba8     KizuDeleteManager.obj
 0002:00001bb8       ??_C@_0BB@CGIIKHBO@?$FL?$IO?e?$IDL?$IB?$FL?$IO?f?$JD?$LO?$IP?$II?$JH?$JN?$FN?$AA@ 0000000140014bb8     KizuDeleteManager.obj
 0002:00001bd0       ??_C@_0CI@BJEEILJO@SELECT?5TOP?51?5?$CFs?5FROM?5?$CFs?5ORDER?5BY@ 0000000140014bd0     KizuDeleteManager.obj
 0002:00001bf8       ??_C@_0CH@ECDNNPMD@?$FLKD?$FN?5?$FL?$CFs?$FN?5?$IDg?$ID?$IJ?$ID?$JD?$IDU?$IDN?$IDV?$ID?$IH?$ID?$JD?$II?$LD?$IPk?$IP?$II@ 0000000140014bf8     KizuDeleteManager.obj
 0002:00001c20       ??_C@_0BL@JPOOJBPD@?$FL?$IDg?$ID?$IJ?$ID?$JD?$IDU?$IDN?$IDV?$ID?$IH?$ID?$JD?$II?$LD?$IPk?$IP?$II?$JH?$JN?$FN?$AA@ 0000000140014c20     KizuDeleteManager.obj
 0002:00001c40       ??_C@_0DH@JKMMCEPF@?$FLKD?$FN?5?$FL?$CFs?$FN?5?$IDg?$ID?$IJ?$ID?$JD?$IDU?$IDN?$IDV?$ID?$IH?$ID?$JD?$II?$LD?$IPk?$IP?$II@ 0000000140014c40     KizuDeleteManager.obj
 0002:00001c78       ??_C@_0DK@PBGMNLDO@?$FLKD?$FN?5?$FL?$CFs?$FN?5?$IDX?$ID?$IM?$IDb?$IDh?$DM?$CFd?$DO?5?$IDg?$ID?$IJ?$ID?$JD?$IDU?$ID@ 0000000140014c78     KizuDeleteManager.obj
 0002:00001cb8       ??_C@_08MGHABLIL@?$JDo?$JI?$FO?$JD?z?$JFt?$AA@ 0000000140014cb8     KizuDeleteManager.obj
 0002:00001cc8       ??_C@_09FPDFNABO@T_LOG_INF?$AA@ 0000000140014cc8     KizuDeleteManager.obj
 0002:00001cd8       ??_C@_0CK@FDFNBPKO@DELETE?5FROM?5?$CFs?5WHERE?5?$CFs?5?$CL?5?$CFd?5?$DM?5?8@ 0000000140014cd8     KizuDeleteManager.obj
 0002:00001d08       ??_C@_0BF@FBPEIIO@?$FLKD?$FN?5?$FL?$CFs?$FN?5?$CFs?$IN?m?$IP?$JM?$IO?$LI?$JEs?$AA@ 0000000140014d08     KizuDeleteManager.obj
 0002:00001d20       ??_C@_0CC@FPJOPJNC@?$FLKD?$FN?5?$FL?$CFs?$FN?5?$IDX?$ID?$IM?$IDb?$IDh?$DM?$CFd?$DO?5?$CFs?$IN?m?$IP?$JM?$IK?$KO?$JH@ 0000000140014d20     KizuDeleteManager.obj
 0002:00001d50       ??_C@_0FJ@JCHPOLKF@SELECT?5TOP?51?5CONVERT?$CIvarchar?0?5?$CFs@ 0000000140014d50     KizuDeleteManager.obj
 0002:00001db0       ??_C@_0BD@KPDPFJPJ@?$FL?$IM?C?$IC?$KC?$JD?z?$JFt?$IN?m?$IP?$JM?$IP?$II?$JH?$JN?$FN?$AA@ 0000000140014db0     KizuDeleteManager.obj
 0002:00001dc8       ??_C@_0DD@PNCGABEK@?$FLKD?$FN?5?$FL?$CFs?$FN?5?$IDX?$ID?$IM?$IDb?$IDh?$DM?$CFd?$DO?5?$IO?$MA?$JA?Q?$IN?m?$IP?$JM?5@ 0000000140014dc8     KizuDeleteManager.obj
 0002:00001e00       ??_C@_0CH@GJKOKNLB@DELETE?5FROM?5?$CFs?5WHERE?5?$CFs?$DM?$DN?8?$CFs?523?3@ 0000000140014e00     KizuDeleteManager.obj
 0002:00001e28       ??_C@_0BN@EIAFOEOD@?$FLKD?$FN?5?$FL?$CFs?$FN?5?$CFs?$JD?z?$JFt?$IP?$KN?$JH?J?$IN?m?$IP?$JM?$IO?$LI?$JEs?$AA@ 0000000140014e28     KizuDeleteManager.obj
 0002:00001e48       ??_C@_0BF@MDBEOKMF@?$FLDB?$JD?z?$JFt?$IP?$KN?$JH?J?$IN?m?$IP?$JM?$IP?$II?$JH?$JN?$FN?$AA@ 0000000140014e48     KizuDeleteManager.obj
 0002:00001e60       ??_C@_0FK@FBCMDGJF@SELECT?5COUNT?$CI?$CK?$CJ?0?5Min?$CIa?4?$CFs?$CJ?5FROM?5@ 0000000140014e60     KizuDeleteManager.obj
 0002:00001ec0       ??_C@_0CI@PLBGEMID@?$FLKD?$FN?5?$FL?$CFs?$FN?5?$FL?$IOw?$JC?h?$IM?$IP?$JA?$JE?$JF?$NL?$IO?$JN?$IDJ?$IDE?$ID?$JD?$IDg?$IO@ 0000000140014ec0     KizuDeleteManager.obj
 0002:00001ee8       ??_C@_0CI@NJKMOPDD@?$FLKD?$FN?5?$FL?$CFs?$FN?5?$FL?$IN?m?$IP?$JM?$JB?N?$IP?$NL?$IDR?$IDC?$ID?$IL?$JD?G?$IN?$JO?$IC?$NN?$IO@ 0000000140014ee8     KizuDeleteManager.obj
 0002:00001f10       ??_C@_0BN@NNOILHBF@?$FLKD?$FN?5?$FL?$CFs?$FN?5?$CFs?$IN?m?$IP?$JM?$IO?$LI?$JEs?5?$CI?$CFs?3?$CFs?$CJ?$AA@ 0000000140014f10     KizuDeleteManager.obj
 0002:00001f30       ??_C@_0DJ@DNAACLNP@?$FLKD?$FN?5?$FL?$CFs?$FN?5?$IOw?$JC?h?$IDL?$IB?$FL?$IC?f?$IC?h?$IM?C?$IC?$KC?$IO?$MA?$JA?Q?$IC?p@ 0000000140014f30     KizuDeleteManager.obj
 0002:00001f70       ??_C@_0CJ@JKNDMMBG@?$FLKD?$FN?5?$FL?$CFs?$FN?5?$IDX?$ID?$IM?$IDb?$IDh?$DM?$CFd?$DO?5?$CF?$IN?m?$IP?$JM?$IK?$KO?$JH?$LJ@ 0000000140014f70     KizuDeleteManager.obj
 0002:00001fa0       ??_C@_0CK@LKIKBNL@?$FLKD?$FN?5?$FL?$CFs?$FN?5?$IDX?$ID?$IM?$IDb?$IDh?$DM?$CFd?$DO?5?$IO?$MA?$JA?Q?$IN?m?$IP?$JM?5@ 0000000140014fa0     KizuDeleteManager.obj
 0002:00001fd0       ??_C@_0BN@CBGIPFBB@DELETE?5FROM?5?$CFs?5WHERE?5?$CFs?$DN?8?$CFs?8?$AA@ 0000000140014fd0     KizuDeleteManager.obj
 0002:00001ff0       ??_C@_0CO@CGBEBNAI@?$FLKD?$FN?5?$FL?$CFs?$FN?5?$IDX?$ID?$IM?$IDb?$IDh?$DM?$CFd?$DO?5?$IO?$MA?$JA?Q?$IN?m?$IP?$JM?$II@ 0000000140014ff0     KizuDeleteManager.obj
 0002:00002020       ??_C@_0BB@GIHGMODD@?$FLDB?$IO?$MA?$JA?Q?$IN?m?$IP?$JM?$IP?$II?$JH?$JN?$FN?$AA@ 0000000140015020     KizuDeleteManager.obj
 0002:00002040       ??_C@_0GA@NGICBNPA@SELECT?5ISNULL?$CI?5Max?$CIa?4?$CFs?$CJ?0?5?91?$CJ?5FR@ 0000000140015040     KizuDeleteManager.obj
 0002:000020a0       ??_C@_0CP@KJONMGAK@?$FLKD?$FN?5?$FL?$CFs?$FN?5?$IDX?$ID?$IM?$IDb?$IDh?$DM?$CFd?$DO?5DB?$IO?$MA?$JA?Q?$IP?$KN?$JH@ 00000001400150a0     KizuDeleteManager.obj
 0002:000020d0       ??_C@_0BF@JKFOKAFA@?$FLDB?$IO?$MA?$JA?Q?$IP?$KN?$JH?J?$IN?m?$IP?$JM?$IP?$II?$JH?$JN?$FN?$AA@ 00000001400150d0     KizuDeleteManager.obj
 0002:000020e8       ??_C@_0DD@FPFPKDAK@?$FLKD?$FN?5?$FL?$CFs?$FN?5?$IDX?$ID?$IM?$IDb?$IDh?$DM?$CFd?$DO?5?$IO?$MA?$JA?Q?$IN?m?$IP?$JM?5@ 00000001400150e8     KizuDeleteManager.obj
 0002:00002120       ??_C@_0CI@PHECDBDM@DELETE?5FROM?5?$CFs?5WHERE?5?$CFs?$DN?8?$CFs?8?5AND@ 0000000140015120     KizuDeleteManager.obj
 0002:00002148       ??_C@_0DC@BPFKBIFM@SELECT?5ISNULL?$CI?5Min?$CI?$CFs?$CJ?0?5?8?8?$CJ?5FROM@ 0000000140015148     KizuDeleteManager.obj
 0002:00002180       ??_C@_0CN@OLLICDOE@?$FLKD?$FN?5?$FL?$CFs?$FN?5?$IDX?$ID?$IM?$IDb?$IDh?$DM?$CFd?$DO?5?$IM?C?$IC?$KC?$IO?$MA?$JA?Q?$IN@ 0000000140015180     KizuDeleteManager.obj
 0002:000021b0       ??_C@_0BD@FLNIPPNN@?$FL?$IM?C?$IC?$KC?$IO?$MA?$JA?Q?$IN?m?$IP?$JM?$IP?$II?$JH?$JN?$FN?$AA@ 00000001400151b0     KizuDeleteManager.obj
 0002:000021d0       ??_7KizuDeleteManager@@6B@ 00000001400151d0     KizuDeleteManager.obj
 0002:000021f8       ??_C@_0CK@HLLKPGPJ@?$FLMainInctance?$FN?5?$IDX?$ID?$IM?$IDb?$IDhID?$IK?$IE?$IC?h?$JD?$JG?$IC@ 00000001400151f8     MainInctance.obj
 0002:00002228       ??_C@_0L@PJOGOLCD@SESSION_?$CFd?$AA@ 0000000140015228     MainInctance.obj
 0002:00002240       ??_C@_0ED@FNHEDPGA@?$FLMainInctance?$FN?5?$JB?$LM?$ID?$IP?$IB?$FL?$IDN?$IDX?$ID?$IM?$IDb?$IDh?$IC@ 0000000140015240     MainInctance.obj
 0002:00002288       ??_C@_0CD@LIDLHPDO@?$FLMainInctance?$FN?5?$IDX?$ID?$IM?$IDb?$IDh?$IKJ?$IOn?5?$FL0x?$CF@ 0000000140015288     MainInctance.obj
 0002:000022b0       ??_C@_0CD@BCKHOIPN@?$FLMainInctance?$FN?5?$IDX?$ID?$IM?$IDb?$IDh?$IPI?$JH?$LJ?5?$FL0x?$CF@ 00000001400152b0     MainInctance.obj
 0002:000022d8       ??_C@_0DA@CBIECEKJ@?$FLMainInctance?$FN?5?$ID?$IB?$IDC?$ID?$JD?$ID?$IL?$IB?$FL?$IDv?$IC?$KJ?$IC?g?$JE@ 00000001400152d8     MainInctance.obj
 0002:00002310       ??_7MainInctance@@6B@      0000000140015310     MainInctance.obj
 0002:00002328       ??_7CTI_DELETEApp@@6B@     0000000140015328     TI_DELETE.obj
 0002:000025b0       ??_C@_0EB@BJBCCBO@?$IDA?$IDv?$ID?$IK?$IDP?$IB?$FL?$IDV?$ID?$IH?$ID?$JD?5?$IDE?$IDB?$IDU?$IB?$FL?$IDh?$IC?E?$JA?$LG?$JA@ 00000001400155b0     TI_DELETE.obj
 0002:000025f4       ??_C@_04MNFLMFEA@?5x64?$AA@ 00000001400155f4     TI_DELETEDlg.obj
 0002:00002600       ??_C@_0P@OLNAEDIL@?$IPd?$JHv?$IC?H?$IC?$KI?$JCm?$IC?g?$IC?$LJ?$AA@ 0000000140015600     TI_DELETEDlg.obj
 0002:00002610       ??_C@_0P@DIICHPAH@?$IPI?$JH?$LJ?$IC?$LF?$IC?$NM?$IC?$LH?$IC?$KJ?$IBH?$AA@ 0000000140015610     TI_DELETEDlg.obj
 0002:00002620       ??_C@_0N@IBJPGNDB@?$JF?B?$IC?$LG?$IC?i?$ID?$HL?$ID?$FO?$ID?$JD?$AA@ 0000000140015620     TI_DELETEDlg.obj
 0002:00002630       ??_C@_01LFCBOECM@?4?$AA@   0000000140015630     TI_DELETEDlg.obj
 0002:00002638       ??_C@_08FAMEJMP@Japanese?$AA@ 0000000140015638     TI_DELETEDlg.obj
 0002:00002648       ??_C@_0L@PKDNNNLP@?$ID?$FO?$IDX?$IDN?$ILN?$JD?$KO?$AA@ 0000000140015648     TI_DELETEDlg.obj
 0002:00002658       ??_C@_0CA@LDEDNKNJ@?$IKe?$IDv?$ID?$IN?$IDZ?$IDX?$IKJ?$IOn?$IP?$II?$JH?$JN?5?$IO?$MA?$INs?$JC?$IG?$IBE?$IBE?$IBE?$AA@ 0000000140015658     TI_DELETEDlg.obj
 0002:00002678       ??_C@_0BI@OPELDACC@?$IKe?$IDv?$ID?$IN?$IDZ?$IDX?$IKJ?$IOn?$IP?$II?$JH?$JN?5?$IK?$KO?$JH?$LJ?$AA@ 0000000140015678     TI_DELETEDlg.obj
 0002:00002690       ??_C@_0L@JAOAGPIM@?$ID?$FO?$IDX?$IDN?$IPI?$JH?$LJ?$AA@ 0000000140015690     TI_DELETEDlg.obj
 0002:0000269c       ??_C@_04GDCDHMIP@?$IN?m?$IP?$JM?$AA@ 000000014001569c     TI_DELETEDlg.obj
 0002:000026a4       ??_C@_04JLIIGCH@?$IP?$JB?$IN?$JO?$AA@ 00000001400156a4     TI_DELETEDlg.obj
 0002:000026b0       ??_C@_0N@NBACCPAB@?$CFs?$JHD?$JA?f?$ID?$IC?$IB?$FL?$IDh?$AA@ 00000001400156b0     TI_DELETEDlg.obj
 0002:000026c0       ??_C@_0N@EIOKLDOC@?$FLEventNo?$DN?$CFd?$FN?$AA@ 00000001400156c0     TI_DELETEDlg.obj
 0002:000026d0       ??_C@_02HCPMAEIL@?$IB?$JL?$AA@ 00000001400156d0     TI_DELETEDlg.obj
 0002:000026d4       ??_C@_02FBPFADCC@?$IB?$HO?$AA@ 00000001400156d4     TI_DELETEDlg.obj
 0002:000026d8       ??_C@_04GEFJINEE@?$CF?42f?$AA@ 00000001400156d8     TI_DELETEDlg.obj
 0002:000026e0       ??_C@_02GDMDGBKA@?$IB?$HM?$AA@ 00000001400156e0     TI_DELETEDlg.obj
 0002:000027e8       ??_7CComboBox@@6B@         00000001400157e8     TI_DELETEDlg.obj
 0002:00002af0       ??_7CListBox@@6B@          0000000140015af0     TI_DELETEDlg.obj
 0002:00002e08       ??_7CTI_DELETEDlg@@6B@     0000000140015e08     TI_DELETEDlg.obj
 0002:00003130       ??_C@_0BM@GCBKLMHM@?$FL?$CFs?$FN?5?$IDX?$ID?$IM?$IDb?$IDh?$IKJ?$IOn?$DN?$CFd?5?$FL0x?$CFX?$FN?$AA@ 0000000140016130     KizuLibMFC:ThreadManager.obj
 0002:00003150       ??_C@_0BM@DGEKFHHN@?$FL?$CFs?$FN?5?$IDX?$ID?$IM?$IDb?$IDh?$IPI?$JH?$LJ?$DN?$CFd?5?$FL0x?$CFX?$FN?$AA@ 0000000140016150     KizuLibMFC:ThreadManager.obj
 0002:00003178       ??_7ThreadManager@@6B@     0000000140016178     KizuLibMFC:ThreadManager.obj
 0002:000031b8       ??_7?$ThreadQueue@D@KizuLib@@6B@ 00000001400161b8     KizuLibMFC:LogFileManager.obj
 0002:000031c8       ??_7?$basic_filebuf@DU?$char_traits@D@std@@@std@@6B@ 00000001400161c8     KizuLibMFC:LogFileManager.obj
 0002:00003240       ??_8?$basic_ofstream@DU?$char_traits@D@std@@@std@@7B@ 0000000140016240     KizuLibMFC:LogFileManager.obj
 0002:00003250       ??_7?$basic_ofstream@DU?$char_traits@D@std@@@std@@6B@ 0000000140016250     KizuLibMFC:LogFileManager.obj
 0002:00003260       ??_7LogFileManager@KizuLib@@6B@ 0000000140016260     KizuLibMFC:LogFileManager.obj
 0002:00003278       ??_7AutoLock@KizuLib@@6B@  0000000140016278     KizuLibMFC:LogFileManager.obj
 0002:00003288       ??_7bad_cast@std@@6B@      0000000140016288     KizuLibMFC:LogFileManager.obj
 0002:000032a0       ??_7exception@std@@6B@     00000001400162a0     KizuLibMFC:LogFileManager.obj
 0002:000032b0       ??_C@_0BC@EOODALEL@Unknown?5exception?$AA@ 00000001400162b0     KizuLibMFC:LogFileManager.obj
 0002:000032c8       ??_C@_08EPJLHIJG@bad?5cast?$AA@ 00000001400162c8     KizuLibMFC:LogFileManager.obj
 0002:000032d4       ??_C@_03GGEOLGBL@Log?$AA@  00000001400162d4     KizuLibMFC:LogFileManager.obj
 0002:000032d8       ??_C@_05JAKBALDA@?2Log?2?$AA@ 00000001400162d8     KizuLibMFC:LogFileManager.obj
 0002:000032e0       ??_C@_0BD@JKDABCKH@?$CFsbk_?$CFs_?$EA?$CFd_?$CFd?4log?$AA@ 00000001400162e0     KizuLibMFC:LogFileManager.obj
 0002:000032f8       ??_C@_0M@OHPCIELA@?$CFs?$CFs_?$CFd?4log?$AA@ 00000001400162f8     KizuLibMFC:LogFileManager.obj
 0002:00003308       ??_C@_0BC@HFKBPMM@?$CFsbk_?$CFs_?$EA0_?$CFd?4log?$AA@ 0000000140016308     KizuLibMFC:LogFileManager.obj
 0002:0000331c       ??_C@_03OKNDJEIL@?$IB?$JM?5?$AA@ 000000014001631c     KizuLibMFC:LogFileManager.obj
 0002:00003320       ??_C@_0CI@PAHLFECP@?$CF04d?1?$CF02d?1?$CF02d?5?$CF02d?3?$CF02d?3?$CF02d?4?$CF0@ 0000000140016320     KizuLibMFC:LogFileManager.obj
 0002:00003348       ??_C@_0BP@NGGCGNCD@?$ID?$IN?$IDO?$IDL?$ID?$IF?$IB?$FL?$IDt?$ID?$IL?$CB?$CB?5?$ID?$IN?$IDO?$IN?m?$IP?$JM?$IM?$IP?$JA?$JE?$DN?$AA@ 0000000140016348     KizuLibMFC:LogFileManager.obj
 0002:00003368       ??_C@_0CK@EBANHHFD@?$CF04d?1?$CF02d?1?$CF02d?5?$CF02d?3?$CF02d?3?$CF02d?4?$CF0@ 0000000140016368     KizuLibMFC:LogFileManager.obj
 0002:00003398       ??_C@_0P@EPGLBPPJ@notepad?4exe?5?$CFs?$AA@ 0000000140016398     KizuLibMFC:LogFileManager.obj
 0002:000033a8       ??_C@_0BA@JFNIOLAK@string?5too?5long?$AA@ 00000001400163a8     KizuLibMFC:LogFileManager.obj
 0002:000033b8       ??_C@_0BC@KBDMBKEH@deque?$DMT?$DO?5too?5long?$AA@ 00000001400163b8     KizuLibMFC:LogFileManager.obj
 0002:000033d8       ??_7WorkThread@KizuLib@@6B@ 00000001400163d8     KizuLib:WorkThread.obj
 0002:000033e8       ??_C@_0N@LKNIAFHA@?4?2KizuPc?4ini?$AA@ 00000001400163e8     KizuLib:KizuLib.obj
 0002:000033f8       ??_C@_04GDDBAMLE@PCID?$AA@ 00000001400163f8     KizuLib:KizuLib.obj
 0002:00003400       ??_C@_06DFFPEDLC@COMMON?$AA@ 0000000140016400     KizuLib:KizuLib.obj
 0002:00003408       ??_C@_09OOMFBMLD@KS_SYSLOG?$AA@ 0000000140016408     KizuLib:KizuLib.obj
 0002:00003418       ??_C@_0N@HGGMEBBH@M_STATUS_INF?$AA@ 0000000140016418     KizuLib:KizuFunction.obj
 0002:00003428       ??_C@_0BO@GMMDEJJG@?$FL?$CFs?$IP?$JB?$IN?$JO?$IC?$NN?$IO?$LI?$JEs?5ID?$DN?$CFd?5State?$DN?$CFd?$FN?$AA@ 0000000140016428     KizuLib:KizuFunction.obj
 0002:00003448       ??_C@_0CK@CFMCOJMF@UPDATE?5?$CFs?5SET?5?$IL?$EA?$IK?m?$IP?s?$JB?T?$DN?$CFd?5WHERE?5@ 0000000140016448     KizuLib:KizuFunction.obj
 0002:00003478       ??_C@_0CF@CCJAFHPH@?$FL?$CFs?$IP?$JB?$IN?$JO?$IC?$NN?$IO?$LI?$JEs?$CI2?$IJ?q?$JG?Z?$CJ?5ID?$DN?$CFd?5State@ 0000000140016478     KizuLib:KizuFunction.obj
 0002:000034a8       ??_7KizuPerformanceCounter@KizuLib@@6B@ 00000001400164a8     KizuLib:KizuPerformanceCounter.obj
 0002:000034b0       ??_C@_08JAEMHIPK@M_PC_INF?$AA@ 00000001400164b0     KizuLib:KizuPcInfManager.obj
 0002:000034c0       ??_C@_0M@DHHFGOOP@M_PC_MASTER?$AA@ 00000001400164c0     KizuLib:KizuPcInfManager.obj
 0002:000034d0       ??_C@_0HH@GJHMDKGF@SELECT?5i?4PCKIND?0?5m?4PC?$JG?$LM?0?5m?4PCID?0@ 00000001400164d0     KizuLib:KizuPcInfManager.obj
 0002:00003550       ??_7KizuPcInfManager@KizuLib@@6B@ 0000000140016550     KizuLib:KizuPcInfManager.obj
 0002:00003558       ??_C@_0BB@KIGMDFGF@?2?2?$CFs?2mailslot?2?$CFs?$AA@ 0000000140016558     KizuLib:MailSlotManager.obj
 0002:00003570       ??_C@_0BA@LCOIGNFA@?2?2?4?2mailslot?2?$CFs?$AA@ 0000000140016570     KizuLib:MailSlotManager.obj
 0002:00003588       ??_7MailSlotManager@KizuLib@@6BICommunityAsync@1@@ 0000000140016588     KizuLib:MailSlotManager.obj
 0002:000035b0       ??_7MailSlotManager@KizuLib@@6BICommunity@1@@ 00000001400165b0     KizuLib:MailSlotManager.obj
 0002:000035c8       ??_C@_08NOHFILKB@ODBCNAME?$AA@ 00000001400165c8     KizuODBC:OdbcBase.obj
 0002:000035d4       ??_C@_06IDCNLAJG@USERID?$AA@ 00000001400165d4     KizuODBC:OdbcBase.obj
 0002:000035e0       ??_C@_08KENNMKEI@PASSWORD?$AA@ 00000001400165e0     KizuODBC:OdbcBase.obj
 0002:000035f8       ??_7OdbcBase@KizuODBC@@6B@ 00000001400165f8     KizuODBC:OdbcBase.obj
 0002:00003608       ??_7OdbcEnv@KizuODBC@@6B@  0000000140016608     KizuODBC:OdbcEnv.obj
 0002:00003618       ??_7OdbcManager@KizuODBC@@6B@ 0000000140016618     KizuODBC:OdbcManager.obj
 0002:00003670       __real@3f50000000000000    0000000140016670     TI_DELETEDlg.obj
 0002:00003678       __real@3fc999999999999a    0000000140016678     KizuLib:KizuPerformanceCounter.obj
 0002:00003680       __real@3fe999999999999a    0000000140016680     KizuLib:KizuPerformanceCounter.obj
 0002:00003688       __real@4059000000000000    0000000140016688     TI_DELETEDlg.obj
 0002:00003690       __real@408f400000000000    0000000140016690     KizuLib:KizuPerformanceCounter.obj
 0002:00003698       __real@40c3878000000000    0000000140016698     DefragManager.obj
 0002:000036a0       __real@40c3880000000000    00000001400166a0     ControlManager.obj
 0002:000036b0       __xmm@000003ef000003ee000003ed000003ec 00000001400166b0     TI_DELETEDlg.obj
 0002:000036c0       __xmm@000003f3000003f2000003f1000003f0 00000001400166c0     TI_DELETEDlg.obj
 0002:00004170       _load_config_used          0000000140017170     msvcrt:loadcfg.obj
 0002:00004208       _tls_used                  0000000140017208     msvcrt:tlssup.obj
 0002:00004230       ??_R4type_info@@6B@        0000000140017230     msvcrt:std_type_info_static.obj
 0002:00004258       ??_R3type_info@@8          0000000140017258     msvcrt:std_type_info_static.obj
 0002:00004270       ??_R2type_info@@8          0000000140017270     msvcrt:std_type_info_static.obj
 0002:00004280       ??_R1A@?0A@EA@type_info@@8 0000000140017280     msvcrt:std_type_info_static.obj
 0002:000042a8       ??_R2ControlDefragManager@@8 00000001400172a8     ControlDefragManager.obj
 0002:000042c8       ??_R2ThreadManager@@8      00000001400172c8     ControlDefragManager.obj
 0002:000042e0       ??_R2WorkThread@KizuLib@@8 00000001400172e0     ControlDefragManager.obj
 0002:000042f0       ??_R1A@?0A@EA@ControlDefragManager@@8 00000001400172f0     ControlDefragManager.obj
 0002:00004318       ??_R1A@?0A@EA@ThreadManager@@8 0000000140017318     ControlDefragManager.obj
 0002:00004340       ??_R1A@?0A@EA@WorkThread@KizuLib@@8 0000000140017340     ControlDefragManager.obj
 0002:00004368       ??_R3ThreadManager@@8      0000000140017368     ControlDefragManager.obj
 0002:00004380       ??_R3WorkThread@KizuLib@@8 0000000140017380     ControlDefragManager.obj
 0002:00004398       ??_R3ControlDefragManager@@8 0000000140017398     ControlDefragManager.obj
 0002:000043b0       ??_R4ControlDefragManager@@6B@ 00000001400173b0     ControlDefragManager.obj
 0002:000043d8       ??_R2ControlLowGr@@8       00000001400173d8     ControlLowGr.obj
 0002:000043f8       ??_R1A@?0A@EA@ControlLowGr@@8 00000001400173f8     ControlLowGr.obj
 0002:00004420       ??_R3ControlLowGr@@8       0000000140017420     ControlLowGr.obj
 0002:00004438       ??_R4ControlLowGr@@6B@     0000000140017438     ControlLowGr.obj
 0002:00004460       ??_R2ControlManager@@8     0000000140017460     ControlManager.obj
 0002:00004478       ??_R2LockManager@KizuLib@@8 0000000140017478     ControlManager.obj
 0002:00004488       ??_R1A@?0A@EA@ControlManager@@8 0000000140017488     ControlManager.obj
 0002:000044b0       ??_R1A@?0A@EA@LockManager@KizuLib@@8 00000001400174b0     ControlManager.obj
 0002:000044d8       ??_R3ControlManager@@8     00000001400174d8     ControlManager.obj
 0002:000044f0       ??_R3LockManager@KizuLib@@8 00000001400174f0     ControlManager.obj
 0002:00004508       ??_R4ControlManager@@6B@   0000000140017508     ControlManager.obj
 0002:00004530       ??_R4LockManager@KizuLib@@6B@ 0000000140017530     ControlManager.obj
 0002:00004558       ??_R2DefragManager@@8      0000000140017558     DefragManager.obj
 0002:00004578       ??_R1A@?0A@EA@DefragManager@@8 0000000140017578     DefragManager.obj
 0002:000045a0       ??_R3DefragManager@@8      00000001400175a0     DefragManager.obj
 0002:000045b8       ??_R4DefragManager@@6B@    00000001400175b8     DefragManager.obj
 0002:000045e0       ??_R2DeleLowGr@@8          00000001400175e0     DeleLowGr.obj
 0002:00004600       ??_R1A@?0A@EA@DeleLowGr@@8 0000000140017600     DeleLowGr.obj
 0002:00004628       ??_R3DeleLowGr@@8          0000000140017628     DeleLowGr.obj
 0002:00004640       ??_R4DeleLowGr@@6B@        0000000140017640     DeleLowGr.obj
 0002:00004668       ??_R2DeleTable@@8          0000000140017668     DeleTable.obj
 0002:00004688       ??_R2KizuDeleteManager@@8  0000000140017688     DeleTable.obj
 0002:000046a0       ??_R1A@?0A@EA@DeleTable@@8 00000001400176a0     DeleTable.obj
 0002:000046c8       ??_R1A@?0A@EA@KizuDeleteManager@@8 00000001400176c8     DeleTable.obj
 0002:000046f0       ??_R3KizuDeleteManager@@8  00000001400176f0     DeleTable.obj
 0002:00004708       ??_R3DeleTable@@8          0000000140017708     DeleTable.obj
 0002:00004720       ??_R4DeleTable@@6B@        0000000140017720     DeleTable.obj
 0002:00004748       ??_R4KizuDeleteManager@@6B@ 0000000140017748     KizuDeleteManager.obj
 0002:00004770       ??_R2MainInctance@@8       0000000140017770     MainInctance.obj
 0002:00004788       ??_R1A@?0A@EA@MainInctance@@8 0000000140017788     MainInctance.obj
 0002:000047b0       ??_R3MainInctance@@8       00000001400177b0     MainInctance.obj
 0002:000047c8       ??_R4MainInctance@@6B@     00000001400177c8     MainInctance.obj
 0002:000047f0       ??_R2CTI_DELETEApp@@8      00000001400177f0     TI_DELETE.obj
 0002:00004820       ??_R2CWinApp@@8            0000000140017820     TI_DELETE.obj
 0002:00004848       ??_R2CWinThread@@8         0000000140017848     TI_DELETE.obj
 0002:00004868       ??_R1A@?0A@EA@CTI_DELETEApp@@8 0000000140017868     TI_DELETE.obj
 0002:00004890       ??_R1A@?0A@EA@CWinApp@@8   0000000140017890     TI_DELETE.obj
 0002:000048b8       ??_R2CObject@@8            00000001400178b8     TI_DELETE.obj
 0002:000048c8       ??_R3CObject@@8            00000001400178c8     TI_DELETE.obj
 0002:000048e0       ??_R1A@?0A@EA@CObject@@8   00000001400178e0     TI_DELETE.obj
 0002:00004908       ??_R2CCmdTarget@@8         0000000140017908     TI_DELETE.obj
 0002:00004920       ??_R3CCmdTarget@@8         0000000140017920     TI_DELETE.obj
 0002:00004938       ??_R1A@?0A@EA@CCmdTarget@@8 0000000140017938     TI_DELETE.obj
 0002:00004960       ??_R1A@?0A@EA@CWinThread@@8 0000000140017960     TI_DELETE.obj
 0002:00004988       ??_R3CWinApp@@8            0000000140017988     TI_DELETE.obj
 0002:000049a0       ??_R3CWinThread@@8         00000001400179a0     TI_DELETE.obj
 0002:000049b8       ??_R3CTI_DELETEApp@@8      00000001400179b8     TI_DELETE.obj
 0002:000049d0       ??_R4CTI_DELETEApp@@6B@    00000001400179d0     TI_DELETE.obj
 0002:000049f8       ??_R2CTI_DELETEDlg@@8      00000001400179f8     TI_DELETEDlg.obj
 0002:00004a28       ??_R2CDialog@@8            0000000140017a28     TI_DELETEDlg.obj
 0002:00004a50       ??_R3CDialog@@8            0000000140017a50     TI_DELETEDlg.obj
 0002:00004a68       ??_R1A@?0A@EA@CDialog@@8   0000000140017a68     TI_DELETEDlg.obj
 0002:00004a90       ??_R1A@?0A@EA@CTI_DELETEDlg@@8 0000000140017a90     TI_DELETEDlg.obj
 0002:00004ab8       ??_R3CTI_DELETEDlg@@8      0000000140017ab8     TI_DELETEDlg.obj
 0002:00004ad0       ??_R4CTI_DELETEDlg@@6B@    0000000140017ad0     TI_DELETEDlg.obj
 0002:00004af8       ??_R1A@?0A@EA@CComboBox@@8 0000000140017af8     TI_DELETEDlg.obj
 0002:00004b20       ??_R2CComboBox@@8          0000000140017b20     TI_DELETEDlg.obj
 0002:00004b48       ??_R3CComboBox@@8          0000000140017b48     TI_DELETEDlg.obj
 0002:00004b60       ??_R4CComboBox@@6B@        0000000140017b60     TI_DELETEDlg.obj
 0002:00004b88       ??_R1A@?0A@EA@CListBox@@8  0000000140017b88     TI_DELETEDlg.obj
 0002:00004bb0       ??_R2CWnd@@8               0000000140017bb0     TI_DELETEDlg.obj
 0002:00004bd0       ??_R3CWnd@@8               0000000140017bd0     TI_DELETEDlg.obj
 0002:00004be8       ??_R1A@?0A@EA@CWnd@@8      0000000140017be8     TI_DELETEDlg.obj
 0002:00004c10       ??_R2CListBox@@8           0000000140017c10     TI_DELETEDlg.obj
 0002:00004c38       ??_R3CListBox@@8           0000000140017c38     TI_DELETEDlg.obj
 0002:00004c50       ??_R4CListBox@@6B@         0000000140017c50     TI_DELETEDlg.obj
 0002:00004c78       ??_R4ThreadManager@@6B@    0000000140017c78     KizuLibMFC:ThreadManager.obj
 0002:00004ca0       ??_R2?$ThreadQueue@D@KizuLib@@8 0000000140017ca0     KizuLibMFC:LogFileManager.obj
 0002:00004cb0       ??_R2LogFileManager@KizuLib@@8 0000000140017cb0     KizuLibMFC:LogFileManager.obj
 0002:00004cc8       ??_R2AutoLock@KizuLib@@8   0000000140017cc8     KizuLibMFC:LogFileManager.obj
 0002:00004cd8       ??_R2bad_cast@std@@8       0000000140017cd8     KizuLibMFC:LogFileManager.obj
 0002:00004cf0       ??_R2?$basic_ofstream@DU?$char_traits@D@std@@@std@@8 0000000140017cf0     KizuLibMFC:LogFileManager.obj
 0002:00004d20       ??_R2?$basic_ostream@DU?$char_traits@D@std@@@std@@8 0000000140017d20     KizuLibMFC:LogFileManager.obj
 0002:00004d48       ??_R2?$basic_ios@DU?$char_traits@D@std@@@std@@8 0000000140017d48     KizuLibMFC:LogFileManager.obj
 0002:00004d68       ??_R2ios_base@std@@8       0000000140017d68     KizuLibMFC:LogFileManager.obj
 0002:00004d80       ??_R2?$_Iosb@H@std@@8      0000000140017d80     KizuLibMFC:LogFileManager.obj
 0002:00004d90       ??_R2?$basic_filebuf@DU?$char_traits@D@std@@@std@@8 0000000140017d90     KizuLibMFC:LogFileManager.obj
 0002:00004da8       ??_R2?$basic_streambuf@DU?$char_traits@D@std@@@std@@8 0000000140017da8     KizuLibMFC:LogFileManager.obj
 0002:00004db8       ??_R2exception@std@@8      0000000140017db8     KizuLibMFC:LogFileManager.obj
 0002:00004dc8       ??_R1A@?0A@EA@?$ThreadQueue@D@KizuLib@@8 0000000140017dc8     KizuLibMFC:LogFileManager.obj
 0002:00004df0       ??_R1A@?0A@EA@LogFileManager@KizuLib@@8 0000000140017df0     KizuLibMFC:LogFileManager.obj
 0002:00004e18       ??_R1A@?0A@EA@AutoLock@KizuLib@@8 0000000140017e18     KizuLibMFC:LogFileManager.obj
 0002:00004e40       ??_R1A@?0A@EA@bad_cast@std@@8 0000000140017e40     KizuLibMFC:LogFileManager.obj
 0002:00004e68       ??_R1A@?0A@EA@?$basic_ofstream@DU?$char_traits@D@std@@@std@@8 0000000140017e68     KizuLibMFC:LogFileManager.obj
 0002:00004e90       ??_R17A@3EA@?$_Iosb@H@std@@8 0000000140017e90     KizuLibMFC:LogFileManager.obj
 0002:00004eb8       ??_R1A@A@3EA@ios_base@std@@8 0000000140017eb8     KizuLibMFC:LogFileManager.obj
 0002:00004ee0       ??_R1A@A@3FA@?$basic_ios@DU?$char_traits@D@std@@@std@@8 0000000140017ee0     KizuLibMFC:LogFileManager.obj
 0002:00004f08       ??_R1A@?0A@EA@?$basic_ostream@DU?$char_traits@D@std@@@std@@8 0000000140017f08     KizuLibMFC:LogFileManager.obj
 0002:00004f30       ??_R1A@?0A@EA@?$basic_ios@DU?$char_traits@D@std@@@std@@8 0000000140017f30     KizuLibMFC:LogFileManager.obj
 0002:00004f58       ??_R17?0A@EA@?$_Iosb@H@std@@8 0000000140017f58     KizuLibMFC:LogFileManager.obj
 0002:00004f80       ??_R1A@?0A@EA@ios_base@std@@8 0000000140017f80     KizuLibMFC:LogFileManager.obj
 0002:00004fa8       ??_R1A@?0A@EA@?$_Iosb@H@std@@8 0000000140017fa8     KizuLibMFC:LogFileManager.obj
 0002:00004fd0       ??_R1A@?0A@EA@?$basic_filebuf@DU?$char_traits@D@std@@@std@@8 0000000140017fd0     KizuLibMFC:LogFileManager.obj
 0002:00004ff8       ??_R1A@?0A@EA@?$basic_streambuf@DU?$char_traits@D@std@@@std@@8 0000000140017ff8     KizuLibMFC:LogFileManager.obj
 0002:00005020       ??_R1A@?0A@EA@exception@std@@8 0000000140018020     KizuLibMFC:LogFileManager.obj
 0002:00005048       ??_R3?$ThreadQueue@D@KizuLib@@8 0000000140018048     KizuLibMFC:LogFileManager.obj
 0002:00005060       ??_R3LogFileManager@KizuLib@@8 0000000140018060     KizuLibMFC:LogFileManager.obj
 0002:00005078       ??_R3AutoLock@KizuLib@@8   0000000140018078     KizuLibMFC:LogFileManager.obj
 0002:00005090       ??_R3bad_cast@std@@8       0000000140018090     KizuLibMFC:LogFileManager.obj
 0002:000050a8       ??_R3?$basic_ostream@DU?$char_traits@D@std@@@std@@8 00000001400180a8     KizuLibMFC:LogFileManager.obj
 0002:000050c0       ??_R3ios_base@std@@8       00000001400180c0     KizuLibMFC:LogFileManager.obj
 0002:000050d8       ??_R3?$_Iosb@H@std@@8      00000001400180d8     KizuLibMFC:LogFileManager.obj
 0002:000050f0       ??_R3?$basic_ios@DU?$char_traits@D@std@@@std@@8 00000001400180f0     KizuLibMFC:LogFileManager.obj
 0002:00005108       ??_R3?$basic_ofstream@DU?$char_traits@D@std@@@std@@8 0000000140018108     KizuLibMFC:LogFileManager.obj
 0002:00005120       ??_R3?$basic_streambuf@DU?$char_traits@D@std@@@std@@8 0000000140018120     KizuLibMFC:LogFileManager.obj
 0002:00005138       ??_R3?$basic_filebuf@DU?$char_traits@D@std@@@std@@8 0000000140018138     KizuLibMFC:LogFileManager.obj
 0002:00005150       ??_R3exception@std@@8      0000000140018150     KizuLibMFC:LogFileManager.obj
 0002:00005168       ??_R4?$ThreadQueue@D@KizuLib@@6B@ 0000000140018168     KizuLibMFC:LogFileManager.obj
 0002:00005190       ??_R4LogFileManager@KizuLib@@6B@ 0000000140018190     KizuLibMFC:LogFileManager.obj
 0002:000051b8       ??_R4AutoLock@KizuLib@@6B@ 00000001400181b8     KizuLibMFC:LogFileManager.obj
 0002:000051e0       ??_R4bad_cast@std@@6B@     00000001400181e0     KizuLibMFC:LogFileManager.obj
 0002:00005208       ??_R4?$basic_ofstream@DU?$char_traits@D@std@@@std@@6B@ 0000000140018208     KizuLibMFC:LogFileManager.obj
 0002:00005230       ??_R4?$basic_filebuf@DU?$char_traits@D@std@@@std@@6B@ 0000000140018230     KizuLibMFC:LogFileManager.obj
 0002:00005258       ??_R4exception@std@@6B@    0000000140018258     KizuLibMFC:LogFileManager.obj
 0002:00005280       ??_R4WorkThread@KizuLib@@6B@ 0000000140018280     KizuLib:WorkThread.obj
 0002:000052a8       ??_R2KizuPerformanceCounter@KizuLib@@8 00000001400182a8     KizuLib:KizuPerformanceCounter.obj
 0002:000052b8       ??_R1A@?0A@EA@KizuPerformanceCounter@KizuLib@@8 00000001400182b8     KizuLib:KizuPerformanceCounter.obj
 0002:000052e0       ??_R3KizuPerformanceCounter@KizuLib@@8 00000001400182e0     KizuLib:KizuPerformanceCounter.obj
 0002:000052f8       ??_R4KizuPerformanceCounter@KizuLib@@6B@ 00000001400182f8     KizuLib:KizuPerformanceCounter.obj
 0002:00005320       ??_R2KizuPcInfManager@KizuLib@@8 0000000140018320     KizuLib:KizuPcInfManager.obj
 0002:00005330       ??_R1A@?0A@EA@KizuPcInfManager@KizuLib@@8 0000000140018330     KizuLib:KizuPcInfManager.obj
 0002:00005358       ??_R3KizuPcInfManager@KizuLib@@8 0000000140018358     KizuLib:KizuPcInfManager.obj
 0002:00005370       ??_R4KizuPcInfManager@KizuLib@@6B@ 0000000140018370     KizuLib:KizuPcInfManager.obj
 0002:00005398       ??_R2MailSlotManager@KizuLib@@8 0000000140018398     KizuLib:MailSlotManager.obj
 0002:000053b8       ??_R2ICommunityAsync@KizuLib@@8 00000001400183b8     KizuLib:MailSlotManager.obj
 0002:000053c8       ??_R2ICommunity@KizuLib@@8 00000001400183c8     KizuLib:MailSlotManager.obj
 0002:000053d8       ??_R17?0A@EA@ICommunityAsync@KizuLib@@8 00000001400183d8     KizuLib:MailSlotManager.obj
 0002:00005400       ??_R1A@?0A@EA@MailSlotManager@KizuLib@@8 0000000140018400     KizuLib:MailSlotManager.obj
 0002:00005428       ??_R1A@?0A@EA@ICommunityAsync@KizuLib@@8 0000000140018428     KizuLib:MailSlotManager.obj
 0002:00005450       ??_R1A@?0A@EA@ICommunity@KizuLib@@8 0000000140018450     KizuLib:MailSlotManager.obj
 0002:00005478       ??_R3MailSlotManager@KizuLib@@8 0000000140018478     KizuLib:MailSlotManager.obj
 0002:00005490       ??_R3ICommunityAsync@KizuLib@@8 0000000140018490     KizuLib:MailSlotManager.obj
 0002:000054a8       ??_R3ICommunity@KizuLib@@8 00000001400184a8     KizuLib:MailSlotManager.obj
 0002:000054c0       ??_R4MailSlotManager@KizuLib@@6BICommunityAsync@1@@ 00000001400184c0     KizuLib:MailSlotManager.obj
 0002:000054e8       ??_R4MailSlotManager@KizuLib@@6BICommunity@1@@ 00000001400184e8     KizuLib:MailSlotManager.obj
 0002:00005510       ??_R2OdbcBase@KizuODBC@@8  0000000140018510     KizuODBC:OdbcBase.obj
 0002:00005520       ??_R1A@?0A@EA@OdbcBase@KizuODBC@@8 0000000140018520     KizuODBC:OdbcBase.obj
 0002:00005548       ??_R3OdbcBase@KizuODBC@@8  0000000140018548     KizuODBC:OdbcBase.obj
 0002:00005560       ??_R4OdbcBase@KizuODBC@@6B@ 0000000140018560     KizuODBC:OdbcBase.obj
 0002:00005588       ??_R2OdbcEnv@KizuODBC@@8   0000000140018588     KizuODBC:OdbcEnv.obj
 0002:00005598       ??_R1A@?0A@EA@OdbcEnv@KizuODBC@@8 0000000140018598     KizuODBC:OdbcEnv.obj
 0002:000055c0       ??_R3OdbcEnv@KizuODBC@@8   00000001400185c0     KizuODBC:OdbcEnv.obj
 0002:000055d8       ??_R4OdbcEnv@KizuODBC@@6B@ 00000001400185d8     KizuODBC:OdbcEnv.obj
 0002:00005600       ??_R2OdbcManager@KizuODBC@@8 0000000140018600     KizuODBC:OdbcManager.obj
 0002:00005610       ??_R1A@?0A@EA@OdbcManager@KizuODBC@@8 0000000140018610     KizuODBC:OdbcManager.obj
 0002:00005638       ??_R3OdbcManager@KizuODBC@@8 0000000140018638     KizuODBC:OdbcManager.obj
 0002:00005650       ??_R4OdbcManager@KizuODBC@@6B@ 0000000140018650     KizuODBC:OdbcManager.obj
 0002:00005a80       __rtc_iaa                  0000000140018a80     msvcrt:_initsect_.obj
 0002:00005a88       __rtc_izz                  0000000140018a88     msvcrt:_initsect_.obj
 0002:00005a90       __rtc_taa                  0000000140018a90     msvcrt:_initsect_.obj
 0002:00005a98       __rtc_tzz                  0000000140018a98     msvcrt:_initsect_.obj
 0002:00007a90       _CTA2?AVbad_cast@std@@     000000014001aa90     KizuLibMFC:LogFileManager.obj
 0002:00007aa8       _CT??_R0?AVbad_cast@std@@@8??0bad_cast@std@@QEAA@AEBV01@@Z24 000000014001aaa8     KizuLibMFC:LogFileManager.obj
 0002:00007ad0       _TI2?AVbad_cast@std@@      000000014001aad0     KizuLibMFC:LogFileManager.obj
 0002:00007af0       _CT??_R0?AVexception@std@@@8??0exception@std@@QEAA@AEBV01@@Z24 000000014001aaf0     KizuLibMFC:LogFileManager.obj
 0002:00007b18       __IMPORT_DESCRIPTOR_ODBC32 000000014001ab18     KizuODBC:ODBC32.dll
 0002:00007b2c       __IMPORT_DESCRIPTOR_mfc140 000000014001ab2c     mfc140:mfc140.dll
 0002:00007b40       __IMPORT_DESCRIPTOR_KERNEL32 000000014001ab40     kernel32:KERNEL32.dll
 0002:00007b54       __IMPORT_DESCRIPTOR_USER32 000000014001ab54     user32:USER32.dll
 0002:00007b68       __IMPORT_DESCRIPTOR_COMCTL32 000000014001ab68     comctl32:COMCTL32.dll
 0002:00007b7c       __IMPORT_DESCRIPTOR_MSVCP140 000000014001ab7c     msvcprt:MSVCP140.dll
 0002:00007b90       __IMPORT_DESCRIPTOR_VCRUNTIME140 000000014001ab90     vcruntime:VCRUNTIME140.dll
 0002:00007ba4       __IMPORT_DESCRIPTOR_api-ms-win-crt-convert-l1-1-0 000000014001aba4     ucrt:api-ms-win-crt-convert-l1-1-0.dll
 0002:00007bb8       __IMPORT_DESCRIPTOR_api-ms-win-crt-runtime-l1-1-0 000000014001abb8     ucrt:api-ms-win-crt-runtime-l1-1-0.dll
 0002:00007bcc       __IMPORT_DESCRIPTOR_api-ms-win-crt-time-l1-1-0 000000014001abcc     ucrt:api-ms-win-crt-time-l1-1-0.dll
 0002:00007be0       __IMPORT_DESCRIPTOR_api-ms-win-crt-heap-l1-1-0 000000014001abe0     ucrt:api-ms-win-crt-heap-l1-1-0.dll
 0002:00007bf4       __IMPORT_DESCRIPTOR_api-ms-win-crt-locale-l1-1-0 000000014001abf4     ucrt:api-ms-win-crt-locale-l1-1-0.dll
 0002:00007c08       __IMPORT_DESCRIPTOR_api-ms-win-crt-stdio-l1-1-0 000000014001ac08     ucrt:api-ms-win-crt-stdio-l1-1-0.dll
 0002:00007c1c       __IMPORT_DESCRIPTOR_api-ms-win-crt-filesystem-l1-1-0 000000014001ac1c     ucrt:api-ms-win-crt-filesystem-l1-1-0.dll
 0002:00007c30       __IMPORT_DESCRIPTOR_api-ms-win-crt-math-l1-1-0 000000014001ac30     ucrt:api-ms-win-crt-math-l1-1-0.dll
 0002:00007c44       __NULL_IMPORT_DESCRIPTOR   000000014001ac44     KizuLib:WS2_32.dll
 0003:00000000       _Init_global_epoch         000000014001d000     msvcrt:thread_safe_statics.obj
 0003:00000004       __scrt_native_dllmain_reason 000000014001d004     msvcrt:utility.obj
 0003:00000008       __security_cookie          000000014001d008     msvcrt:gs_cookie.obj
 0003:00000010       __security_cookie_complement 000000014001d010     msvcrt:gs_cookie.obj
 0003:00000018       __isa_available            000000014001d018     msvcrt:_cpu_disp_.obj
 0003:0000001c       __isa_enabled              000000014001d01c     msvcrt:_cpu_disp_.obj
 0003:00000020       __memcpy_nt_iters          000000014001d020     msvcrt:_cpu_disp_.obj
 0003:00000028       __scrt_default_matherr     000000014001d028     msvcrt:matherr.obj
 0003:00000030       __scrt_ucrt_dll_is_in_use  000000014001d030     msvcrt:ucrt_stubs.obj
 0003:00000040       _fltused                   000000014001d040     msvcrt:dllsupp.obj
 0003:00000050       ??_R0?AVtype_info@@@8      000000014001d050     msvcrt:std_type_info_static.obj
 0003:00000070       ??_R0?AVThreadManager@@@8  000000014001d070     ControlDefragManager.obj
 0003:00000098       ??_R0?AVWorkThread@KizuLib@@@8 000000014001d098     ControlDefragManager.obj
 0003:000000c8       ??_R0?AVControlDefragManager@@@8 000000014001d0c8     ControlDefragManager.obj
 0003:000000f8       ??_R0?AVControlLowGr@@@8   000000014001d0f8     ControlLowGr.obj
 0003:00000120       ??_R0?AVControlManager@@@8 000000014001d120     ControlManager.obj
 0003:00000148       ??_R0?AVLockManager@KizuLib@@@8 000000014001d148     ControlManager.obj
 0003:00000178       ??_R0?AVDefragManager@@@8  000000014001d178     DefragManager.obj
 0003:000001a0       ??_R0?AVDeleLowGr@@@8      000000014001d1a0     DeleLowGr.obj
 0003:000001c0       ??_R0?AVKizuDeleteManager@@@8 000000014001d1c0     DeleTable.obj
 0003:000001e8       ??_R0?AVDeleTable@@@8      000000014001d1e8     DeleTable.obj
 0003:00000208       ??_R0?AVMainInctance@@@8   000000014001d208     MainInctance.obj
 0003:00000230       ??_R0?AVCCmdTarget@@@8     000000014001d230     TI_DELETE.obj
 0003:00000258       ??_R0?AVCObject@@@8        000000014001d258     TI_DELETE.obj
 0003:00000278       ??_R0?AVCWinApp@@@8        000000014001d278     TI_DELETE.obj
 0003:00000298       ??_R0?AVCWinThread@@@8     000000014001d298     TI_DELETE.obj
 0003:000002c0       ??_R0?AVCTI_DELETEApp@@@8  000000014001d2c0     TI_DELETE.obj
 0003:000002e8       ??_R0?AVCDialog@@@8        000000014001d2e8     TI_DELETEDlg.obj
 0003:00000308       ??_R0?AVCTI_DELETEDlg@@@8  000000014001d308     TI_DELETEDlg.obj
 0003:00000330       ??_R0?AVCComboBox@@@8      000000014001d330     TI_DELETEDlg.obj
 0003:00000350       ??_R0?AVCListBox@@@8       000000014001d350     TI_DELETEDlg.obj
 0003:00000370       ??_R0?AVCWnd@@@8           000000014001d370     TI_DELETEDlg.obj
 0003:00000390       ??_R0?AV?$ThreadQueue@D@KizuLib@@@8 000000014001d390     KizuLibMFC:LogFileManager.obj
 0003:000003c0       ??_R0?AVLogFileManager@KizuLib@@@8 000000014001d3c0     KizuLibMFC:LogFileManager.obj
 0003:000003f0       ??_R0?AVAutoLock@KizuLib@@@8 000000014001d3f0     KizuLibMFC:LogFileManager.obj
 0003:00000420       ??_R0?AV?$basic_ostream@DU?$char_traits@D@std@@@std@@@8 000000014001d420     KizuLibMFC:LogFileManager.obj
 0003:00000468       ??_R0?AVios_base@std@@@8   000000014001d468     KizuLibMFC:LogFileManager.obj
 0003:00000490       ??_R0?AV?$_Iosb@H@std@@@8  000000014001d490     KizuLibMFC:LogFileManager.obj
 0003:000004b8       ??_R0?AV?$basic_ios@DU?$char_traits@D@std@@@std@@@8 000000014001d4b8     KizuLibMFC:LogFileManager.obj
 0003:00000500       ??_R0?AV?$basic_ofstream@DU?$char_traits@D@std@@@std@@@8 000000014001d500     KizuLibMFC:LogFileManager.obj
 0003:00000550       ??_R0?AV?$basic_streambuf@DU?$char_traits@D@std@@@std@@@8 000000014001d550     KizuLibMFC:LogFileManager.obj
 0003:000005a0       ??_R0?AV?$basic_filebuf@DU?$char_traits@D@std@@@std@@@8 000000014001d5a0     KizuLibMFC:LogFileManager.obj
 0003:000005e8       ??_R0?AVbad_cast@std@@@8   000000014001d5e8     KizuLibMFC:LogFileManager.obj
 0003:00000610       ??_R0?AVexception@std@@@8  000000014001d610     KizuLibMFC:LogFileManager.obj
 0003:00000638       ??_R0?AVKizuPerformanceCounter@KizuLib@@@8 000000014001d638     KizuLib:KizuPerformanceCounter.obj
 0003:00000670       ??_R0?AVKizuPcInfManager@KizuLib@@@8 000000014001d670     KizuLib:KizuPcInfManager.obj
 0003:000006a0       ??_R0?AVMailSlotManager@KizuLib@@@8 000000014001d6a0     KizuLib:MailSlotManager.obj
 0003:000006d0       ??_R0?AUICommunityAsync@KizuLib@@@8 000000014001d6d0     KizuLib:MailSlotManager.obj
 0003:00000700       ??_R0?AUICommunity@KizuLib@@@8 000000014001d700     KizuLib:MailSlotManager.obj
 0003:00000730       ??_R0?AVOdbcBase@KizuODBC@@@8 000000014001d730     KizuODBC:OdbcBase.obj
 0003:00000758       ??_R0?AVOdbcEnv@KizuODBC@@@8 000000014001d758     KizuODBC:OdbcEnv.obj
 0003:00000780       ??_R0?AVOdbcManager@KizuODBC@@@8 000000014001d780     KizuODBC:OdbcManager.obj
 0003:000007b0       __afxForceEXCLUDE          000000014001d7b0     mfcs140:nolib.obj
 0003:000007b4       __afxForceSTDAFX           000000014001d7b4     mfcs140:stdafx.obj
 0003:00000800       __scrt_current_native_startup_state 000000014001d800     msvcrt:utility.obj
 0003:00000808       __scrt_native_startup_lock 000000014001d808     msvcrt:utility.obj
 0003:00000dc0       _tls_index                 000000014001ddc0     msvcrt:tlssup.obj
 0003:00000dc4       __scrt_debugger_hook_flag  000000014001ddc4     msvcrt:utility_desktop.obj
 0003:00000dc8       __favor                    000000014001ddc8     msvcrt:_cpu_disp_.obj
 0003:00000dd0       ?__type_info_root_node@@3U__type_info_node@@A 000000014001ddd0     msvcrt:tncleanup.obj
 0003:00000de0       ?_OptionsStorage@?1??__local_stdio_scanf_options@@9@4_KA 000000014001dde0     msvcrt:default_local_stdio_options.obj
 0003:00000df0       ?_AtlBaseModule@ATL@@3VCAtlBaseModule@1@A 000000014001ddf0     atls:atlbase.obj
 0003:00000e50       __@@_PchSym_@00@UwwUexgllohUexHoryhUhsrkUzgonuxUhixUzgoUzgohUlyqBiUznwGEUhgwzucOlyq@CB7A8FA0488D52BF 000000014001de50     atls:stdafx.obj
 0003:00000e61       ?_afxInitAppState@@3DA     000000014001de61     mfcs140:appmodul.obj
 0003:00000e64       __@@_PchSym_@00@UmFxtoPgrmbUhixPoryUgrPwvovgvUcGEUivovzhvUhgwzucOlyq@E65358A1E24FD993 000000014001de64     stdafx.obj
 0003:00000e68       ?m_bInitFailed@CAtlBaseModule@ATL@@2_NA 000000014001de68     stdafx.obj
 0003:00000e70       ?_Psave@?$_Facetptr@V?$codecvt@DDU_Mbstatet@@@std@@@std@@2PEBVfacet@locale@2@EB 000000014001de70     KizuLibMFC:LogFileManager.obj
 0003:00000e78       ?_Stinit@?1??_Init@?$basic_filebuf@DU?$char_traits@D@std@@@std@@IEAAXPEAU_iobuf@@W4_Initfl@23@@Z@4U_Mbstatet@@A 000000014001de78     KizuLibMFC:LogFileManager.obj
 0003:00000e80       ?_OptionsStorage@?1??__local_stdio_printf_options@@9@4_KA 000000014001de80     KizuLibMFC:LogFileManager.obj
 0003:00000e88       __@@_PchSym_@00@UmFxtoPgrmbUoryizibUpraforynuxUcGEUivovzhvUhgwzucOlyq@3810160A3EB1AF0A 000000014001de88     KizuLibMFC:stdafx.obj
 0003:00000ea0       ?PCNAME@@3PAY0BA@DA        000000014001dea0     KizuLib:KizuLib.obj
 0003:000012b0       ?theApp@@3VCTI_DELETEApp@@A 000000014001e2b0     TI_DELETE.obj
 0003:00001430       ?m_inst@OdbcEnv@KizuODBC@@0V12@A 000000014001e430     KizuODBC:OdbcEnv.obj
 0003:00001680       __@@_PchSym_@00@UmFxtoPgrmbUoryizibUpraforyUcGEUivovzhvUhgwzucOlyq@E00AA93763076EC5 000000014001e680     KizuLib:stdafx.obj
 0003:00001684       __@@_PchSym_@00@UmFxtoPgrmbUoryizibUpraflwyxUcGEUivovzhvUhgwzucOlyq@33C4FA68462A4CC8 000000014001e684     KizuODBC:stdafx.obj
 0003:00001688       __dyn_tls_dtor_callback    000000014001e688     <common>
 0003:00001690       __dyn_tls_init_callback    000000014001e690     <common>
 0006:00000000       _tls_start                 0000000140021000     msvcrt:tlssup.obj
 0006:00000004       _Init_thread_epoch         0000000140021004     msvcrt:thread_safe_statics.obj
 0006:00000008       _tls_end                   0000000140021008     msvcrt:tlssup.obj

 entry point at        0001:0000ff44

 Static symbols

 0000:fffd7000       .debug$S                   0000000140000000     kernel32:KERNEL32.dll
 0000:fffd7000       .debug$S                   0000000140000000     mfc140:mfc140.dll
 0000:fffd7000       .debug$S                   0000000140000000     mfc140:mfc140.dll
 0000:fffd7000       .debug$S                   0000000140000000     mfc140:mfc140.dll
 0000:fffd7000       .debug$S                   0000000140000000     ucrt:api-ms-win-crt-convert-l1-1-0.dll
 0000:fffd7000       .debug$S                   0000000140000000     ucrt:api-ms-win-crt-convert-l1-1-0.dll
 0000:fffd7000       .debug$S                   0000000140000000     ucrt:api-ms-win-crt-filesystem-l1-1-0.dll
 0000:fffd7000       .debug$S                   0000000140000000     mfc140:mfc140.dll
 0000:fffd7000       .debug$S                   0000000140000000     ucrt:api-ms-win-crt-filesystem-l1-1-0.dll
 0000:fffd7000       .debug$S                   0000000140000000     ucrt:api-ms-win-crt-filesystem-l1-1-0.dll
 0000:fffd7000       .debug$S                   0000000140000000     mfc140:mfc140.dll
 0000:fffd7000       .debug$S                   0000000140000000     ucrt:api-ms-win-crt-filesystem-l1-1-0.dll
 0000:fffd7000       .debug$S                   0000000140000000     ucrt:api-ms-win-crt-filesystem-l1-1-0.dll
 0000:fffd7000       .debug$S                   0000000140000000     ucrt:api-ms-win-crt-heap-l1-1-0.dll
 0000:fffd7000       .debug$S                   0000000140000000     ucrt:api-ms-win-crt-heap-l1-1-0.dll
 0000:fffd7000       .debug$S                   0000000140000000     ucrt:api-ms-win-crt-heap-l1-1-0.dll
 0000:fffd7000       .debug$S                   0000000140000000     ucrt:api-ms-win-crt-locale-l1-1-0.dll
 0000:fffd7000       .debug$S                   0000000140000000     ucrt:api-ms-win-crt-locale-l1-1-0.dll
 0000:fffd7000       .debug$S                   0000000140000000     ucrt:api-ms-win-crt-locale-l1-1-0.dll
 0000:fffd7000       .debug$S                   0000000140000000     ucrt:api-ms-win-crt-math-l1-1-0.dll
 0000:fffd7000       .debug$S                   0000000140000000     ucrt:api-ms-win-crt-runtime-l1-1-0.dll
 0000:fffd7000       .debug$S                   0000000140000000     mfc140:mfc140.dll
 0000:fffd7000       .debug$S                   0000000140000000     ucrt:api-ms-win-crt-runtime-l1-1-0.dll
 0000:fffd7000       .debug$S                   0000000140000000     ucrt:api-ms-win-crt-runtime-l1-1-0.dll
 0000:fffd7000       .debug$S                   0000000140000000     ucrt:api-ms-win-crt-runtime-l1-1-0.dll
 0000:fffd7000       .debug$S                   0000000140000000     ucrt:api-ms-win-crt-runtime-l1-1-0.dll
 0000:fffd7000       .debug$S                   0000000140000000     ucrt:api-ms-win-crt-runtime-l1-1-0.dll
 0000:fffd7000       .debug$S                   0000000140000000     mfc140:mfc140.dll
 0000:fffd7000       .debug$S                   0000000140000000     mfc140:mfc140.dll
 0000:fffd7000       .debug$S                   0000000140000000     mfc140:mfc140.dll
 0000:fffd7000       .debug$S                   0000000140000000     mfc140:mfc140.dll
 0000:fffd7000       .debug$S                   0000000140000000     mfc140:mfc140.dll
 0000:fffd7000       .debug$S                   0000000140000000     mfc140:mfc140.dll
 0000:fffd7000       .debug$S                   0000000140000000     mfc140:mfc140.dll
 0000:fffd7000       .debug$S                   0000000140000000     mfc140:mfc140.dll
 0000:fffd7000       .debug$S                   0000000140000000     mfc140:mfc140.dll
 0000:fffd7000       .debug$S                   0000000140000000     mfc140:mfc140.dll
 0000:fffd7000       .debug$S                   0000000140000000     mfc140:mfc140.dll
 0000:fffd7000       .debug$S                   0000000140000000     mfc140:mfc140.dll
 0000:fffd7000       .debug$S                   0000000140000000     mfc140:mfc140.dll
 0000:fffd7000       .debug$S                   0000000140000000     mfc140:mfc140.dll
 0000:fffd7000       .debug$S                   0000000140000000     ucrt:api-ms-win-crt-runtime-l1-1-0.dll
 0000:fffd7000       .debug$S                   0000000140000000     ucrt:api-ms-win-crt-runtime-l1-1-0.dll
 0002:fffed000       .idata$6                   0000000140000000     KizuLib:WS2_32.dll
 0000:fffd7000       .debug$S                   0000000140000000     ucrt:api-ms-win-crt-runtime-l1-1-0.dll
 0000:fffd7000       .debug$S                   0000000140000000     ucrt:api-ms-win-crt-runtime-l1-1-0.dll
 0000:fffd7000       .debug$S                   0000000140000000     ucrt:api-ms-win-crt-runtime-l1-1-0.dll
 0000:fffd7000       .debug$S                   0000000140000000     ucrt:api-ms-win-crt-runtime-l1-1-0.dll
 0000:fffd7000       .debug$S                   0000000140000000     KizuLib:WS2_32.dll
 0000:fffd7000       .debug$S                   0000000140000000     ucrt:api-ms-win-crt-runtime-l1-1-0.dll
 0000:fffd7000       .debug$S                   0000000140000000     ucrt:api-ms-win-crt-runtime-l1-1-0.dll
 0000:fffd7000       .debug$S                   0000000140000000     ucrt:api-ms-win-crt-runtime-l1-1-0.dll
 0000:fffd7000       .debug$S                   0000000140000000     ucrt:api-ms-win-crt-runtime-l1-1-0.dll
 0000:fffd7000       .debug$S                   0000000140000000     ucrt:api-ms-win-crt-runtime-l1-1-0.dll
 0000:fffd7000       .debug$S                   0000000140000000     ucrt:api-ms-win-crt-runtime-l1-1-0.dll
 0000:fffd7000       .debug$S                   0000000140000000     ucrt:api-ms-win-crt-runtime-l1-1-0.dll
 0000:fffd7000       .debug$S                   0000000140000000     ucrt:api-ms-win-crt-runtime-l1-1-0.dll
 0000:fffd7000       .debug$S                   0000000140000000     KizuODBC:ODBC32.dll
 0000:fffd7000       .debug$S                   0000000140000000     ucrt:api-ms-win-crt-runtime-l1-1-0.dll
 0000:fffd7000       .debug$S                   0000000140000000     ucrt:api-ms-win-crt-runtime-l1-1-0.dll
 0000:fffd7000       .debug$S                   0000000140000000     ucrt:api-ms-win-crt-runtime-l1-1-0.dll
 0000:fffd7000       .debug$S                   0000000140000000     ucrt:api-ms-win-crt-stdio-l1-1-0.dll
 0000:fffd7000       .debug$S                   0000000140000000     ucrt:api-ms-win-crt-stdio-l1-1-0.dll
 0000:fffd7000       .debug$S                   0000000140000000     ucrt:api-ms-win-crt-stdio-l1-1-0.dll
 0000:fffd7000       .debug$S                   0000000140000000     KizuODBC:ODBC32.dll
 0000:fffd7000       .debug$S                   0000000140000000     ucrt:api-ms-win-crt-stdio-l1-1-0.dll
 0000:fffd7000       .debug$S                   0000000140000000     ucrt:api-ms-win-crt-stdio-l1-1-0.dll
 0000:fffd7000       .debug$S                   0000000140000000     ucrt:api-ms-win-crt-stdio-l1-1-0.dll
 0000:fffd7000       .debug$S                   0000000140000000     ucrt:api-ms-win-crt-stdio-l1-1-0.dll
 0000:fffd7000       .debug$S                   0000000140000000     KizuODBC:ODBC32.dll
 0000:fffd7000       .debug$S                   0000000140000000     ucrt:api-ms-win-crt-stdio-l1-1-0.dll
 0000:fffd7000       .debug$S                   0000000140000000     ucrt:api-ms-win-crt-stdio-l1-1-0.dll
 0000:fffd7000       .debug$S                   0000000140000000     ucrt:api-ms-win-crt-stdio-l1-1-0.dll
 0000:fffd7000       .debug$S                   0000000140000000     KizuODBC:ODBC32.dll
 0000:fffd7000       .debug$S                   0000000140000000     ucrt:api-ms-win-crt-stdio-l1-1-0.dll
 0000:fffd7000       .debug$S                   0000000140000000     ucrt:api-ms-win-crt-stdio-l1-1-0.dll
 0000:fffd7000       .debug$S                   0000000140000000     ucrt:api-ms-win-crt-stdio-l1-1-0.dll
 0000:fffd7000       .debug$S                   0000000140000000     KizuODBC:ODBC32.dll
 0000:fffd7000       .debug$S                   0000000140000000     ucrt:api-ms-win-crt-stdio-l1-1-0.dll
 0000:fffd7000       .debug$S                   0000000140000000     ucrt:api-ms-win-crt-stdio-l1-1-0.dll
 0000:fffd7000       .debug$S                   0000000140000000     ucrt:api-ms-win-crt-stdio-l1-1-0.dll
 0000:fffd7000       .debug$S                   0000000140000000     ucrt:api-ms-win-crt-stdio-l1-1-0.dll
 0000:fffd7000       .debug$S                   0000000140000000     ucrt:api-ms-win-crt-stdio-l1-1-0.dll
 0000:fffd7000       .debug$S                   0000000140000000     KizuODBC:ODBC32.dll
 0002:fffed000       .idata$6                   0000000140000000     ucrt:api-ms-win-crt-string-l1-1-0.dll
 0000:fffd7000       .debug$S                   0000000140000000     ucrt:api-ms-win-crt-string-l1-1-0.dll
 0000:fffd7000       .debug$S                   0000000140000000     mfc140:mfc140.dll
 0000:fffd7000       .debug$S                   0000000140000000     mfc140:mfc140.dll
 0000:fffd7000       .debug$S                   0000000140000000     mfc140:mfc140.dll
 0000:fffd7000       .debug$S                   0000000140000000     mfc140:mfc140.dll
 0000:fffd7000       .debug$S                   0000000140000000     mfc140:mfc140.dll
 0000:fffd7000       .debug$S                   0000000140000000     mfc140:mfc140.dll
 0000:fffd7000       .debug$S                   0000000140000000     mfc140:mfc140.dll
 0000:fffd7000       .debug$S                   0000000140000000     mfc140:mfc140.dll
 0000:fffd7000       .debug$S                   0000000140000000     mfc140:mfc140.dll
 0000:fffd7000       .debug$S                   0000000140000000     mfc140:mfc140.dll
 0000:fffd7000       .debug$S                   0000000140000000     mfc140:mfc140.dll
 0000:fffd7000       .debug$S                   0000000140000000     ucrt:api-ms-win-crt-time-l1-1-0.dll
 0000:fffd7000       .debug$S                   0000000140000000     vcruntime:VCRUNTIME140.dll
 0000:fffd7000       .debug$S                   0000000140000000     vcruntime:VCRUNTIME140.dll
 0000:fffd7000       .debug$S                   0000000140000000     vcruntime:VCRUNTIME140.dll
 0000:fffd7000       .debug$S                   0000000140000000     KizuODBC:ODBC32.dll
 0000:fffd7000       .debug$S                   0000000140000000     vcruntime:VCRUNTIME140.dll
 0000:fffd7000       .debug$S                   0000000140000000     vcruntime:VCRUNTIME140.dll
 0000:fffd7000       .debug$S                   0000000140000000     vcruntime:VCRUNTIME140.dll
 0000:fffd7000       .debug$S                   0000000140000000     vcruntime:VCRUNTIME140.dll
 0000:fffd7000       .debug$S                   0000000140000000     vcruntime:VCRUNTIME140.dll
 0000:fffd7000       .debug$S                   0000000140000000     vcruntime:VCRUNTIME140.dll
 0000:fffd7000       .debug$S                   0000000140000000     vcruntime:VCRUNTIME140.dll
 0000:fffd7000       .debug$S                   0000000140000000     vcruntime:VCRUNTIME140.dll
 0000:fffd7000       .debug$S                   0000000140000000     vcruntime:VCRUNTIME140.dll
 0000:fffd7000       .debug$S                   0000000140000000     msvcprt:MSVCP140.dll
 0000:fffd7000       .debug$S                   0000000140000000     msvcprt:MSVCP140.dll
 0000:fffd7000       .debug$S                   0000000140000000     msvcprt:MSVCP140.dll
 0000:fffd7000       .debug$S                   0000000140000000     msvcprt:MSVCP140.dll
 0000:fffd7000       .debug$S                   0000000140000000     msvcprt:MSVCP140.dll
 0000:fffd7000       .debug$S                   0000000140000000     KizuODBC:ODBC32.dll
 0000:fffd7000       .debug$S                   0000000140000000     msvcprt:MSVCP140.dll
 0000:fffd7000       .debug$S                   0000000140000000     msvcprt:MSVCP140.dll
 0000:fffd7000       .debug$S                   0000000140000000     msvcprt:MSVCP140.dll
 0000:fffd7000       .debug$S                   0000000140000000     msvcprt:MSVCP140.dll
 0000:fffd7000       .debug$S                   0000000140000000     msvcprt:MSVCP140.dll
 0000:fffd7000       .debug$S                   0000000140000000     msvcprt:MSVCP140.dll
 0000:fffd7000       .debug$S                   0000000140000000     msvcprt:MSVCP140.dll
 0000:fffd7000       .debug$S                   0000000140000000     msvcprt:MSVCP140.dll
 0000:fffd7000       .debug$S                   0000000140000000     msvcprt:MSVCP140.dll
 0000:fffd7000       .debug$S                   0000000140000000     msvcprt:MSVCP140.dll
 0000:fffd7000       .debug$S                   0000000140000000     msvcprt:MSVCP140.dll
 0000:fffd7000       .debug$S                   0000000140000000     msvcprt:MSVCP140.dll
 0000:fffd7000       .debug$S                   0000000140000000     KizuODBC:ODBC32.dll
 0000:fffd7000       .debug$S                   0000000140000000     msvcprt:MSVCP140.dll
 0000:fffd7000       .debug$S                   0000000140000000     msvcprt:MSVCP140.dll
 0000:fffd7000       .debug$S                   0000000140000000     msvcprt:MSVCP140.dll
 0000:fffd7000       .debug$S                   0000000140000000     msvcprt:MSVCP140.dll
 0000:fffd7000       .debug$S                   0000000140000000     msvcprt:MSVCP140.dll
 0000:fffd7000       .debug$S                   0000000140000000     msvcprt:MSVCP140.dll
 0000:fffd7000       .debug$S                   0000000140000000     mfc140:mfc140.dll
 0000:fffd7000       .debug$S                   0000000140000000     mfc140:mfc140.dll
 0000:fffd7000       .debug$S                   0000000140000000     mfc140:mfc140.dll
 0000:fffd7000       .debug$S                   0000000140000000     mfc140:mfc140.dll
 0000:fffd7000       .debug$S                   0000000140000000     mfc140:mfc140.dll
 0000:fffd7000       .debug$S                   0000000140000000     mfc140:mfc140.dll
 0000:fffd7000       .debug$S                   0000000140000000     mfc140:mfc140.dll
 0000:fffd7000       .debug$S                   0000000140000000     mfc140:mfc140.dll
 0000:fffd7000       .debug$S                   0000000140000000     mfc140:mfc140.dll
 0000:fffd7000       .debug$S                   0000000140000000     mfc140:mfc140.dll
 0000:fffd7000       .debug$S                   0000000140000000     mfc140:mfc140.dll
 0000:fffd7000       .debug$S                   0000000140000000     mfc140:mfc140.dll
 0000:fffd7000       .debug$S                   0000000140000000     mfc140:mfc140.dll
 0000:fffd7000       .debug$S                   0000000140000000     mfc140:mfc140.dll
 0000:fffd7000       .debug$S                   0000000140000000     mfc140:mfc140.dll
 0000:fffd7000       .debug$S                   0000000140000000     mfc140:mfc140.dll
 0000:fffd7000       .debug$S                   0000000140000000     mfc140:mfc140.dll
 0000:fffd7000       .debug$S                   0000000140000000     mfc140:mfc140.dll
 0000:fffd7000       .debug$S                   0000000140000000     mfc140:mfc140.dll
 0000:fffd7000       .debug$S                   0000000140000000     mfc140:mfc140.dll
 0000:fffd7000       .debug$S                   0000000140000000     mfc140:mfc140.dll
 0000:fffd7000       .debug$S                   0000000140000000     mfc140:mfc140.dll
 0000:fffd7000       .debug$S                   0000000140000000     mfc140:mfc140.dll
 0000:fffd7000       .debug$S                   0000000140000000     msvcprt:MSVCP140.dll
 0000:fffd7000       .debug$S                   0000000140000000     msvcprt:MSVCP140.dll
 0000:fffd7000       .debug$S                   0000000140000000     KizuODBC:ODBC32.dll
 0000:fffd7000       .debug$S                   0000000140000000     msvcprt:MSVCP140.dll
 0000:fffd7000       .debug$S                   0000000140000000     msvcprt:MSVCP140.dll
 0000:fffd7000       .debug$S                   0000000140000000     msvcprt:MSVCP140.dll
 0000:fffd7000       .debug$S                   0000000140000000     msvcprt:MSVCP140.dll
 0000:fffd7000       .debug$S                   0000000140000000     msvcprt:MSVCP140.dll
 0000:fffd7000       .debug$S                   0000000140000000     msvcprt:MSVCP140.dll
 0000:fffd7000       .debug$S                   0000000140000000     msvcprt:MSVCP140.dll
 0000:fffd7000       .debug$S                   0000000140000000     msvcprt:MSVCP140.dll
 0000:fffd7000       .debug$S                   0000000140000000     msvcprt:MSVCP140.dll
 0000:fffd7000       .debug$S                   0000000140000000     msvcprt:MSVCP140.dll
 0000:fffd7000       .debug$S                   0000000140000000     KizuODBC:ODBC32.dll
 0000:fffd7000       .debug$S                   0000000140000000     msvcprt:MSVCP140.dll
 0000:fffd7000       .debug$S                   0000000140000000     msvcprt:MSVCP140.dll
 0000:fffd7000       .debug$S                   0000000140000000     msvcprt:MSVCP140.dll
 0000:fffd7000       .debug$S                   0000000140000000     msvcprt:MSVCP140.dll
 0000:fffd7000       .debug$S                   0000000140000000     msvcprt:MSVCP140.dll
 0000:fffd7000       .debug$S                   0000000140000000     msvcprt:MSVCP140.dll
 0000:fffd7000       .debug$S                   0000000140000000     msvcprt:MSVCP140.dll
 0000:fffd7000       .debug$S                   0000000140000000     msvcprt:MSVCP140.dll
 0000:fffd7000       .debug$S                   0000000140000000     msvcprt:MSVCP140.dll
 0000:fffd7000       .debug$S                   0000000140000000     msvcprt:MSVCP140.dll
 0000:fffd7000       .debug$S                   0000000140000000     msvcprt:MSVCP140.dll
 0000:fffd7000       .debug$S                   0000000140000000     msvcprt:MSVCP140.dll
 0000:fffd7000       .debug$S                   0000000140000000     msvcprt:MSVCP140.dll
 0000:fffd7000       .debug$S                   0000000140000000     msvcprt:MSVCP140.dll
 0000:fffd7000       .debug$S                   0000000140000000     msvcprt:MSVCP140.dll
 0000:fffd7000       .debug$S                   0000000140000000     msvcprt:MSVCP140.dll
 0000:fffd7000       .debug$S                   0000000140000000     KizuODBC:ODBC32.dll
 0000:fffd7000       .debug$S                   0000000140000000     msvcprt:MSVCP140.dll
 0000:fffd7000       .debug$S                   0000000140000000     msvcprt:MSVCP140.dll
 0000:fffd7000       .debug$S                   0000000140000000     msvcprt:MSVCP140.dll
 0000:fffd7000       .debug$S                   0000000140000000     msvcprt:MSVCP140.dll
 0000:fffd7000       .debug$S                   0000000140000000     mfc140:mfc140.dll
 0000:fffd7000       .debug$S                   0000000140000000     mfc140:mfc140.dll
 0000:fffd7000       .debug$S                   0000000140000000     mfc140:mfc140.dll
 0000:fffd7000       .debug$S                   0000000140000000     mfc140:mfc140.dll
 0000:fffd7000       .debug$S                   0000000140000000     KizuODBC:ODBC32.dll
 0002:fffed000       .idata$6                   0000000140000000     oleaut32:OLEAUT32.dll
 0000:fffd7000       .debug$S                   0000000140000000     oleaut32:OLEAUT32.dll
 0000:fffd7000       .debug$S                   0000000140000000     mfc140:mfc140.dll
 0000:fffd7000       .debug$S                   0000000140000000     mfc140:mfc140.dll
 0000:fffd7000       .debug$S                   0000000140000000     KizuODBC:ODBC32.dll
 0000:fffd7000       .debug$S                   0000000140000000     mfc140:mfc140.dll
 0000:fffd7000       .debug$S                   0000000140000000     comctl32:COMCTL32.dll
 0000:fffd7000       .debug$S                   0000000140000000     user32:USER32.dll
 0000:fffd7000       .debug$S                   0000000140000000     user32:USER32.dll
 0000:fffd7000       .debug$S                   0000000140000000     KizuODBC:ODBC32.dll
 0000:fffd7000       .debug$S                   0000000140000000     user32:USER32.dll
 0000:fffd7000       .debug$S                   0000000140000000     user32:USER32.dll
 0000:fffd7000       .debug$S                   0000000140000000     user32:USER32.dll
 0000:fffd7000       .debug$S                   0000000140000000     user32:USER32.dll
 0000:fffd7000       .debug$S                   0000000140000000     user32:USER32.dll
 0000:fffd7000       .debug$S                   0000000140000000     user32:USER32.dll
 0000:fffd7000       .debug$S                   0000000140000000     user32:USER32.dll
 0000:fffd7000       .debug$S                   0000000140000000     user32:USER32.dll
 0000:fffd7000       .debug$S                   0000000140000000     user32:USER32.dll
 0000:fffd7000       .debug$S                   0000000140000000     user32:USER32.dll
 0000:fffd7000       .debug$S                   0000000140000000     KizuODBC:ODBC32.dll
 0000:fffd7000       .debug$S                   0000000140000000     user32:USER32.dll
 0000:fffd7000       .debug$S                   0000000140000000     user32:USER32.dll
 0000:fffd7000       .debug$S                   0000000140000000     user32:USER32.dll
 0000:fffd7000       .debug$S                   0000000140000000     user32:USER32.dll
 0000:fffd7000       .debug$S                   0000000140000000     kernel32:KERNEL32.dll
 0000:fffd7000       .debug$S                   0000000140000000     kernel32:KERNEL32.dll
 0000:fffd7000       .debug$S                   0000000140000000     kernel32:KERNEL32.dll
 0000:fffd7000       .debug$S                   0000000140000000     kernel32:KERNEL32.dll
 0000:fffd7000       .debug$S                   0000000140000000     KizuODBC:ODBC32.dll
 0000:fffd7000       .debug$S                   0000000140000000     kernel32:KERNEL32.dll
 0000:fffd7000       .debug$S                   0000000140000000     kernel32:KERNEL32.dll
 0000:fffd7000       .debug$S                   0000000140000000     kernel32:KERNEL32.dll
 0000:fffd7000       .debug$S                   0000000140000000     kernel32:KERNEL32.dll
 0000:fffd7000       .debug$S                   0000000140000000     kernel32:KERNEL32.dll
 0000:fffd7000       .debug$S                   0000000140000000     kernel32:KERNEL32.dll
 0000:fffd7000       .debug$S                   0000000140000000     KizuODBC:ODBC32.dll
 0000:fffd7000       .debug$S                   0000000140000000     kernel32:KERNEL32.dll
 0000:fffd7000       .debug$S                   0000000140000000     kernel32:KERNEL32.dll
 0000:fffd7000       .debug$S                   0000000140000000     mfc140:mfc140.dll
 0000:fffd7000       .debug$S                   0000000140000000     mfc140:mfc140.dll
 0000:fffd7000       .debug$S                   0000000140000000     mfc140:mfc140.dll
 0000:fffd7000       .debug$S                   0000000140000000     mfc140:mfc140.dll
 0000:fffd7000       .debug$S                   0000000140000000     mfc140:mfc140.dll
 0000:fffd7000       .debug$S                   0000000140000000     mfc140:mfc140.dll
 0000:fffd7000       .debug$S                   0000000140000000     mfc140:mfc140.dll
 0000:fffd7000       .debug$S                   0000000140000000     mfc140:mfc140.dll
 0000:fffd7000       .debug$S                   0000000140000000     mfc140:mfc140.dll
 0000:fffd7000       .debug$S                   0000000140000000     kernel32:KERNEL32.dll
 0000:fffd7000       .debug$S                   0000000140000000     kernel32:KERNEL32.dll
 0000:fffd7000       .debug$S                   0000000140000000     KizuODBC:ODBC32.dll
 0000:fffd7000       .debug$S                   0000000140000000     kernel32:KERNEL32.dll
 0000:fffd7000       .debug$S                   0000000140000000     kernel32:KERNEL32.dll
 0000:fffd7000       .debug$S                   0000000140000000     kernel32:KERNEL32.dll
 0000:fffd7000       .debug$S                   0000000140000000     kernel32:KERNEL32.dll
 0000:fffd7000       .debug$S                   0000000140000000     KizuODBC:ODBC32.dll
 0000:fffd7000       .debug$S                   0000000140000000     kernel32:KERNEL32.dll
 0000:fffd7000       .debug$S                   0000000140000000     kernel32:KERNEL32.dll
 0000:fffd7000       .debug$S                   0000000140000000     kernel32:KERNEL32.dll
 0000:fffd7000       .debug$S                   0000000140000000     kernel32:KERNEL32.dll
 0000:fffd7000       .debug$S                   0000000140000000     mfc140:mfc140.dll
 0000:fffd7000       .debug$S                   0000000140000000     kernel32:KERNEL32.dll
 0000:fffd7000       .debug$S                   0000000140000000     kernel32:KERNEL32.dll
 0000:fffd7000       .debug$S                   0000000140000000     kernel32:KERNEL32.dll
 0000:fffd7000       .debug$S                   0000000140000000     kernel32:KERNEL32.dll
 0000:fffd7000       .debug$S                   0000000140000000     kernel32:KERNEL32.dll
 0000:fffd7000       .debug$S                   0000000140000000     kernel32:KERNEL32.dll
 0000:fffd7000       .debug$S                   0000000140000000     kernel32:KERNEL32.dll
 0000:fffd7000       .debug$S                   0000000140000000     kernel32:KERNEL32.dll
 0000:fffd7000       .debug$S                   0000000140000000     mfc140:mfc140.dll
 0000:fffd7000       .debug$S                   0000000140000000     kernel32:KERNEL32.dll
 0000:fffd7000       .debug$S                   0000000140000000     kernel32:KERNEL32.dll
 0000:fffd7000       .debug$S                   0000000140000000     kernel32:KERNEL32.dll
 0000:fffd7000       .debug$S                   0000000140000000     kernel32:KERNEL32.dll
 0000:fffd7000       .debug$S                   0000000140000000     kernel32:KERNEL32.dll
 0000:fffd7000       .debug$S                   0000000140000000     kernel32:KERNEL32.dll
 0000:fffd7000       .debug$S                   0000000140000000     mfc140:mfc140.dll
 0000:fffd7000       .debug$S                   0000000140000000     kernel32:KERNEL32.dll
 0000:fffd7000       .debug$S                   0000000140000000     kernel32:KERNEL32.dll
 0000:fffd7000       .debug$S                   0000000140000000     mfc140:mfc140.dll
 0000:fffd7000       .debug$S                   0000000140000000     mfc140:mfc140.dll
 0000:fffd7000       .debug$S                   0000000140000000     mfc140:mfc140.dll
 0000:fffd7000       .debug$S                   0000000140000000     mfc140:mfc140.dll
 0000:fffd7000       .debug$S                   0000000140000000     mfc140:mfc140.dll
 0000:fffd7000       .debug$S                   0000000140000000     mfc140:mfc140.dll
 0000:fffd7000       .debug$S                   0000000140000000     mfc140:mfc140.dll
 0000:fffd7000       .debug$S                   0000000140000000     mfc140:mfc140.dll
 0000:fffd7000       .debug$S                   0000000140000000     mfc140:mfc140.dll
 0000:fffd7000       .debug$S                   0000000140000000     mfc140:mfc140.dll
 0000:fffd7000       .debug$S                   0000000140000000     mfc140:mfc140.dll
 0000:fffd7000       .debug$S                   0000000140000000     kernel32:KERNEL32.dll
 0000:fffd7000       .debug$S                   0000000140000000     kernel32:KERNEL32.dll
 0000:fffd7000       .debug$S                   0000000140000000     kernel32:KERNEL32.dll
 0000:fffd7000       .debug$S                   0000000140000000     kernel32:KERNEL32.dll
 0000:fffd7000       .debug$S                   0000000140000000     kernel32:KERNEL32.dll
 0000:fffd7000       .debug$S                   0000000140000000     kernel32:KERNEL32.dll
 0000:fffd7000       .debug$S                   0000000140000000     kernel32:KERNEL32.dll
 0000:fffd7000       .debug$S                   0000000140000000     kernel32:KERNEL32.dll
 0000:fffd7000       .debug$S                   0000000140000000     kernel32:KERNEL32.dll
 0000:fffd7000       .debug$S                   0000000140000000     kernel32:KERNEL32.dll
 0000:fffd7000       .debug$S                   0000000140000000     kernel32:KERNEL32.dll
 0000:fffd7000       .debug$S                   0000000140000000     kernel32:KERNEL32.dll
 0000:fffd7000       .debug$S                   0000000140000000     kernel32:KERNEL32.dll
 0000:fffd7000       .debug$S                   0000000140000000     kernel32:KERNEL32.dll
 0000:fffd7000       .debug$S                   0000000140000000     kernel32:KERNEL32.dll
 0000:fffd7000       .debug$S                   0000000140000000     kernel32:KERNEL32.dll
 0000:fffd7000       .debug$S                   0000000140000000     kernel32:KERNEL32.dll
 0000:fffd7000       .debug$S                   0000000140000000     kernel32:KERNEL32.dll
 0000:fffd7000       .debug$S                   0000000140000000     mfc140:mfc140.dll
 0000:fffd7000       .debug$S                   0000000140000000     kernel32:KERNEL32.dll
 0000:fffd7000       .debug$S                   0000000140000000     kernel32:KERNEL32.dll
 0000:fffd7000       .debug$S                   0000000140000000     kernel32:KERNEL32.dll
 0000:fffd7000       .debug$S                   0000000140000000     mfc140:mfc140.dll
 0000:fffd7000       .debug$S                   0000000140000000     kernel32:KERNEL32.dll
 0000:fffd7000       .debug$S                   0000000140000000     kernel32:KERNEL32.dll
 0000:fffd7000       .debug$S                   0000000140000000     kernel32:KERNEL32.dll
 0000:fffd7000       .debug$S                   0000000140000000     kernel32:KERNEL32.dll
 0000:fffd7000       .debug$S                   0000000140000000     kernel32:KERNEL32.dll
 0000:fffd7000       .debug$S                   0000000140000000     kernel32:KERNEL32.dll
 0000:fffd7000       .debug$S                   0000000140000000     kernel32:KERNEL32.dll
 0000:fffd7000       .debug$S                   0000000140000000     kernel32:KERNEL32.dll
 0000:fffd7000       .debug$S                   0000000140000000     kernel32:KERNEL32.dll
 0000:fffd7000       .debug$S                   0000000140000000     kernel32:KERNEL32.dll
 0000:fffd7000       .debug$S                   0000000140000000     kernel32:KERNEL32.dll
 0000:fffd7000       .debug$S                   0000000140000000     kernel32:KERNEL32.dll
 0000:fffd7000       .debug$S                   0000000140000000     kernel32:KERNEL32.dll
 0000:fffd7000       .debug$S                   0000000140000000     kernel32:KERNEL32.dll
 0000:fffd7000       .debug$S                   0000000140000000     mfc140:mfc140.dll
 0000:fffd7000       .debug$S                   0000000140000000     kernel32:KERNEL32.dll
 0000:fffd7000       .debug$S                   0000000140000000     kernel32:KERNEL32.dll
 0000:fffd7000       .debug$S                   0000000140000000     mfc140:mfc140.dll
 0000:fffd7000       .debug$S                   0000000140000000     mfc140:mfc140.dll
 0000:fffd7000       .debug$S                   0000000140000000     mfc140:mfc140.dll
 0000:fffd7000       .debug$S                   0000000140000000     mfc140:mfc140.dll
 0000:fffd7000       .debug$S                   0000000140000000     mfc140:mfc140.dll
 0000:fffd7000       .debug$S                   0000000140000000     mfc140:mfc140.dll
 0000:fffd7000       .debug$S                   0000000140000000     mfc140:mfc140.dll
 0000:fffd7000       .debug$S                   0000000140000000     mfc140:mfc140.dll
 0000:fffd7000       .debug$S                   0000000140000000     mfc140:mfc140.dll
 0000:fffd7000       .debug$S                   0000000140000000     mfc140:mfc140.dll
 0000:fffd7000       .debug$S                   0000000140000000     mfc140:mfc140.dll
 0000:fffd7000       .debug$S                   0000000140000000     mfc140:mfc140.dll
 0000:fffd7000       .debug$S                   0000000140000000     mfc140:mfc140.dll
 0000:fffd7000       .debug$S                   0000000140000000     mfc140:mfc140.dll
 0000:fffd7000       .debug$S                   0000000140000000     mfc140:mfc140.dll
 0000:fffd7000       .debug$S                   0000000140000000     mfc140:mfc140.dll
 0000:fffd7000       .debug$S                   0000000140000000     mfc140:mfc140.dll
 0000:fffd7000       .debug$S                   0000000140000000     mfc140:mfc140.dll
 0000:fffd7000       .debug$S                   0000000140000000     mfc140:mfc140.dll
 0000:fffd7000       .debug$S                   0000000140000000     mfc140:mfc140.dll
 0000:fffd7000       .debug$S                   0000000140000000     mfc140:mfc140.dll
 0000:fffd7000       .debug$S                   0000000140000000     mfc140:mfc140.dll
 0000:fffd7000       .debug$S                   0000000140000000     mfc140:mfc140.dll
 0000:fffd7000       .debug$S                   0000000140000000     mfc140:mfc140.dll
 0000:fffd7000       .debug$S                   0000000140000000     mfc140:mfc140.dll
 0000:fffd7000       .debug$S                   0000000140000000     mfc140:mfc140.dll
 0000:fffd7000       .debug$S                   0000000140000000     mfc140:mfc140.dll
 0000:fffd7000       .debug$S                   0000000140000000     mfc140:mfc140.dll
 0000:fffd7000       .debug$S                   0000000140000000     mfc140:mfc140.dll
 0000:fffd7000       .debug$S                   0000000140000000     mfc140:mfc140.dll
 0000:fffd7000       .debug$S                   0000000140000000     mfc140:mfc140.dll
 0000:fffd7000       .debug$S                   0000000140000000     mfc140:mfc140.dll
 0000:fffd7000       .debug$S                   0000000140000000     mfc140:mfc140.dll
 0000:fffd7000       .debug$S                   0000000140000000     mfc140:mfc140.dll
 0000:fffd7000       .debug$S                   0000000140000000     mfc140:mfc140.dll
 0000:fffd7000       .debug$S                   0000000140000000     mfc140:mfc140.dll
 0000:fffd7000       .debug$S                   0000000140000000     mfc140:mfc140.dll
 0000:fffd7000       .debug$S                   0000000140000000     mfc140:mfc140.dll
 0000:fffd7000       .debug$S                   0000000140000000     mfc140:mfc140.dll
 0000:fffd7000       .debug$S                   0000000140000000     mfc140:mfc140.dll
 0000:fffd7000       .debug$S                   0000000140000000     mfc140:mfc140.dll
 0000:fffd7000       .debug$S                   0000000140000000     mfc140:mfc140.dll
 0000:fffd7000       .debug$S                   0000000140000000     mfc140:mfc140.dll
 0000:fffd7000       .debug$S                   0000000140000000     mfc140:mfc140.dll
 0000:fffd7000       .debug$S                   0000000140000000     mfc140:mfc140.dll
 0000:fffd7000       .debug$S                   0000000140000000     mfc140:mfc140.dll
 0000:fffd7000       .debug$S                   0000000140000000     mfc140:mfc140.dll
 0000:fffd7000       .debug$S                   0000000140000000     mfc140:mfc140.dll
 0000:fffd7000       .debug$S                   0000000140000000     mfc140:mfc140.dll
 0000:fffd7000       .debug$S                   0000000140000000     mfc140:mfc140.dll
 0000:fffd7000       .debug$S                   0000000140000000     mfc140:mfc140.dll
 0000:fffd7000       .debug$S                   0000000140000000     mfc140:mfc140.dll
 0000:fffd7000       .debug$S                   0000000140000000     mfc140:mfc140.dll
 0000:fffd7000       .debug$S                   0000000140000000     mfc140:mfc140.dll
 0000:fffd7000       .debug$S                   0000000140000000     mfc140:mfc140.dll
 0000:fffd7000       .debug$S                   0000000140000000     mfc140:mfc140.dll
 0000:fffd7000       .debug$S                   0000000140000000     mfc140:mfc140.dll
 0000:fffd7000       .debug$S                   0000000140000000     mfc140:mfc140.dll
 0000:fffd7000       .debug$S                   0000000140000000     mfc140:mfc140.dll
 0000:fffd7000       .debug$S                   0000000140000000     mfc140:mfc140.dll
 0000:fffd7000       .debug$S                   0000000140000000     mfc140:mfc140.dll
 0000:fffd7000       .debug$S                   0000000140000000     mfc140:mfc140.dll
 0000:fffd7000       .debug$S                   0000000140000000     mfc140:mfc140.dll
 0000:fffd7000       .debug$S                   0000000140000000     mfc140:mfc140.dll
 0000:fffd7000       .debug$S                   0000000140000000     mfc140:mfc140.dll
 0000:fffd7000       .debug$S                   0000000140000000     mfc140:mfc140.dll
 0000:fffd7000       .debug$S                   0000000140000000     mfc140:mfc140.dll
 0000:fffd7000       .debug$S                   0000000140000000     mfc140:mfc140.dll
 0000:fffd7000       .debug$S                   0000000140000000     mfc140:mfc140.dll
 0000:fffd7000       .debug$S                   0000000140000000     mfc140:mfc140.dll
 0000:fffd7000       .debug$S                   0000000140000000     mfc140:mfc140.dll
 0000:fffd7000       .debug$S                   0000000140000000     mfc140:mfc140.dll
 0000:fffd7000       .debug$S                   0000000140000000     mfc140:mfc140.dll
 0000:fffd7000       .debug$S                   0000000140000000     mfc140:mfc140.dll
 0000:fffd7000       .debug$S                   0000000140000000     mfc140:mfc140.dll
 0000:fffd7000       .debug$S                   0000000140000000     mfc140:mfc140.dll
 0000:fffd7000       .debug$S                   0000000140000000     mfc140:mfc140.dll
 0000:fffd7000       .debug$S                   0000000140000000     mfc140:mfc140.dll
 0000:fffd7000       .debug$S                   0000000140000000     mfc140:mfc140.dll
 0000:fffd7000       .debug$S                   0000000140000000     mfc140:mfc140.dll
 0000:fffd7000       .debug$S                   0000000140000000     mfc140:mfc140.dll
 0000:fffd7000       .debug$S                   0000000140000000     mfc140:mfc140.dll
 0000:fffd7000       .debug$S                   0000000140000000     mfc140:mfc140.dll
 0000:fffd7000       .debug$S                   0000000140000000     mfc140:mfc140.dll
 0000:fffd7000       .debug$S                   0000000140000000     mfc140:mfc140.dll
 0000:fffd7000       .debug$S                   0000000140000000     mfc140:mfc140.dll
 0000:fffd7000       .debug$S                   0000000140000000     mfc140:mfc140.dll
 0000:fffd7000       .debug$S                   0000000140000000     mfc140:mfc140.dll
 0000:fffd7000       .debug$S                   0000000140000000     mfc140:mfc140.dll
 0000:fffd7000       .debug$S                   0000000140000000     mfc140:mfc140.dll
 0000:fffd7000       .debug$S                   0000000140000000     mfc140:mfc140.dll
 0000:fffd7000       .debug$S                   0000000140000000     mfc140:mfc140.dll
 0000:fffd7000       .debug$S                   0000000140000000     mfc140:mfc140.dll
 0000:fffd7000       .debug$S                   0000000140000000     mfc140:mfc140.dll
 0000:fffd7000       .debug$S                   0000000140000000     mfc140:mfc140.dll
 0000:fffd7000       .debug$S                   0000000140000000     mfc140:mfc140.dll
 0000:fffd7000       .debug$S                   0000000140000000     mfc140:mfc140.dll
 0000:fffd7000       .debug$S                   0000000140000000     mfc140:mfc140.dll
 0000:fffd7000       .debug$S                   0000000140000000     mfc140:mfc140.dll
 0000:fffd7000       .debug$S                   0000000140000000     mfc140:mfc140.dll
 0000:fffd7000       .debug$S                   0000000140000000     mfc140:mfc140.dll
 0000:fffd7000       .debug$S                   0000000140000000     mfc140:mfc140.dll
 0000:fffd7000       .debug$S                   0000000140000000     mfc140:mfc140.dll
 0000:fffd7000       .debug$S                   0000000140000000     mfc140:mfc140.dll
 0000:fffd7000       .debug$S                   0000000140000000     mfc140:mfc140.dll
 0000:fffd7000       .debug$S                   0000000140000000     mfc140:mfc140.dll
 0000:fffd7000       .debug$S                   0000000140000000     mfc140:mfc140.dll
 0000:fffd7000       .debug$S                   0000000140000000     mfc140:mfc140.dll
 0000:fffd7000       .debug$S                   0000000140000000     mfc140:mfc140.dll
 0000:fffd7000       .debug$S                   0000000140000000     mfc140:mfc140.dll
 0000:fffd7000       .debug$S                   0000000140000000     mfc140:mfc140.dll
 0000:fffd7000       .debug$S                   0000000140000000     mfc140:mfc140.dll
 0000:fffd7000       .debug$S                   0000000140000000     mfc140:mfc140.dll
 0000:fffd7000       .debug$S                   0000000140000000     mfc140:mfc140.dll
 0000:fffd7000       .debug$S                   0000000140000000     mfc140:mfc140.dll
 0001:00000000       ??__EtheApp@@YAXXZ         0000000140001000 f   TI_DELETE.obj
 0001:00000040       ??__E?m_inst@OdbcEnv@KizuODBC@@0V12@A@@YAXXZ 0000000140001040 f   KizuODBC:OdbcEnv.obj
 0001:0000005c       ??__E_AtlBaseModule@ATL@@YAXXZ 000000014000105c f   atls:atlbase.obj
 0001:0000007c       ??__E_Fac_tidy_reg@std@@YAXXZ 000000014000107c f   msvcprt:locale0_implib.obj
 0001:00000088       ??__E_afxInitAppState@@YAXXZ 0000000140001088 f   mfcs140:appmodul.obj
 0001:00002d30       ?GetThreadNameArray@@YA?AV?$CStringT@DV?$StrTraitMFC_DLL@DV?$ChTraitsCRT@D@ATL@@@@@ATL@@PEADH@Z 0000000140003d30 f   DefragManager.obj
 0001:00004290       ?GetThreadNameArray@@YA?AV?$CStringT@DV?$StrTraitMFC_DLL@DV?$ChTraitsCRT@D@ATL@@@@@ATL@@PEADH@Z 0000000140005290 f   DeleLowGr.obj
 0001:0000f750       $$000000                   0000000140010750     msvcrt:_amdsecgs_.obj
 0001:0000f900       ?__scrt_initialize_thread_safe_statics@@YAHXZ 0000000140010900 f   msvcrt:thread_safe_statics.obj
 0001:0000fa20       ?__scrt_uninitialize_thread_safe_statics@@YAXXZ 0000000140010a20 f   msvcrt:thread_safe_statics.obj
 0001:0000fcf0       ?pre_c_initialization@@YAHXZ 0000000140010cf0 f   msvcrt:exe_winmain.obj
 0001:0000fdac       ?post_pgo_initialization@@YAHXZ 0000000140010dac f   msvcrt:exe_winmain.obj
 0001:0000fdbc       ?pre_cpp_initialization@@YAXXZ 0000000140010dbc f   msvcrt:exe_winmain.obj
 0001:0000fdd8       ?__scrt_common_main_seh@@YAHXZ 0000000140010dd8 f   msvcrt:exe_winmain.obj
 0001:00010060       capture_previous_context   0000000140011060 f   msvcrt:gs_report.obj
 0001:00010a20       $$000000                   0000000140011a20     msvcrt:_chkstk_.obj
 0001:00010a90       $$000000                   0000000140011a90     msvcrt:_guard_dispatch_.obj
 0001:00010ab0       ?dtor$0@?0??Exec@ControlDefragManager@@AEAAXXZ@4HA 0000000140011ab0 f   ControlDefragManager.obj
 0001:00010ac0       ?dtor$0@?0???0ControlLowGr@@QEAA@XZ@4HA 0000000140011ac0 f   ControlLowGr.obj
 0001:00010acc       ?dtor$1@?0???0ControlLowGr@@QEAA@XZ@4HA 0000000140011acc f   ControlLowGr.obj
 0001:00010ae1       ?dtor$2@?0???0ControlLowGr@@QEAA@XZ@4HA 0000000140011ae1 f   ControlLowGr.obj
 0001:00010af4       ?dtor$3@?0???0ControlLowGr@@QEAA@XZ@4HA 0000000140011af4 f   ControlLowGr.obj
 0001:00010b02       ?dtor$4@?0???0ControlLowGr@@QEAA@XZ@4HA 0000000140011b02 f   ControlLowGr.obj
 0001:00010b10       ?dtor$6@?0???0ControlLowGr@@QEAA@XZ@4HA 0000000140011b10 f   ControlLowGr.obj
 0001:00010b1e       ?dtor$7@?0???0ControlLowGr@@QEAA@XZ@4HA 0000000140011b1e f   ControlLowGr.obj
 0001:00010b2c       ?dtor$8@?0???0ControlLowGr@@QEAA@XZ@4HA 0000000140011b2c f   ControlLowGr.obj
 0001:00010b3a       ?dtor$9@?0???0ControlLowGr@@QEAA@XZ@4HA 0000000140011b3a f   ControlLowGr.obj
 0001:00010b50       ?dtor$0@?0??WorkerInit@ControlLowGr@@QEAAXXZ@4HA 0000000140011b50 f   ControlLowGr.obj
 0001:00010b70       ?dtor$0@?0??CheckDeleListItem@ControlLowGr@@AEAA_NXZ@4HA 0000000140011b70 f   ControlLowGr.obj
 0001:00010b80       ?dtor$0@?0??BackUpDeleListItem@ControlLowGr@@AEAA_NXZ@4HA 0000000140011b80 f   ControlLowGr.obj
 0001:00010b8e       ?dtor$1@?0??BackUpDeleListItem@ControlLowGr@@AEAA_NXZ@4HA 0000000140011b8e f   ControlLowGr.obj
 0001:00010b9a       ?dtor$2@?0??BackUpDeleListItem@ControlLowGr@@AEAA_NXZ@4HA 0000000140011b9a f   ControlLowGr.obj
 0001:00010bb0       ?dtor$0@?0???0ControlManager@@QEAA@PEADPEAVLogFileManager@KizuLib@@@Z@4HA 0000000140011bb0 f   ControlManager.obj
 0001:00010bbc       ?dtor$1@?0???0ControlManager@@QEAA@PEADPEAVLogFileManager@KizuLib@@@Z@4HA 0000000140011bbc f   ControlManager.obj
 0001:00010bcf       ?dtor$2@?0???0ControlManager@@QEAA@PEADPEAVLogFileManager@KizuLib@@@Z@4HA 0000000140011bcf f   ControlManager.obj
 0001:00010be4       ?dtor$3@?0???0ControlManager@@QEAA@PEADPEAVLogFileManager@KizuLib@@@Z@4HA 0000000140011be4 f   ControlManager.obj
 0001:00010bf9       ?dtor$4@?0???0ControlManager@@QEAA@PEADPEAVLogFileManager@KizuLib@@@Z@4HA 0000000140011bf9 f   ControlManager.obj
 0001:00010c10       ?dtor$0@?0??WorkerInit@ControlManager@@QEAAXXZ@4HA 0000000140011c10 f   ControlManager.obj
 0001:00010c30       ?dtor$1@?0??WorkerInit@ControlManager@@QEAAXXZ@4HA 0000000140011c30 f   ControlManager.obj
 0001:00010c3e       ?dtor$3@?0??WorkerInit@ControlManager@@QEAAXXZ@4HA 0000000140011c3e f   ControlManager.obj
 0001:00010c5e       ?dtor$4@?0??WorkerInit@ControlManager@@QEAAXXZ@4HA 0000000140011c5e f   ControlManager.obj
 0001:00010c70       ?dtor$0@?0??Delete_OldInf@KizuDeleteManager@@IEAA_NPEBD00H0@Z@4HA 0000000140011c70 f   KizuDeleteManager.obj
 0001:00010c70       ?dtor$0@?0??GetDB_Size@ControlManager@@AEAAHXZ@4HA 0000000140011c70 f   ControlManager.obj
 0001:00010c7e       ?dtor$1@?0??GetDB_Size@ControlManager@@AEAAHXZ@4HA 0000000140011c7e f   ControlManager.obj
 0001:00010c7e       ?dtor$1@?0??Delete_OldInf@KizuDeleteManager@@IEAA_NPEBD00H0@Z@4HA 0000000140011c7e f   KizuDeleteManager.obj
 0001:00010c90       ?dtor$0@?0??GetThreadNameArray@@YA?AV?$CStringT@DV?$StrTraitMFC_DLL@DV?$ChTraitsCRT@D@ATL@@@@@ATL@@PEADH@Z@4HA 0000000140011c90 f   DeleLowGr.obj
 0001:00010c90       ?dtor$0@?0??GetThreadNameArray@@YA?AV?$CStringT@DV?$StrTraitMFC_DLL@DV?$ChTraitsCRT@D@ATL@@@@@ATL@@PEADH@Z@4HA 0000000140011c90 f   DefragManager.obj
 0001:00010cc0       ?dtor$0@?0???0DefragManager@@QEAA@HPEAD@Z@4HA 0000000140011cc0 f   DefragManager.obj
 0001:00010cce       ?dtor$1@?0???0DefragManager@@QEAA@HPEAD@Z@4HA 0000000140011cce f   DefragManager.obj
 0001:00010cda       ?dtor$2@?0???0DefragManager@@QEAA@HPEAD@Z@4HA 0000000140011cda f   DefragManager.obj
 0001:00010cef       ?dtor$3@?0???0DefragManager@@QEAA@HPEAD@Z@4HA 0000000140011cef f   DefragManager.obj
 0001:00010d04       ?dtor$4@?0???0DefragManager@@QEAA@HPEAD@Z@4HA 0000000140011d04 f   DefragManager.obj
 0001:00010d12       ?dtor$5@?0???0DefragManager@@QEAA@HPEAD@Z@4HA 0000000140011d12 f   DefragManager.obj
 0001:00010d20       ?dtor$6@?0???0DefragManager@@QEAA@HPEAD@Z@4HA 0000000140011d20 f   DefragManager.obj
 0001:00010d30       ?dtor$0@?0??Exec@DefragManager@@AEAAXXZ@4HA 0000000140011d30 f   DefragManager.obj
 0001:00010d40       ?dtor$0@?0??GetIndexTables@DefragManager@@AEAA_NPEBDPEAV?$vector@V?$CStringT@DV?$StrTraitMFC_DLL@DV?$ChTraitsCRT@D@ATL@@@@@ATL@@V?$allocator@V?$CStringT@DV?$StrTraitMFC_DLL@DV?$ChTraitsCRT@D@ATL@@@@@ATL@@@std@@@std@@@Z@4HA 0000000140011d40 f   DefragManager.obj
 0001:00010d4e       ?dtor$1@?0??GetIndexTables@DefragManager@@AEAA_NPEBDPEAV?$vector@V?$CStringT@DV?$StrTraitMFC_DLL@DV?$ChTraitsCRT@D@ATL@@@@@ATL@@V?$allocator@V?$CStringT@DV?$StrTraitMFC_DLL@DV?$ChTraitsCRT@D@ATL@@@@@ATL@@@std@@@std@@@Z@4HA 0000000140011d4e f   DefragManager.obj
 0001:00010d5a       ?dtor$2@?0??GetIndexTables@DefragManager@@AEAA_NPEBDPEAV?$vector@V?$CStringT@DV?$StrTraitMFC_DLL@DV?$ChTraitsCRT@D@ATL@@@@@ATL@@V?$allocator@V?$CStringT@DV?$StrTraitMFC_DLL@DV?$ChTraitsCRT@D@ATL@@@@@ATL@@@std@@@std@@@Z@4HA 0000000140011d5a f   DefragManager.obj
 0001:00010d70       ?dtor$0@?0??ExecDefrag@DefragManager@@AEAAHPEBD0@Z@4HA 0000000140011d70 f   DefragManager.obj
 0001:00010d7e       ?dtor$1@?0??ExecDefrag@DefragManager@@AEAAHPEBD0@Z@4HA 0000000140011d7e f   DefragManager.obj
 0001:00010d8a       ?dtor$2@?0??ExecDefrag@DefragManager@@AEAAHPEBD0@Z@4HA 0000000140011d8a f   DefragManager.obj
 0001:00010da0       ?dtor$74@?0??push_back@?$vector@V?$CStringT@DV?$StrTraitMFC_DLL@DV?$ChTraitsCRT@D@ATL@@@@@ATL@@V?$allocator@V?$CStringT@DV?$StrTraitMFC_DLL@DV?$ChTraitsCRT@D@ATL@@@@@ATL@@@std@@@std@@QEAAX$$QEAV?$CStringT@DV?$StrTraitMFC_DLL@DV?$ChTraitsCRT@D@ATL@@@@@ATL@@@Z@4HA 0000000140011da0 f   DefragManager.obj
 0001:00010dbc       ?dtor$139@?0??push_back@?$vector@V?$CStringT@DV?$StrTraitMFC_DLL@DV?$ChTraitsCRT@D@ATL@@@@@ATL@@V?$allocator@V?$CStringT@DV?$StrTraitMFC_DLL@DV?$ChTraitsCRT@D@ATL@@@@@ATL@@@std@@@std@@QEAAX$$QEAV?$CStringT@DV?$StrTraitMFC_DLL@DV?$ChTraitsCRT@D@ATL@@@@@ATL@@@Z@4HA 0000000140011dbc f   DefragManager.obj
 0001:00010de0       ?catch$51@?0??_Reallocate@?$vector@V?$CStringT@DV?$StrTraitMFC_DLL@DV?$ChTraitsCRT@D@ATL@@@@@ATL@@V?$allocator@V?$CStringT@DV?$StrTraitMFC_DLL@DV?$ChTraitsCRT@D@ATL@@@@@ATL@@@std@@@std@@IEAAX_K@Z@4HA 0000000140011de0 f   DefragManager.obj
 0001:00010ded       __catch$?_Reallocate@?$vector@V?$CStringT@DV?$StrTraitMFC_DLL@DV?$ChTraitsCRT@D@ATL@@@@@ATL@@V?$allocator@V?$CStringT@DV?$StrTraitMFC_DLL@DV?$ChTraitsCRT@D@ATL@@@@@ATL@@@std@@@std@@IEAAX_K@Z$0 0000000140011ded f   DefragManager.obj
 0001:00010e10       ?dtor$3@?0???$_Uninitialized_move_al_unchecked1@PEAV?$CStringT@DV?$StrTraitMFC_DLL@DV?$ChTraitsCRT@D@ATL@@@@@ATL@@PEAV12@V?$allocator@V?$CStringT@DV?$StrTraitMFC_DLL@DV?$ChTraitsCRT@D@ATL@@@@@ATL@@@std@@@std@@YAPEAV?$CStringT@DV?$StrTraitMFC_DLL@DV?$ChTraitsCRT@D@ATL@@@@@ATL@@PEAV12@00AEAU?$_Wrap_alloc@V?$allocator@V?$CStringT@DV?$StrTraitMFC_DLL@DV?$ChTraitsCRT@D@ATL@@@@@ATL@@@std@@@0@U_General_ptr_iterator_tag@0@U_Any_tag@0@@Z@4HA 0000000140011e10 f   DefragManager.obj
 0001:00010e2c       ?catch$5@?0???$_Uninitialized_move_al_unchecked1@PEAV?$CStringT@DV?$StrTraitMFC_DLL@DV?$ChTraitsCRT@D@ATL@@@@@ATL@@PEAV12@V?$allocator@V?$CStringT@DV?$StrTraitMFC_DLL@DV?$ChTraitsCRT@D@ATL@@@@@ATL@@@std@@@std@@YAPEAV?$CStringT@DV?$StrTraitMFC_DLL@DV?$ChTraitsCRT@D@ATL@@@@@ATL@@PEAV12@00AEAU?$_Wrap_alloc@V?$allocator@V?$CStringT@DV?$StrTraitMFC_DLL@DV?$ChTraitsCRT@D@ATL@@@@@ATL@@@std@@@0@U_General_ptr_iterator_tag@0@U_Any_tag@0@@Z@4HA 0000000140011e2c f   DefragManager.obj
 0001:00010e3b       __catch$??$_Uninitialized_move_al_unchecked1@PEAV?$CStringT@DV?$StrTraitMFC_DLL@DV?$ChTraitsCRT@D@ATL@@@@@ATL@@PEAV12@V?$allocator@V?$CStringT@DV?$StrTraitMFC_DLL@DV?$ChTraitsCRT@D@ATL@@@@@ATL@@@std@@@std@@YAPEAV?$CStringT@DV?$StrTraitMFC_DLL@DV?$ChTraitsCRT@D@ATL@@@@@ATL@@PEAV12@00AEAU?$_Wrap_alloc@V?$allocator@V?$CStringT@DV?$StrTraitMFC_DLL@DV?$ChTraitsCRT@D@ATL@@@@@ATL@@@std@@@0@U_General_ptr_iterator_tag@0@U_Any_tag@0@@Z$0 0000000140011e3b f   DefragManager.obj
 0001:00010e70       ?dtor$0@?0???0DeleLowGr@@QEAA@HPEAXPEBUSETTING_TBL@@@Z@4HA 0000000140011e70 f   DeleLowGr.obj
 0001:00010e7e       ?dtor$1@?0???0DeleLowGr@@QEAA@HPEAXPEBUSETTING_TBL@@@Z@4HA 0000000140011e7e f   DeleLowGr.obj
 0001:00010e8a       ?dtor$2@?0???0DeleLowGr@@QEAA@HPEAXPEBUSETTING_TBL@@@Z@4HA 0000000140011e8a f   DeleLowGr.obj
 0001:00010ea0       ?dtor$0@?0??StartExec@DeleLowGr@@AEAA_NXZ@4HA 0000000140011ea0 f   DeleLowGr.obj
 0001:00010eae       ?dtor$1@?0??StartExec@DeleLowGr@@AEAA_NXZ@4HA 0000000140011eae f   DeleLowGr.obj
 0001:00010ec0       ?dtor$0@?0??DeleteInf@DeleLowGr@@AEAA_NPEAVOdbcBase@KizuODBC@@PEBD111H@Z@4HA 0000000140011ec0 f   DeleLowGr.obj
 0001:00010ed0       ?dtor$0@?0??SetDeleteOkFlg@DeleLowGr@@AEAA_NPEAVOdbcBase@KizuODBC@@PEBD@Z@4HA 0000000140011ed0 f   DeleLowGr.obj
 0001:00010ee0       ?dtor$0@?0???0DeleTable@@QEAA@HPEAHPEAX1V?$CStringT@DV?$StrTraitMFC_DLL@DV?$ChTraitsCRT@D@ATL@@@@@ATL@@2@Z@4HA 0000000140011ee0 f   DeleTable.obj
 0001:00010eee       ?dtor$1@?0???0DeleTable@@QEAA@HPEAHPEAX1V?$CStringT@DV?$StrTraitMFC_DLL@DV?$ChTraitsCRT@D@ATL@@@@@ATL@@2@Z@4HA 0000000140011eee f   DeleTable.obj
 0001:00010efc       ?dtor$2@?0???0DeleTable@@QEAA@HPEAHPEAX1V?$CStringT@DV?$StrTraitMFC_DLL@DV?$ChTraitsCRT@D@ATL@@@@@ATL@@2@Z@4HA 0000000140011efc f   DeleTable.obj
 0001:00010f0a       ?dtor$4@?0???0DeleTable@@QEAA@HPEAHPEAX1V?$CStringT@DV?$StrTraitMFC_DLL@DV?$ChTraitsCRT@D@ATL@@@@@ATL@@2@Z@4HA 0000000140011f0a f   DeleTable.obj
 0001:00010f16       ?dtor$5@?0???0DeleTable@@QEAA@HPEAHPEAX1V?$CStringT@DV?$StrTraitMFC_DLL@DV?$ChTraitsCRT@D@ATL@@@@@ATL@@2@Z@4HA 0000000140011f16 f   DeleTable.obj
 0001:00010f24       ?dtor$6@?0???0DeleTable@@QEAA@HPEAHPEAX1V?$CStringT@DV?$StrTraitMFC_DLL@DV?$ChTraitsCRT@D@ATL@@@@@ATL@@2@Z@4HA 0000000140011f24 f   DeleTable.obj
 0001:00010f32       ?dtor$7@?0???0DeleTable@@QEAA@HPEAHPEAX1V?$CStringT@DV?$StrTraitMFC_DLL@DV?$ChTraitsCRT@D@ATL@@@@@ATL@@2@Z@4HA 0000000140011f32 f   DeleTable.obj
 0001:00010f40       ?dtor$8@?0???0DeleTable@@QEAA@HPEAHPEAX1V?$CStringT@DV?$StrTraitMFC_DLL@DV?$ChTraitsCRT@D@ATL@@@@@ATL@@2@Z@4HA 0000000140011f40 f   DeleTable.obj
 0001:00010f4e       ?dtor$9@?0???0DeleTable@@QEAA@HPEAHPEAX1V?$CStringT@DV?$StrTraitMFC_DLL@DV?$ChTraitsCRT@D@ATL@@@@@ATL@@2@Z@4HA 0000000140011f4e f   DeleTable.obj
 0001:00010f5c       ?dtor$10@?0???0DeleTable@@QEAA@HPEAHPEAX1V?$CStringT@DV?$StrTraitMFC_DLL@DV?$ChTraitsCRT@D@ATL@@@@@ATL@@2@Z@4HA 0000000140011f5c f   DeleTable.obj
 0001:00010f6a       ?dtor$11@?0???0DeleTable@@QEAA@HPEAHPEAX1V?$CStringT@DV?$StrTraitMFC_DLL@DV?$ChTraitsCRT@D@ATL@@@@@ATL@@2@Z@4HA 0000000140011f6a f   DeleTable.obj
 0001:00010f80       ?dtor$0@?0???0KizuDeleteManager@@QEAA@HPEAHPEAX1V?$CStringT@DV?$StrTraitMFC_DLL@DV?$ChTraitsCRT@D@ATL@@@@@ATL@@2@Z@4HA 0000000140011f80 f   KizuDeleteManager.obj
 0001:00010f8e       ?dtor$1@?0???0KizuDeleteManager@@QEAA@HPEAHPEAX1V?$CStringT@DV?$StrTraitMFC_DLL@DV?$ChTraitsCRT@D@ATL@@@@@ATL@@2@Z@4HA 0000000140011f8e f   KizuDeleteManager.obj
 0001:00010f9c       ?dtor$2@?0???0KizuDeleteManager@@QEAA@HPEAHPEAX1V?$CStringT@DV?$StrTraitMFC_DLL@DV?$ChTraitsCRT@D@ATL@@@@@ATL@@2@Z@4HA 0000000140011f9c f   KizuDeleteManager.obj
 0001:00010fa8       ?dtor$3@?0???0KizuDeleteManager@@QEAA@HPEAHPEAX1V?$CStringT@DV?$StrTraitMFC_DLL@DV?$ChTraitsCRT@D@ATL@@@@@ATL@@2@Z@4HA 0000000140011fa8 f   KizuDeleteManager.obj
 0001:00010fc0       ?dtor$0@?0??Select_OldKey@KizuDeleteManager@@IEAA_NPEBD0HPEAD@Z@4HA 0000000140011fc0 f   KizuDeleteManager.obj
 0001:00010fce       ?dtor$1@?0??Select_OldKey@KizuDeleteManager@@IEAA_NPEBD0HPEAD@Z@4HA 0000000140011fce f   KizuDeleteManager.obj
 0001:00010fe0       ?dtor$0@?0??Select_OldKey@KizuDeleteManager@@IEAA_NPEBD00HPEAD@Z@4HA 0000000140011fe0 f   KizuDeleteManager.obj
 0001:00010fee       ?dtor$1@?0??Select_OldKey@KizuDeleteManager@@IEAA_NPEBD00HPEAD@Z@4HA 0000000140011fee f   KizuDeleteManager.obj
 0001:00011000       ?dtor$0@?0??Exec_Shrink@KizuDeleteManager@@IEAA_NXZ@4HA 0000000140012000 f   KizuDeleteManager.obj
 0001:0001100e       ?dtor$1@?0??Exec_Shrink@KizuDeleteManager@@IEAA_NXZ@4HA 000000014001200e f   KizuDeleteManager.obj
 0001:00011020       ?dtor$0@?0??Delete_Day@KizuDeleteManager@@IEAA_NPEBD0H@Z@4HA 0000000140012020 f   KizuDeleteManager.obj
 0001:0001102e       ?dtor$1@?0??Delete_Day@KizuDeleteManager@@IEAA_NPEBD0H@Z@4HA 000000014001202e f   KizuDeleteManager.obj
 0001:00011040       ?dtor$0@?0??Delete_Day2@KizuDeleteManager@@IEAA_NPEBD0H@Z@4HA 0000000140012040 f   KizuDeleteManager.obj
 0001:0001104e       ?dtor$1@?0??Delete_Day2@KizuDeleteManager@@IEAA_NPEBD0H@Z@4HA 000000014001204e f   KizuDeleteManager.obj
 0001:00011060       ?dtor$0@?0??Delete_Cnt@KizuDeleteManager@@IEAA_NPEBD00HH@Z@4HA 0000000140012060 f   KizuDeleteManager.obj
 0001:0001106e       ?dtor$1@?0??Delete_Cnt@KizuDeleteManager@@IEAA_NPEBD00HH@Z@4HA 000000014001206e f   KizuDeleteManager.obj
 0001:00011080       ?dtor$0@?0??Delete_Inf@KizuDeleteManager@@IEAA_NPEBD00@Z@4HA 0000000140012080 f   KizuDeleteManager.obj
 0001:0001108e       ?dtor$1@?0??Delete_Inf@KizuDeleteManager@@IEAA_NPEBD00@Z@4HA 000000014001208e f   KizuDeleteManager.obj
 0001:000110a0       ?dtor$0@?0??Delete_Inf@KizuDeleteManager@@IEAA_NPEBD00H0@Z@4HA 00000001400120a0 f   KizuDeleteManager.obj
 0001:000110ae       ?dtor$1@?0??Delete_Inf@KizuDeleteManager@@IEAA_NPEBD00H0@Z@4HA 00000001400120ae f   KizuDeleteManager.obj
 0001:000110c0       ?dtor$0@?0???0MainInctance@@QEAA@XZ@4HA 00000001400120c0 f   MainInctance.obj
 0001:000110d0       ?dtor$0@?0??Init@MainInctance@@QEAAHXZ@4HA 00000001400120d0 f   MainInctance.obj
 0001:000110de       ?dtor$1@?0??Init@MainInctance@@QEAAHXZ@4HA 00000001400120de f   MainInctance.obj
 0001:000110fb       ?dtor$3@?0??Init@MainInctance@@QEAAHXZ@4HA 00000001400120fb f   MainInctance.obj
 0001:00011118       ?dtor$2@?0??Init@MainInctance@@QEAAHXZ@4HA 0000000140012118 f   MainInctance.obj
 0001:00011140       ?dtor$1@?0??InitInstance@CTI_DELETEApp@@UEAAHXZ@4HA 0000000140012140 f   TI_DELETE.obj
 0001:0001114e       ?dtor$2@?0??InitInstance@CTI_DELETEApp@@UEAAHXZ@4HA 000000014001214e f   TI_DELETE.obj
 0001:00011161       ?dtor$3@?0??InitInstance@CTI_DELETEApp@@UEAAHXZ@4HA 0000000140012161 f   TI_DELETE.obj
 0001:00011176       ?dtor$4@?0??InitInstance@CTI_DELETEApp@@UEAAHXZ@4HA 0000000140012176 f   TI_DELETE.obj
 0001:0001118b       ?dtor$0@?0??InitInstance@CTI_DELETEApp@@UEAAHXZ@4HA 000000014001218b f   TI_DELETE.obj
 0001:000111a0       ?dtor$0@?0??OnInitDialog@CTI_DELETEDlg@@MEAAHXZ@4HA 00000001400121a0 f   TI_DELETEDlg.obj
 0001:000111b0       ?dtor$0@?0??InitProcess@CTI_DELETEDlg@@AEAAXXZ@4HA 00000001400121b0 f   TI_DELETEDlg.obj
 0001:000111d0       ?dtor$0@?0??OnTimer@CTI_DELETEDlg@@QEAAX_K@Z@4HA 00000001400121d0 f   TI_DELETEDlg.obj
 0001:000111de       ?dtor$1@?0??OnTimer@CTI_DELETEDlg@@QEAAX_K@Z@4HA 00000001400121de f   TI_DELETEDlg.obj
 0001:000111f0       ?dtor$0@?0???0ThreadManager@@QEAA@PEBDH@Z@4HA 00000001400121f0 f   KizuLibMFC:ThreadManager.obj
 0001:000111fc       ?dtor$1@?0???0ThreadManager@@QEAA@PEBDH@Z@4HA 00000001400121fc f   KizuLibMFC:ThreadManager.obj
 0001:00011210       ?dtor$0@?0???0LogFileManager@KizuLib@@QEAA@PEBDPEAVCListBox@@HH@Z@4HA 0000000140012210 f   KizuLibMFC:LogFileManager.obj
 0001:0001121c       ?dtor$1@?0???0LogFileManager@KizuLib@@QEAA@PEBDPEAVCListBox@@HH@Z@4HA 000000014001221c f   KizuLibMFC:LogFileManager.obj
 0001:0001122c       ?dtor$2@?0???0LogFileManager@KizuLib@@QEAA@PEBDPEAVCListBox@@HH@Z@4HA 000000014001222c f   KizuLibMFC:LogFileManager.obj
 0001:0001123f       ?dtor$3@?0???0LogFileManager@KizuLib@@QEAA@PEBDPEAVCListBox@@HH@Z@4HA 000000014001223f f   KizuLibMFC:LogFileManager.obj
 0001:00011254       ?dtor$4@?0???0LogFileManager@KizuLib@@QEAA@PEBDPEAVCListBox@@HH@Z@4HA 0000000140012254 f   KizuLibMFC:LogFileManager.obj
 0001:00011269       ?dtor$5@?0???0LogFileManager@KizuLib@@QEAA@PEBDPEAVCListBox@@HH@Z@4HA 0000000140012269 f   KizuLibMFC:LogFileManager.obj
 0001:0001127e       ?dtor$6@?0???0LogFileManager@KizuLib@@QEAA@PEBDPEAVCListBox@@HH@Z@4HA 000000014001227e f   KizuLibMFC:LogFileManager.obj
 0001:0001128c       ?dtor$7@?0???0LogFileManager@KizuLib@@QEAA@PEBDPEAVCListBox@@HH@Z@4HA 000000014001228c f   KizuLibMFC:LogFileManager.obj
 0001:000112a0       ?dtor$0@?0??Write@LogFileManager@KizuLib@@QEAAXW4LNO@12@PEBDZZ@4HA 00000001400122a0 f   KizuLibMFC:LogFileManager.obj
 0001:000112b0       ?dtor$0@?0??WriteFile@LogFileManager@KizuLib@@QEAAXPEBD@Z@4HA 00000001400122b0 f   KizuLibMFC:LogFileManager.obj
 0001:000112bc       ?dtor$1@?0??WriteFile@LogFileManager@KizuLib@@QEAAXPEBD@Z@4HA 00000001400122bc f   KizuLibMFC:LogFileManager.obj
 0001:000112d0       ?dtor$0@?0???0?$basic_ofstream@DU?$char_traits@D@std@@@std@@QEAA@XZ@4HA 00000001400122d0 f   KizuLibMFC:LogFileManager.obj
 0001:000112fe       ?dtor$1@?0???0?$basic_ofstream@DU?$char_traits@D@std@@@std@@QEAA@XZ@4HA 00000001400122fe f   KizuLibMFC:LogFileManager.obj
 0001:00011310       ?dtor$3@?0???0?$basic_ofstream@DU?$char_traits@D@std@@@std@@QEAA@XZ@4HA 0000000140012310 f   KizuLibMFC:LogFileManager.obj
 0001:00011320       ?dtor$0@?0??uflow@?$basic_filebuf@DU?$char_traits@D@std@@@std@@MEAAHXZ@4HA 0000000140012320 f   KizuLibMFC:LogFileManager.obj
 0001:00011320       ?dtor$0@?0??overflow@?$basic_filebuf@DU?$char_traits@D@std@@@std@@MEAAHH@Z@4HA 0000000140012320 f   KizuLibMFC:LogFileManager.obj
 0001:00011330       ?dtor$0@?0??_Endwrite@?$basic_filebuf@DU?$char_traits@D@std@@@std@@IEAA_NXZ@4HA 0000000140012330 f   KizuLibMFC:LogFileManager.obj
 0001:00011340       ?dtor$0@?0??open@?$basic_filebuf@DU?$char_traits@D@std@@@std@@QEAAPEAV12@PEBDHH@Z@4HA 0000000140012340 f   KizuLibMFC:LogFileManager.obj
 0001:00011350       ?catch$107@?0??_Copy@?$basic_string@DU?$char_traits@D@std@@V?$allocator@D@2@@std@@QEAAX_K0@Z@4HA 0000000140012350 f   KizuLibMFC:LogFileManager.obj
 0001:0001135d       __catch$?_Copy@?$basic_string@DU?$char_traits@D@std@@V?$allocator@D@2@@std@@QEAAX_K0@Z$0 000000014001235d f   KizuLibMFC:LogFileManager.obj
 0001:0001137f       ?catch$106@?0??_Copy@?$basic_string@DU?$char_traits@D@std@@V?$allocator@D@2@@std@@QEAAX_K0@Z@4HA 000000014001237f f   KizuLibMFC:LogFileManager.obj
 0001:0001138d       __catch$?_Copy@?$basic_string@DU?$char_traits@D@std@@V?$allocator@D@2@@std@@QEAAX_K0@Z$1 000000014001238d f   KizuLibMFC:LogFileManager.obj
 0001:00011420       ?dtor$1@?0???$?6U?$char_traits@D@std@@@std@@YAAEAV?$basic_ostream@DU?$char_traits@D@std@@@0@AEAV10@PEBD@Z@4HA 0000000140012420 f   KizuLibMFC:LogFileManager.obj
 0001:0001142c       ?dtor$0@?0???$?6U?$char_traits@D@std@@@std@@YAAEAV?$basic_ostream@DU?$char_traits@D@std@@@0@AEAV10@PEBD@Z@4HA 000000014001242c f   KizuLibMFC:LogFileManager.obj
 0001:00011438       ?catch$8@?0???$?6U?$char_traits@D@std@@@std@@YAAEAV?$basic_ostream@DU?$char_traits@D@std@@@0@AEAV10@PEBD@Z@4HA 0000000140012438 f   KizuLibMFC:LogFileManager.obj
 0001:00011445       __catch$??$?6U?$char_traits@D@std@@@std@@YAAEAV?$basic_ostream@DU?$char_traits@D@std@@@0@AEAV10@PEBD@Z$0 0000000140012445 f   KizuLibMFC:LogFileManager.obj
 0001:00011470       ?dtor$0@?0???$use_facet@V?$codecvt@DDU_Mbstatet@@@std@@@std@@YAAEBV?$codecvt@DDU_Mbstatet@@@0@AEBVlocale@0@@Z@4HA 0000000140012470 f   KizuLibMFC:LogFileManager.obj
 0001:00011480       ?filt$0@?0??SetThreadName@WorkThread@KizuLib@@SAXPEBDK@Z@4HA 0000000140012480 f   KizuLib:WorkThread.obj
 0001:00011493       ?fin$0@?0???_L@YAXPEAX_K1P6AX0@Z2@Z@4HA 0000000140012493 f   msvcrt:ehvecctr.obj
 0001:000114bf       ?fin$0@?0???_M@YAXPEAX_K1P6AX0@Z@Z@4HA 00000001400124bf f   msvcrt:ehvecdtr.obj
 0001:000114eb       ?filt$0@?0??__ArrayUnwind@@YAXPEAX_K1P6AX0@Z@Z@4HA 00000001400124eb f   msvcrt:ehvecdtr.obj
 0001:0001152c       __scrt_is_nonwritable_in_current_image$filt$0 000000014001252c f   msvcrt:utility.obj
 0001:00011544       ?filt$0@?0??__scrt_common_main_seh@@YAHXZ@4HA 0000000140012544 f   msvcrt:exe_winmain.obj
 0001:00011570       ??__FtheApp@@YAXXZ         0000000140012570 f   TI_DELETE.obj
 0001:00011580       ??__F?m_inst@OdbcEnv@KizuODBC@@0V12@A@@YAXXZ 0000000140012580 f   KizuODBC:OdbcEnv.obj
 0001:000115c8       ??__F_AtlBaseModule@ATL@@YAXXZ 00000001400125c8 f   atls:atlbase.obj
 0001:000115d4       ??__F_Fac_tidy_reg@std@@YAXXZ 00000001400125d4 f   msvcprt:locale0_implib.obj
 0002:00000c48       ?pre_cpp_initializer@@3P6AXXZEA 0000000140013c48     msvcrt:exe_winmain.obj
 0002:00000c50       ?_AtlBaseModule$initializer$@ATL@@3P6AXXZEA 0000000140013c50     atls:atlbase.obj
 0002:00000c58       ?_Fac_tidy_reg$initializer$@std@@3P6AXXZEA 0000000140013c58     msvcprt:locale0_implib.obj
 0002:00000c60       ?_afxInitAppState$initializer$@@3P6AXXZEA 0000000140013c60     mfcs140:appmodul.obj
 0002:00000c68       ?theApp$initializer$@@3P6AXXZEA 0000000140013c68     TI_DELETE.obj
 0002:00000c70       ??m_inst$initializer$@OdbcEnv@KizuODBC@@0P6AXXZEA@@3P6AXXZEA 0000000140013c70     KizuODBC:OdbcEnv.obj
 0002:00000c88       ?pre_c_initializer@@3P6AHXZEA 0000000140013c88     msvcrt:exe_winmain.obj
 0002:00000c90       ?post_pgo_initializer@@3P6AHXZEA 0000000140013c90     msvcrt:exe_winmain.obj
 0002:00000c98       ?__scrt_initialize_tss_var@@3P6AHXZEA 0000000140013c98     msvcrt:thread_safe_statics.obj
 0002:00000d70       GS_ExceptionPointers       0000000140013d70     msvcrt:gs_report.obj
 0002:00000e18       $cppxdata$??_G_Fac_node@std@@QEAAPEAXI@Z 0000000140013e18     msvcprt:locale0_implib.obj
 0002:00002558       ?messageMap@?1??GetThisMessageMap@CTI_DELETEApp@@KAPEBUAFX_MSGMAP@@XZ@4U3@B 0000000140015558     TI_DELETE.obj
 0002:00002570       ?_messageEntries@?1??GetThisMessageMap@CTI_DELETEApp@@KAPEBUAFX_MSGMAP@@XZ@4QBUAFX_MSGMAP_ENTRY@@B 0000000140015570     TI_DELETE.obj
 0002:000026e8       ?messageMap@?1??GetThisMessageMap@CTI_DELETEDlg@@KAPEBUAFX_MSGMAP@@XZ@4U3@B 00000001400156e8     TI_DELETEDlg.obj
 0002:00002700       ?_messageEntries@?1??GetThisMessageMap@CTI_DELETEDlg@@KAPEBUAFX_MSGMAP@@XZ@4QBUAFX_MSGMAP_ENTRY@@B 0000000140015700     TI_DELETEDlg.obj
 0002:00003620       $cppxdata$?Exec@ControlDefragManager@@AEAAXXZ 0000000140016620     ControlDefragManager.obj
 0002:00003648       $cppxdata$??1ControlDefragManager@@UEAA@XZ 0000000140016648     ControlDefragManager.obj
 0002:000036d0       $cppxdata$?BackUpDeleListItem@ControlLowGr@@AEAA_NXZ 00000001400166d0     ControlLowGr.obj
 0002:000036f8       $cppxdata$?CheckDeleListItem@ControlLowGr@@AEAA_NXZ 00000001400166f8     ControlLowGr.obj
 0002:00003720       $cppxdata$?WorkerInit@ControlLowGr@@QEAAXXZ 0000000140016720     ControlLowGr.obj
 0002:00003748       $cppxdata$??1ControlLowGr@@UEAA@XZ 0000000140016748     ControlLowGr.obj
 0002:00003770       $cppxdata$??1MAIN@SETTING_TBL@@QEAA@XZ 0000000140016770     ControlLowGr.obj
 0002:00003798       $cppxdata$??0MAIN@SETTING_TBL@@QEAA@XZ 0000000140016798     ControlLowGr.obj
 0002:000037c0       $cppxdata$??1SETTING_TBL@@QEAA@XZ 00000001400167c0     ControlLowGr.obj
 0002:000037e8       $cppxdata$??0ControlLowGr@@QEAA@XZ 00000001400167e8     ControlLowGr.obj
 0002:00003810       $cppxdata$?GetDB_Size@ControlManager@@AEAAHXZ 0000000140016810     ControlManager.obj
 0002:00003838       $cppxdata$?WorkerInit@ControlManager@@QEAAXXZ 0000000140016838     ControlManager.obj
 0002:00003860       $cppxdata$??0ControlManager@@QEAA@PEADPEAVLogFileManager@KizuLib@@@Z 0000000140016860     ControlManager.obj
 0002:00003888       $cppxdata$??$_Uninitialized_move_al_unchecked1@PEAV?$CStringT@DV?$StrTraitMFC_DLL@DV?$ChTraitsCRT@D@ATL@@@@@ATL@@PEAV12@V?$allocator@V?$CStringT@DV?$StrTraitMFC_DLL@DV?$ChTraitsCRT@D@ATL@@@@@ATL@@@std@@@std@@YAPEAV?$CStringT@DV?$StrTraitMFC_DLL@DV?$ChTraitsCRT@D@ATL@@@@@ATL@@PEAV12@00AEAU?$_Wrap_alloc@V?$allocator@V?$CStringT@DV?$StrTraitMFC_DLL@DV?$ChTraitsCRT@D@ATL@@@@@ATL@@@std@@@0@U_General_ptr_iterator_tag@0@U_Any_tag@0@@Z 0000000140016888     DefragManager.obj
 0002:000038b0       $cppxdata$?_Reallocate@?$vector@V?$CStringT@DV?$StrTraitMFC_DLL@DV?$ChTraitsCRT@D@ATL@@@@@ATL@@V?$allocator@V?$CStringT@DV?$StrTraitMFC_DLL@DV?$ChTraitsCRT@D@ATL@@@@@ATL@@@std@@@std@@IEAAX_K@Z 00000001400168b0     DefragManager.obj
 0002:000038d8       $cppxdata$?push_back@?$vector@V?$CStringT@DV?$StrTraitMFC_DLL@DV?$ChTraitsCRT@D@ATL@@@@@ATL@@V?$allocator@V?$CStringT@DV?$StrTraitMFC_DLL@DV?$ChTraitsCRT@D@ATL@@@@@ATL@@@std@@@std@@QEAAX$$QEAV?$CStringT@DV?$StrTraitMFC_DLL@DV?$ChTraitsCRT@D@ATL@@@@@ATL@@@Z 00000001400168d8     DefragManager.obj
 0002:00003900       $cppxdata$?ExecDefrag@DefragManager@@AEAAHPEBD0@Z 0000000140016900     DefragManager.obj
 0002:00003928       $cppxdata$?GetIndexTables@DefragManager@@AEAA_NPEBDPEAV?$vector@V?$CStringT@DV?$StrTraitMFC_DLL@DV?$ChTraitsCRT@D@ATL@@@@@ATL@@V?$allocator@V?$CStringT@DV?$StrTraitMFC_DLL@DV?$ChTraitsCRT@D@ATL@@@@@ATL@@@std@@@std@@@Z 0000000140016928     DefragManager.obj
 0002:00003950       $cppxdata$?Exec@DefragManager@@AEAAXXZ 0000000140016950     DefragManager.obj
 0002:00003978       $cppxdata$??1DefragManager@@UEAA@XZ 0000000140016978     DefragManager.obj
 0002:000039a0       $cppxdata$?GetThreadNameArray@@YA?AV?$CStringT@DV?$StrTraitMFC_DLL@DV?$ChTraitsCRT@D@ATL@@@@@ATL@@PEADH@Z 00000001400169a0     DefragManager.obj
 0002:000039c8       $cppxdata$??0DefragManager@@QEAA@HPEAD@Z 00000001400169c8     DefragManager.obj
 0002:000039f0       $cppxdata$?SetDeleteOkFlg@DeleLowGr@@AEAA_NPEAVOdbcBase@KizuODBC@@PEBD@Z 00000001400169f0     DeleLowGr.obj
 0002:00003a18       $cppxdata$?DeleteInf@DeleLowGr@@AEAA_NPEAVOdbcBase@KizuODBC@@PEBD111H@Z 0000000140016a18     DeleLowGr.obj
 0002:00003a40       $cppxdata$?StartExec@DeleLowGr@@AEAA_NXZ 0000000140016a40     DeleLowGr.obj
 0002:00003a68       $cppxdata$?GetThreadNameArray@@YA?AV?$CStringT@DV?$StrTraitMFC_DLL@DV?$ChTraitsCRT@D@ATL@@@@@ATL@@PEADH@Z 0000000140016a68     DeleLowGr.obj
 0002:00003a90       $cppxdata$??0DeleLowGr@@QEAA@HPEAXPEBUSETTING_TBL@@@Z 0000000140016a90     DeleLowGr.obj
 0002:00003ab8       $cppxdata$??1DeleTable@@UEAA@XZ 0000000140016ab8     DeleTable.obj
 0002:00003ae0       $cppxdata$??0DeleTable@@QEAA@HPEAHPEAX1V?$CStringT@DV?$StrTraitMFC_DLL@DV?$ChTraitsCRT@D@ATL@@@@@ATL@@2@Z 0000000140016ae0     DeleTable.obj
 0002:00003b08       $cppxdata$?Delete_OldInf@KizuDeleteManager@@IEAA_NPEBD00H0@Z 0000000140016b08     KizuDeleteManager.obj
 0002:00003b30       $cppxdata$?Delete_Inf@KizuDeleteManager@@IEAA_NPEBD00H0@Z 0000000140016b30     KizuDeleteManager.obj
 0002:00003b58       $cppxdata$?Delete_Day@KizuDeleteManager@@IEAA_NPEBD0H@Z 0000000140016b58     KizuDeleteManager.obj
 0002:00003b80       $cppxdata$??0KizuDeleteManager@@QEAA@HPEAHPEAX1V?$CStringT@DV?$StrTraitMFC_DLL@DV?$ChTraitsCRT@D@ATL@@@@@ATL@@2@Z 0000000140016b80     KizuDeleteManager.obj
 0002:00003ba8       $cppxdata$?Delete_Day2@KizuDeleteManager@@IEAA_NPEBD0H@Z 0000000140016ba8     KizuDeleteManager.obj
 0002:00003bd0       $cppxdata$?Exec_Shrink@KizuDeleteManager@@IEAA_NXZ 0000000140016bd0     KizuDeleteManager.obj
 0002:00003bf8       $cppxdata$?Delete_Cnt@KizuDeleteManager@@IEAA_NPEBD00HH@Z 0000000140016bf8     KizuDeleteManager.obj
 0002:00003c20       $cppxdata$?Select_OldKey@KizuDeleteManager@@IEAA_NPEBD00HPEAD@Z 0000000140016c20     KizuDeleteManager.obj
 0002:00003c48       $cppxdata$?Delete_Inf@KizuDeleteManager@@IEAA_NPEBD00@Z 0000000140016c48     KizuDeleteManager.obj
 0002:00003c70       $cppxdata$?Select_OldKey@KizuDeleteManager@@IEAA_NPEBD0HPEAD@Z 0000000140016c70     KizuDeleteManager.obj
 0002:00003c98       $cppxdata$?Init@MainInctance@@QEAAHXZ 0000000140016c98     MainInctance.obj
 0002:00003cc0       $cppxdata$??0MainInctance@@QEAA@XZ 0000000140016cc0     MainInctance.obj
 0002:00003ce8       $cppxdata$?InitInstance@CTI_DELETEApp@@UEAAHXZ 0000000140016ce8     TI_DELETE.obj
 0002:00003d10       $cppxdata$?OnTimer@CTI_DELETEDlg@@QEAAX_K@Z 0000000140016d10     TI_DELETEDlg.obj
 0002:00003d38       $cppxdata$?InitProcess@CTI_DELETEDlg@@AEAAXXZ 0000000140016d38     TI_DELETEDlg.obj
 0002:00003d60       $cppxdata$?OnInitDialog@CTI_DELETEDlg@@MEAAHXZ 0000000140016d60     TI_DELETEDlg.obj
 0002:00003d88       $cppxdata$??0ThreadManager@@QEAA@PEBDH@Z 0000000140016d88     KizuLibMFC:ThreadManager.obj
 0002:00003db0       $cppxdata$??1_Sentry_base@?$basic_ostream@DU?$char_traits@D@std@@@std@@QEAA@XZ 0000000140016db0     KizuLibMFC:LogFileManager.obj
 0002:00003dd8       $cppxdata$??1sentry@?$basic_ostream@DU?$char_traits@D@std@@@std@@QEAA@XZ 0000000140016dd8     KizuLibMFC:LogFileManager.obj
 0002:00003e00       $cppxdata$??$use_facet@V?$codecvt@DDU_Mbstatet@@@std@@@std@@YAAEBV?$codecvt@DDU_Mbstatet@@@0@AEBVlocale@0@@Z 0000000140016e00     KizuLibMFC:LogFileManager.obj
 0002:00003e28       $cppxdata$??$?6U?$char_traits@D@std@@@std@@YAAEAV?$basic_ostream@DU?$char_traits@D@std@@@0@AEAV10@PEBD@Z 0000000140016e28     KizuLibMFC:LogFileManager.obj
 0002:00003e50       $cppxdata$?_Copy@?$basic_string@DU?$char_traits@D@std@@V?$allocator@D@2@@std@@QEAAX_K0@Z 0000000140016e50     KizuLibMFC:LogFileManager.obj
 0002:00003e78       $cppxdata$?open@?$basic_filebuf@DU?$char_traits@D@std@@@std@@QEAAPEAV12@PEBDHH@Z 0000000140016e78     KizuLibMFC:LogFileManager.obj
 0002:00003ea0       $cppxdata$?_Endwrite@?$basic_filebuf@DU?$char_traits@D@std@@@std@@IEAA_NXZ 0000000140016ea0     KizuLibMFC:LogFileManager.obj
 0002:00003ec8       $cppxdata$??_G?$basic_filebuf@DU?$char_traits@D@std@@@std@@UEAAPEAXI@Z 0000000140016ec8     KizuLibMFC:LogFileManager.obj
 0002:00003ef0       $cppxdata$?overflow@?$basic_filebuf@DU?$char_traits@D@std@@@std@@MEAAHH@Z 0000000140016ef0     KizuLibMFC:LogFileManager.obj
 0002:00003f18       $cppxdata$?uflow@?$basic_filebuf@DU?$char_traits@D@std@@@std@@MEAAHXZ 0000000140016f18     KizuLibMFC:LogFileManager.obj
 0002:00003f40       $cppxdata$??0?$basic_ofstream@DU?$char_traits@D@std@@@std@@QEAA@XZ 0000000140016f40     KizuLibMFC:LogFileManager.obj
 0002:00003f68       $cppxdata$??1?$basic_ofstream@DU?$char_traits@D@std@@@std@@UEAA@XZ 0000000140016f68     KizuLibMFC:LogFileManager.obj
 0002:00003f90       $cppxdata$?WriteFile@LogFileManager@KizuLib@@QEAAXPEBD@Z 0000000140016f90     KizuLibMFC:LogFileManager.obj
 0002:00003fb8       $cppxdata$??1LogFileManager@KizuLib@@UEAA@XZ 0000000140016fb8     KizuLibMFC:LogFileManager.obj
 0002:00003fe0       $cppxdata$??1locale@std@@QEAA@XZ 0000000140016fe0     KizuLibMFC:LogFileManager.obj
 0002:00004008       $cppxdata$??0LogFileManager@KizuLib@@QEAA@PEBDPEAVCListBox@@HH@Z 0000000140017008     KizuLibMFC:LogFileManager.obj
 0002:00004030       $cppxdata$?Write@LogFileManager@KizuLib@@QEAAXW4LNO@12@PEBDZZ 0000000140017030     KizuLibMFC:LogFileManager.obj
 0002:00004058       $cppxdata$?SetStatus@KizuFunction@KizuLib@@SA_NHH_NPEBD@Z 0000000140017058     KizuLib:KizuFunction.obj
 0002:00004080       $cppxdata$?SetPcName@KizuPcInfManager@KizuLib@@QEAA_NPEADPEBD1@Z 0000000140017080     KizuLib:KizuPcInfManager.obj
 0002:000040a8       $cppxdata$??1OdbcBase@KizuODBC@@UEAA@XZ 00000001400170a8     KizuODBC:OdbcBase.obj
 0002:000040d0       $cppxdata$?GetSelectKey_Static@OdbcBase@KizuODBC@@SA_NPEBDPEAH00@Z 00000001400170d0     KizuODBC:OdbcBase.obj
 0002:00005aa0       $unwind$??1KizuDeleteManager@@UEAA@XZ 0000000140018aa0     KizuDeleteManager.obj
 0002:00005aa0       $unwind$?DisConnect@OdbcBase@KizuODBC@@QEAAXXZ 0000000140018aa0     KizuODBC:OdbcBase.obj
 0002:00005aa0       $unwind$__raise_securityfailure 0000000140018aa0     msvcrt:gs_report.obj
 0002:00005aa0       $unwind$??1?$ThreadQueue@D@KizuLib@@UEAA@XZ 0000000140018aa0     KizuLibMFC:LogFileManager.obj
 0002:00005aa0       $unwind$?pre_c_initialization@@YAHXZ 0000000140018aa0     msvcrt:exe_winmain.obj
 0002:00005aa0       $unwind$??1LockManager@KizuLib@@UEAA@XZ 0000000140018aa0     ControlManager.obj
 0002:00005aa0       $unwind$?_Facet_Register@std@@YAXPEAV_Facet_base@1@@Z 0000000140018aa0     msvcprt:locale0_implib.obj
 0002:00005aa0       $unwind$??0bad_cast@std@@QEAA@AEBV01@@Z 0000000140018aa0     KizuLibMFC:LogFileManager.obj
 0002:00005aa0       $unwind$?GetResult@MailSlotManager@KizuLib@@UEAA_NPEAU_OVERLAPPED@@@Z 0000000140018aa0     KizuLib:MailSlotManager.obj
 0002:00005aa0       $unwind$_onexit            0000000140018aa0     msvcrt:utility.obj
 0002:00005aa0       $unwind$??1CTI_DELETEDlg@@UEAA@XZ 0000000140018aa0     TI_DELETE.obj
 0002:00005aa0       $unwind$??1?$basic_string@DU?$char_traits@D@std@@V?$allocator@D@2@@std@@QEAA@XZ 0000000140018aa0     KizuLibMFC:LogFileManager.obj
 0002:00005aa0       $unwind$__scrt_release_startup_lock 0000000140018aa0     msvcrt:utility.obj
 0002:00005aa0       $unwind$??1ControlManager@@UEAA@XZ 0000000140018aa0     ControlManager.obj
 0002:00005aa0       $unwind$__scrt_initialize_crt 0000000140018aa0     msvcrt:utility.obj
 0002:00005aa0       $unwind$??_GKizuPerformanceCounter@KizuLib@@UEAAPEAXI@Z 0000000140018aa0     KizuLib:KizuPerformanceCounter.obj
 0002:00005aa0       $unwind$??_GKizuPcInfManager@KizuLib@@UEAAPEAXI@Z 0000000140018aa0     KizuLib:KizuPcInfManager.obj
 0002:00005aa0       $unwind$??1CAtlBaseModule@ATL@@QEAA@XZ 0000000140018aa0     atls:atlbase.obj
 0002:00005aa0       $unwind$?MainThread@ThreadManager@@KAIPEAX@Z 0000000140018aa0     KizuLibMFC:ThreadManager.obj
 0002:00005aa0       $unwind$??0OdbcEnv@KizuODBC@@AEAA@XZ 0000000140018aa0     KizuODBC:OdbcEnv.obj
 0002:00005aa0       $unwind$??0ControlDefragManager@@QEAA@XZ 0000000140018aa0     ControlDefragManager.obj
 0002:00005aa0       $unwind$??1MainInctance@@UEAA@XZ 0000000140018aa0     MainInctance.obj
 0002:00005aa0       $unwind$??1ThreadManager@@UEAA@XZ 0000000140018aa0     KizuLibMFC:ThreadManager.obj
 0002:00005aa0       $unwind$??_D?$basic_ofstream@DU?$char_traits@D@std@@@std@@QEAAXXZ 0000000140018aa0     KizuLibMFC:LogFileManager.obj
 0002:00005aa0       $unwind$__scrt_uninitialize_crt 0000000140018aa0     msvcrt:utility.obj
 0002:00005aa0       $unwind$??1OdbcManager@KizuODBC@@UEAA@XZ 0000000140018aa0     KizuODBC:OdbcManager.obj
 0002:00005aa0       $unwind$??0DEF_TBL@DefragManager@@QEAA@XZ 0000000140018aa0     DefragManager.obj
 0002:00005aa0       $unwind$??1DEL_TBL_CNT@KizuDeleteManager@@QEAA@XZ 0000000140018aa0     DeleTable.obj
 0002:00005aa0       $unwind$?underflow@?$basic_filebuf@DU?$char_traits@D@std@@@std@@MEAAHXZ 0000000140018aa0     KizuLibMFC:LogFileManager.obj
 0002:00005aa0       $unwind$?sync@?$basic_filebuf@DU?$char_traits@D@std@@@std@@MEAAHXZ 0000000140018aa0     KizuLibMFC:LogFileManager.obj
 0002:00005aa0       $unwind$??0DEL_TBL_CNT@KizuDeleteManager@@QEAA@XZ 0000000140018aa0     DeleTable.obj
 0002:00005aa0       $unwind$??1AutoLock@KizuLib@@UEAA@XZ 0000000140018aa0     KizuLibMFC:LogFileManager.obj
 0002:00005aa0       $unwind$??_Gtype_info@@UEAAPEAXI@Z 0000000140018aa0     msvcrt:std_type_info_static.obj
 0002:00005aa0       $unwind$??0exception@std@@QEAA@AEBV01@@Z 0000000140018aa0     KizuLibMFC:LogFileManager.obj
 0002:00005aa0       $unwind$??1DEL_TBL@KizuDeleteManager@@QEAA@XZ 0000000140018aa0     DeleTable.obj
 0002:00005aa0       $unwind$??0DEL_TBL@KizuDeleteManager@@QEAA@XZ 0000000140018aa0     DeleTable.obj
 0002:00005aa0       $unwind$??$endl@DU?$char_traits@D@std@@@std@@YAAEAV?$basic_ostream@DU?$char_traits@D@std@@@0@AEAV10@@Z 0000000140018aa0     KizuLibMFC:LogFileManager.obj
 0002:00005aa8       $unwind$??_Gbad_cast@std@@UEAAPEAXI@Z 0000000140018aa8     KizuLibMFC:LogFileManager.obj
 0002:00005aa8       $unwind$??_GDefragManager@@UEAAPEAXI@Z 0000000140018aa8     DefragManager.obj
 0002:00005aa8       $unwind$??_Gexception@std@@UEAAPEAXI@Z 0000000140018aa8     KizuLibMFC:LogFileManager.obj
 0002:00005aa8       $unwind$??_GCComboBox@@UEAAPEAXI@Z 0000000140018aa8     TI_DELETEDlg.obj
 0002:00005aa8       $unwind$?AfxInitialize@@YAHHK@Z 0000000140018aa8     mfcs140:appmodul.obj
 0002:00005aa8       $unwind$??_GOdbcBase@KizuODBC@@UEAAPEAXI@Z 0000000140018aa8     KizuODBC:OdbcBase.obj
 0002:00005aa8       $unwind$??_GCListBox@@UEAAPEAXI@Z 0000000140018aa8     TI_DELETEDlg.obj
 0002:00005aa8       $unwind$??_GMailSlotManager@KizuLib@@UEAAPEAXI@Z 0000000140018aa8     KizuLib:MailSlotManager.obj
 0002:00005aa8       $unwind$??_GCTI_DELETEApp@@UEAAPEAXI@Z 0000000140018aa8     TI_DELETE.obj
 0002:00005aa8       $unwind$??_GLockManager@KizuLib@@UEAAPEAXI@Z 0000000140018aa8     ControlManager.obj
 0002:00005aa8       $unwind$??_GDeleLowGr@@UEAAPEAXI@Z 0000000140018aa8     DeleLowGr.obj
 0002:00005aa8       $unwind$?DoDataExchange@CTI_DELETEDlg@@MEAAXPEAVCDataExchange@@@Z 0000000140018aa8     TI_DELETEDlg.obj
 0002:00005aa8       $unwind$?imbue@?$basic_filebuf@DU?$char_traits@D@std@@@std@@MEAAXAEBVlocale@2@@Z 0000000140018aa8     KizuLibMFC:LogFileManager.obj
 0002:00005aa8       $unwind$??_GKizuDeleteManager@@UEAAPEAXI@Z 0000000140018aa8     KizuDeleteManager.obj
 0002:00005aa8       $unwind$??_GControlManager@@UEAAPEAXI@Z 0000000140018aa8     ControlManager.obj
 0002:00005aa8       $unwind$??_GCTI_DELETEDlg@@UEAAPEAXI@Z 0000000140018aa8     TI_DELETEDlg.obj
 0002:00005aa8       $unwind$??_GOdbcEnv@KizuODBC@@UEAAPEAXI@Z 0000000140018aa8     KizuODBC:OdbcEnv.obj
 0002:00005aa8       $unwind$??_GControlDefragManager@@UEAAPEAXI@Z 0000000140018aa8     ControlDefragManager.obj
 0002:00005aa8       $unwind$??_GThreadManager@@UEAAPEAXI@Z 0000000140018aa8     KizuLibMFC:ThreadManager.obj
 0002:00005aa8       $unwind$?pbackfail@?$basic_filebuf@DU?$char_traits@D@std@@@std@@MEAAHH@Z 0000000140018aa8     KizuLibMFC:LogFileManager.obj
 0002:00005aa8       $unwind$??_GAutoLock@KizuLib@@UEAAPEAXI@Z 0000000140018aa8     KizuLibMFC:LogFileManager.obj
 0002:00005aa8       $unwind$??_GWorkThread@KizuLib@@UEAAPEAXI@Z 0000000140018aa8     KizuLib:WorkThread.obj
 0002:00005aa8       $unwind$??_GMainInctance@@UEAAPEAXI@Z 0000000140018aa8     MainInctance.obj
 0002:00005aa8       $unwind$??0CAtlBaseModule@ATL@@QEAA@XZ 0000000140018aa8     atls:atlbase.obj
 0002:00005aa8       $unwind$??_GDeleTable@@UEAAPEAXI@Z 0000000140018aa8     DeleTable.obj
 0002:00005aa8       $unwind$??_G?$ThreadQueue@D@KizuLib@@UEAAPEAXI@Z 0000000140018aa8     KizuLibMFC:LogFileManager.obj
 0002:00005aa8       $unwind$??_GLogFileManager@KizuLib@@UEAAPEAXI@Z 0000000140018aa8     KizuLibMFC:LogFileManager.obj
 0002:00005aa8       $unwind$??_GOdbcManager@KizuODBC@@UEAAPEAXI@Z 0000000140018aa8     KizuODBC:OdbcManager.obj
 0002:00005aa8       $unwind$??_GControlLowGr@@UEAAPEAXI@Z 0000000140018aa8     ControlLowGr.obj
 0002:00005ab4       $unwind$??1ControlDefragManager@@UEAA@XZ 0000000140018ab4     ControlDefragManager.obj
 0002:00005ad0       $ip2state$??1ControlDefragManager@@UEAA@XZ 0000000140018ad0     ControlDefragManager.obj
 0002:00005ad8       $unwind$?ThreadFirst@ControlDefragManager@@EEAAHXZ 0000000140018ad8     ControlDefragManager.obj
 0002:00005aec       $unwind$?ThreadLast@ControlDefragManager@@EEAAHXZ 0000000140018aec     ControlDefragManager.obj
 0002:00005b00       $unwind$?ThreadEvent@DefragManager@@EEAAXH@Z 0000000140018b00     DefragManager.obj
 0002:00005b00       $unwind$?Send@MailSlotManager@KizuLib@@UEAAHPEBXK@Z 0000000140018b00     KizuLib:MailSlotManager.obj
 0002:00005b00       $unwind$?ThreadEvent@ControlDefragManager@@EEAAXH@Z 0000000140018b00     ControlDefragManager.obj
 0002:00005b08       $unwind$?Exec@ControlDefragManager@@AEAAXXZ 0000000140018b08     ControlDefragManager.obj
 0002:00005b28       $stateUnwindMap$?Exec@ControlDefragManager@@AEAAXXZ 0000000140018b28     ControlDefragManager.obj
 0002:00005b38       $ip2state$?Exec@ControlDefragManager@@AEAAXXZ 0000000140018b38     ControlDefragManager.obj
 0002:00005b58       $unwind$??0ControlLowGr@@QEAA@XZ 0000000140018b58     ControlLowGr.obj
 0002:00005b80       $stateUnwindMap$??0ControlLowGr@@QEAA@XZ 0000000140018b80     ControlLowGr.obj
 0002:00005bd0       $ip2state$??0ControlLowGr@@QEAA@XZ 0000000140018bd0     ControlLowGr.obj
 0002:00005c60       $unwind$??1SETTING_TBL@@QEAA@XZ 0000000140018c60     ControlLowGr.obj
 0002:00005c70       $ip2state$??1SETTING_TBL@@QEAA@XZ 0000000140018c70     ControlLowGr.obj
 0002:00005c78       $unwind$??0MAIN@SETTING_TBL@@QEAA@XZ 0000000140018c78     ControlLowGr.obj
 0002:00005c88       $ip2state$??0MAIN@SETTING_TBL@@QEAA@XZ 0000000140018c88     ControlLowGr.obj
 0002:00005c90       $unwind$??1MAIN@SETTING_TBL@@QEAA@XZ 0000000140018c90     ControlLowGr.obj
 0002:00005ca0       $ip2state$??1MAIN@SETTING_TBL@@QEAA@XZ 0000000140018ca0     ControlLowGr.obj
 0002:00005ca8       $unwind$??1ControlLowGr@@UEAA@XZ 0000000140018ca8     ControlLowGr.obj
 0002:00005cbc       $stateUnwindMap$??_G?$basic_filebuf@DU?$char_traits@D@std@@@std@@UEAAPEAXI@Z 0000000140018cbc     KizuLibMFC:LogFileManager.obj
 0002:00005cbc       $stateUnwindMap$??1DeleTable@@UEAA@XZ 0000000140018cbc     DeleTable.obj
 0002:00005cbc       $stateUnwindMap$??1?$basic_ofstream@DU?$char_traits@D@std@@@std@@UEAA@XZ 0000000140018cbc     KizuLibMFC:LogFileManager.obj
 0002:00005cbc       $stateUnwindMap$??_G_Fac_node@std@@QEAAPEAXI@Z 0000000140018cbc     msvcprt:locale0_implib.obj
 0002:00005cbc       $stateUnwindMap$??1DefragManager@@UEAA@XZ 0000000140018cbc     DefragManager.obj
 0002:00005cbc       $stateUnwindMap$??1ControlLowGr@@UEAA@XZ 0000000140018cbc     ControlLowGr.obj
 0002:00005cbc       $stateUnwindMap$?SetStatus@KizuFunction@KizuLib@@SA_NHH_NPEBD@Z 0000000140018cbc     KizuLib:KizuFunction.obj
 0002:00005cbc       $stateUnwindMap$?SetPcName@KizuPcInfManager@KizuLib@@QEAA_NPEADPEBD1@Z 0000000140018cbc     KizuLib:KizuPcInfManager.obj
 0002:00005cbc       $stateUnwindMap$??1sentry@?$basic_ostream@DU?$char_traits@D@std@@@std@@QEAA@XZ 0000000140018cbc     KizuLibMFC:LogFileManager.obj
 0002:00005cbc       $stateUnwindMap$?GetSelectKey_Static@OdbcBase@KizuODBC@@SA_NPEBDPEAH00@Z 0000000140018cbc     KizuODBC:OdbcBase.obj
 0002:00005cc8       $ip2state$??1ControlLowGr@@UEAA@XZ 0000000140018cc8     ControlLowGr.obj
 0002:00005ce0       $unwind$?WorkerInit@ControlLowGr@@QEAAXXZ 0000000140018ce0     ControlLowGr.obj
 0002:00005cfc       $stateUnwindMap$?WorkerInit@ControlLowGr@@QEAAXXZ 0000000140018cfc     ControlLowGr.obj
 0002:00005d08       $ip2state$?WorkerInit@ControlLowGr@@QEAAXXZ 0000000140018d08     ControlLowGr.obj
 0002:00005d20       $unwind$?fin$0@?0???_M@YAXPEAX_K1P6AX0@Z@Z@4HA 0000000140018d20     msvcrt:ehvecdtr.obj
 0002:00005d20       $unwind$?filt$0@?0??SetThreadName@WorkThread@KizuLib@@SAXPEBDK@Z@4HA 0000000140018d20     KizuLib:WorkThread.obj
 0002:00005d20       $unwind$?filt$0@?0??__ArrayUnwind@@YAXPEAX_K1P6AX0@Z@Z@4HA 0000000140018d20     msvcrt:ehvecdtr.obj
 0002:00005d20       $unwind$?dtor$0@?0??InitProcess@CTI_DELETEDlg@@AEAAXXZ@4HA 0000000140018d20     TI_DELETEDlg.obj
 0002:00005d20       $unwind$?dtor$3@?0??WorkerInit@ControlManager@@QEAAXXZ@4HA 0000000140018d20     ControlManager.obj
 0002:00005d20       $unwind$?dtor$1@?0??Init@MainInctance@@QEAAHXZ@4HA 0000000140018d20     MainInctance.obj
 0002:00005d20       $unwind$?dtor$3@?0??Init@MainInctance@@QEAAHXZ@4HA 0000000140018d20     MainInctance.obj
 0002:00005d20       $unwind$?dtor$139@?0??push_back@?$vector@V?$CStringT@DV?$StrTraitMFC_DLL@DV?$ChTraitsCRT@D@ATL@@@@@ATL@@V?$allocator@V?$CStringT@DV?$StrTraitMFC_DLL@DV?$ChTraitsCRT@D@ATL@@@@@ATL@@@std@@@std@@QEAAX$$QEAV?$CStringT@DV?$StrTraitMFC_DLL@DV?$ChTraitsCRT@D@ATL@@@@@ATL@@@Z@4HA 0000000140018d20     DefragManager.obj
 0002:00005d20       $unwind$?dtor$3@?0???$_Uninitialized_move_al_unchecked1@PEAV?$CStringT@DV?$StrTraitMFC_DLL@DV?$ChTraitsCRT@D@ATL@@@@@ATL@@PEAV12@V?$allocator@V?$CStringT@DV?$StrTraitMFC_DLL@DV?$ChTraitsCRT@D@ATL@@@@@ATL@@@std@@@std@@YAPEAV?$CStringT@DV?$StrTraitMFC_DLL@DV?$ChTraitsCRT@D@ATL@@@@@ATL@@PEAV12@00AEAU?$_Wrap_alloc@V?$allocator@V?$CStringT@DV?$StrTraitMFC_DLL@DV?$ChTraitsCRT@D@ATL@@@@@ATL@@@std@@@0@U_General_ptr_iterator_tag@0@U_Any_tag@0@@Z@4HA 0000000140018d20     DefragManager.obj
 0002:00005d20       $unwind$?dtor$0@?0??WorkerInit@ControlManager@@QEAAXXZ@4HA 0000000140018d20     ControlManager.obj
 0002:00005d20       $unwind$?dtor$74@?0??push_back@?$vector@V?$CStringT@DV?$StrTraitMFC_DLL@DV?$ChTraitsCRT@D@ATL@@@@@ATL@@V?$allocator@V?$CStringT@DV?$StrTraitMFC_DLL@DV?$ChTraitsCRT@D@ATL@@@@@ATL@@@std@@@std@@QEAAX$$QEAV?$CStringT@DV?$StrTraitMFC_DLL@DV?$ChTraitsCRT@D@ATL@@@@@ATL@@@Z@4HA 0000000140018d20     DefragManager.obj
 0002:00005d20       $unwind$?dtor$0@?0??WorkerInit@ControlLowGr@@QEAAXXZ@4HA 0000000140018d20     ControlLowGr.obj
 0002:00005d20       $unwind$?dtor$2@?0??Init@MainInctance@@QEAAHXZ@4HA 0000000140018d20     MainInctance.obj
 0002:00005d20       $unwind$?fin$0@?0???_L@YAXPEAX_K1P6AX0@Z2@Z@4HA 0000000140018d20     msvcrt:ehvecctr.obj
 0002:00005d20       $unwind$?dtor$0@?0??GetThreadNameArray@@YA?AV?$CStringT@DV?$StrTraitMFC_DLL@DV?$ChTraitsCRT@D@ATL@@@@@ATL@@PEADH@Z@4HA 0000000140018d20     DeleLowGr.obj
 0002:00005d20       $unwind$?dtor$0@?0???0?$basic_ofstream@DU?$char_traits@D@std@@@std@@QEAA@XZ@4HA 0000000140018d20     KizuLibMFC:LogFileManager.obj
 0002:00005d20       $unwind$?dtor$0@?0??GetThreadNameArray@@YA?AV?$CStringT@DV?$StrTraitMFC_DLL@DV?$ChTraitsCRT@D@ATL@@@@@ATL@@PEADH@Z@4HA 0000000140018d20     DefragManager.obj
 0002:00005d20       $unwind$?filt$0@?0??__scrt_common_main_seh@@YAHXZ@4HA 0000000140018d20     msvcrt:exe_winmain.obj
 0002:00005d28       $unwind$?ThreadFirst@ControlLowGr@@EEAAHXZ 0000000140018d28     ControlLowGr.obj
 0002:00005d30       $unwind$?Check_TranSize@ControlManager@@AEAAXXZ 0000000140018d30     ControlManager.obj
 0002:00005d30       $unwind$?GetNowLogPath@LogFileManager@KizuLib@@QEAA?AV?$CStringT@DV?$StrTraitMFC_DLL@DV?$ChTraitsCRT@D@ATL@@@@@ATL@@XZ 0000000140018d30     KizuLibMFC:LogFileManager.obj
 0002:00005d30       $unwind$?ThreadFirst@DefragManager@@EEAAHXZ 0000000140018d30     DefragManager.obj
 0002:00005d30       $unwind$?ThreadEvent@DeleLowGr@@EEAAXH@Z 0000000140018d30     DeleLowGr.obj
 0002:00005d30       $unwind$?ThreadEvent@ControlLowGr@@EEAAXH@Z 0000000140018d30     ControlLowGr.obj
 0002:00005d38       $unwind$?CheckDeleListItem@ControlLowGr@@AEAA_NXZ 0000000140018d38     ControlLowGr.obj
 0002:00005d60       $stateUnwindMap$?CheckDeleListItem@ControlLowGr@@AEAA_NXZ 0000000140018d60     ControlLowGr.obj
 0002:00005d70       $ip2state$?CheckDeleListItem@ControlLowGr@@AEAA_NXZ 0000000140018d70     ControlLowGr.obj
 0002:00005d90       $unwind$?BackUpDeleListItem@ControlLowGr@@AEAA_NXZ 0000000140018d90     ControlLowGr.obj
 0002:00005dbc       $stateUnwindMap$?BackUpDeleListItem@ControlLowGr@@AEAA_NXZ 0000000140018dbc     ControlLowGr.obj
 0002:00005de0       $ip2state$?BackUpDeleListItem@ControlLowGr@@AEAA_NXZ 0000000140018de0     ControlLowGr.obj
 0002:00005e20       $unwind$??0ControlManager@@QEAA@PEADPEAVLogFileManager@KizuLib@@@Z 0000000140018e20     ControlManager.obj
 0002:00005e50       $stateUnwindMap$??0ControlManager@@QEAA@PEADPEAVLogFileManager@KizuLib@@@Z 0000000140018e50     ControlManager.obj
 0002:00005e80       $ip2state$??0ControlManager@@QEAA@PEADPEAVLogFileManager@KizuLib@@@Z 0000000140018e80     ControlManager.obj
 0002:00005ec0       $unwind$?WorkerInit@ControlManager@@QEAAXXZ 0000000140018ec0     ControlManager.obj
 0002:00005ee0       $stateUnwindMap$?WorkerInit@ControlManager@@QEAAXXZ 0000000140018ee0     ControlManager.obj
 0002:00005f00       $ip2state$?WorkerInit@ControlManager@@QEAAXXZ 0000000140018f00     ControlManager.obj
 0002:00005f48       $unwind$?WorkerExit@ControlManager@@QEAAXXZ 0000000140018f48     ControlManager.obj
 0002:00005f5c       $chain$0$?WorkerExit@ControlManager@@QEAAXXZ 0000000140018f5c     ControlManager.obj
 0002:00005f70       $chain$1$?WorkerExit@ControlManager@@QEAAXXZ 0000000140018f70     ControlManager.obj
 0002:00005f80       $unwind$?MainThread@ControlManager@@CAIPEAX@Z 0000000140018f80     ControlManager.obj
 0002:00005f9c       $unwind$?CheckDB_Size@ControlManager@@AEAAXXZ 0000000140018f9c     ControlManager.obj
 0002:00005f9c       $unwind$?ThreadMainLoop@ThreadManager@@MEAAHXZ 0000000140018f9c     KizuLibMFC:ThreadManager.obj
 0002:00005f9c       $unwind$?Send@MailSlotManager@KizuLib@@UEAA_NPEBXKPEAU_OVERLAPPED@@@Z 0000000140018f9c     KizuLib:MailSlotManager.obj
 0002:00005f9c       $unwind$?Recv@MailSlotManager@KizuLib@@UEAA_NPEAXKPEAU_OVERLAPPED@@@Z 0000000140018f9c     KizuLib:MailSlotManager.obj
 0002:00005fa8       $unwind$?GetDB_Size@ControlManager@@AEAAHXZ 0000000140018fa8     ControlManager.obj
 0002:00005fc8       $stateUnwindMap$?GetDB_Size@ControlManager@@AEAAHXZ 0000000140018fc8     ControlManager.obj
 0002:00005fc8       $stateUnwindMap$?Delete_OldInf@KizuDeleteManager@@IEAA_NPEBD00H0@Z 0000000140018fc8     KizuDeleteManager.obj
 0002:00005fe0       $ip2state$?GetDB_Size@ControlManager@@AEAAHXZ 0000000140018fe0     ControlManager.obj
 0002:00006008       $unwind$?GetThreadNameArray@@YA?AV?$CStringT@DV?$StrTraitMFC_DLL@DV?$ChTraitsCRT@D@ATL@@@@@ATL@@PEADH@Z 0000000140019008     DefragManager.obj
 0002:0000601c       $stateUnwindMap$?GetThreadNameArray@@YA?AV?$CStringT@DV?$StrTraitMFC_DLL@DV?$ChTraitsCRT@D@ATL@@@@@ATL@@PEADH@Z 000000014001901c     DeleLowGr.obj
 0002:0000601c       $stateUnwindMap$?GetThreadNameArray@@YA?AV?$CStringT@DV?$StrTraitMFC_DLL@DV?$ChTraitsCRT@D@ATL@@@@@ATL@@PEADH@Z 000000014001901c     DefragManager.obj
 0002:00006028       $ip2state$?GetThreadNameArray@@YA?AV?$CStringT@DV?$StrTraitMFC_DLL@DV?$ChTraitsCRT@D@ATL@@@@@ATL@@PEADH@Z 0000000140019028     DefragManager.obj
 0002:00006038       $unwind$??0DefragManager@@QEAA@HPEAD@Z 0000000140019038     DefragManager.obj
 0002:00006060       $stateUnwindMap$??0DefragManager@@QEAA@HPEAD@Z 0000000140019060     DefragManager.obj
 0002:000060a0       $ip2state$??0DefragManager@@QEAA@HPEAD@Z 00000001400190a0     DefragManager.obj
 0002:00006100       $unwind$??1DefragManager@@UEAA@XZ 0000000140019100     DefragManager.obj
 0002:00006118       $ip2state$??1DefragManager@@UEAA@XZ 0000000140019118     DefragManager.obj
 0002:00006130       $unwind$?MainThread@WorkThread@KizuLib@@MEAAIXZ 0000000140019130     KizuLib:WorkThread.obj
 0002:00006130       $unwind$__scrt_is_managed_app 0000000140019130     msvcrt:utility_desktop.obj
 0002:00006130       $unwind$??__E?m_inst@OdbcEnv@KizuODBC@@0V12@A@@YAXXZ 0000000140019130     KizuODBC:OdbcEnv.obj
 0002:00006130       $unwind$??__F?m_inst@OdbcEnv@KizuODBC@@0V12@A@@YAXXZ 0000000140019130     KizuODBC:OdbcEnv.obj
 0002:00006130       $unwind$__scrt_acquire_startup_lock 0000000140019130     msvcrt:utility.obj
 0002:00006130       $unwind$?allocate@?$_Wrap_alloc@V?$allocator@D@std@@@std@@QEAAPEAD_K@Z 0000000140019130     KizuLibMFC:LogFileManager.obj
 0002:00006130       $unwind$__GSHandlerCheck   0000000140019130     msvcrt:_gshandler_.obj
 0002:00006130       $unwind$__scrt_unhandled_exception_filter 0000000140019130     msvcrt:utility_desktop.obj
 0002:00006130       $unwind$?__scrt_uninitialize_thread_safe_statics@@YAXXZ 0000000140019130     msvcrt:thread_safe_statics.obj
 0002:00006130       $unwind$?ThreadLast@DefragManager@@EEAAHXZ 0000000140019130     DefragManager.obj
 0002:00006130       $unwind$??__E_afxInitAppState@@YAXXZ 0000000140019130     mfcs140:appmodul.obj
 0002:00006130       $unwind$atexit             0000000140019130     msvcrt:utility.obj
 0002:00006130       $unwind$??__F_Fac_tidy_reg@std@@YAXXZ 0000000140019130     msvcprt:locale0_implib.obj
 0002:00006130       $unwind$?post_pgo_initialization@@YAHXZ 0000000140019130     msvcrt:exe_winmain.obj
 0002:00006130       $unwind$WinMainCRTStartup  0000000140019130     msvcrt:exe_winmain.obj
 0002:00006130       $unwind$?pre_cpp_initialization@@YAXXZ 0000000140019130     msvcrt:exe_winmain.obj
 0002:00006130       $unwind$__scrt_initialize_default_local_stdio_options 0000000140019130     msvcrt:default_local_stdio_options.obj
 0002:00006130       $unwind$??__E_AtlBaseModule@ATL@@YAXXZ 0000000140019130     atls:atlbase.obj
 0002:00006130       $unwind$??__EtheApp@@YAXXZ 0000000140019130     TI_DELETE.obj
 0002:00006130       $unwind$?deallocate@?$_Wrap_alloc@V?$allocator@V?$CStringT@DV?$StrTraitMFC_DLL@DV?$ChTraitsCRT@D@ATL@@@@@ATL@@@std@@@std@@QEAAXPEAV?$CStringT@DV?$StrTraitMFC_DLL@DV?$ChTraitsCRT@D@ATL@@@@@ATL@@_K@Z 0000000140019130     DefragManager.obj
 0002:00006138       $unwind$?Exec@DefragManager@@AEAAXXZ 0000000140019138     DefragManager.obj
 0002:0000615c       $stateUnwindMap$?Exec@DefragManager@@AEAAXXZ 000000014001915c     DefragManager.obj
 0002:00006168       $ip2state$?Exec@DefragManager@@AEAAXXZ 0000000140019168     DefragManager.obj
 0002:00006180       $unwind$?GetIndexTables@DefragManager@@AEAA_NPEBDPEAV?$vector@V?$CStringT@DV?$StrTraitMFC_DLL@DV?$ChTraitsCRT@D@ATL@@@@@ATL@@V?$allocator@V?$CStringT@DV?$StrTraitMFC_DLL@DV?$ChTraitsCRT@D@ATL@@@@@ATL@@@std@@@std@@@Z 0000000140019180     DefragManager.obj
 0002:000061a0       $stateUnwindMap$?GetIndexTables@DefragManager@@AEAA_NPEBDPEAV?$vector@V?$CStringT@DV?$StrTraitMFC_DLL@DV?$ChTraitsCRT@D@ATL@@@@@ATL@@V?$allocator@V?$CStringT@DV?$StrTraitMFC_DLL@DV?$ChTraitsCRT@D@ATL@@@@@ATL@@@std@@@std@@@Z 00000001400191a0     DefragManager.obj
 0002:000061c0       $ip2state$?GetIndexTables@DefragManager@@AEAA_NPEBDPEAV?$vector@V?$CStringT@DV?$StrTraitMFC_DLL@DV?$ChTraitsCRT@D@ATL@@@@@ATL@@V?$allocator@V?$CStringT@DV?$StrTraitMFC_DLL@DV?$ChTraitsCRT@D@ATL@@@@@ATL@@@std@@@std@@@Z 00000001400191c0     DefragManager.obj
 0002:000061f8       $unwind$?ExecDefrag@DefragManager@@AEAAHPEBD0@Z 00000001400191f8     DefragManager.obj
 0002:00006220       $stateUnwindMap$?ExecDefrag@DefragManager@@AEAAHPEBD0@Z 0000000140019220     DefragManager.obj
 0002:00006240       $ip2state$?ExecDefrag@DefragManager@@AEAAHPEBD0@Z 0000000140019240     DefragManager.obj
 0002:00006278       $unwind$?push_back@?$vector@V?$CStringT@DV?$StrTraitMFC_DLL@DV?$ChTraitsCRT@D@ATL@@@@@ATL@@V?$allocator@V?$CStringT@DV?$StrTraitMFC_DLL@DV?$ChTraitsCRT@D@ATL@@@@@ATL@@@std@@@std@@QEAAX$$QEAV?$CStringT@DV?$StrTraitMFC_DLL@DV?$ChTraitsCRT@D@ATL@@@@@ATL@@@Z 0000000140019278     DefragManager.obj
 0002:0000628c       $stateUnwindMap$?push_back@?$vector@V?$CStringT@DV?$StrTraitMFC_DLL@DV?$ChTraitsCRT@D@ATL@@@@@ATL@@V?$allocator@V?$CStringT@DV?$StrTraitMFC_DLL@DV?$ChTraitsCRT@D@ATL@@@@@ATL@@@std@@@std@@QEAAX$$QEAV?$CStringT@DV?$StrTraitMFC_DLL@DV?$ChTraitsCRT@D@ATL@@@@@ATL@@@Z 000000014001928c     DefragManager.obj
 0002:000062a0       $ip2state$?push_back@?$vector@V?$CStringT@DV?$StrTraitMFC_DLL@DV?$ChTraitsCRT@D@ATL@@@@@ATL@@V?$allocator@V?$CStringT@DV?$StrTraitMFC_DLL@DV?$ChTraitsCRT@D@ATL@@@@@ATL@@@std@@@std@@QEAAX$$QEAV?$CStringT@DV?$StrTraitMFC_DLL@DV?$ChTraitsCRT@D@ATL@@@@@ATL@@@Z 00000001400192a0     DefragManager.obj
 0002:000062c8       $unwind$?_Tidy@?$vector@V?$CStringT@DV?$StrTraitMFC_DLL@DV?$ChTraitsCRT@D@ATL@@@@@ATL@@V?$allocator@V?$CStringT@DV?$StrTraitMFC_DLL@DV?$ChTraitsCRT@D@ATL@@@@@ATL@@@std@@@std@@IEAAXXZ 00000001400192c8     DefragManager.obj
 0002:000062d4       $chain$0$?_Tidy@?$vector@V?$CStringT@DV?$StrTraitMFC_DLL@DV?$ChTraitsCRT@D@ATL@@@@@ATL@@V?$allocator@V?$CStringT@DV?$StrTraitMFC_DLL@DV?$ChTraitsCRT@D@ATL@@@@@ATL@@@std@@@std@@IEAAXXZ 00000001400192d4     DefragManager.obj
 0002:000062e8       $chain$1$?_Tidy@?$vector@V?$CStringT@DV?$StrTraitMFC_DLL@DV?$ChTraitsCRT@D@ATL@@@@@ATL@@V?$allocator@V?$CStringT@DV?$StrTraitMFC_DLL@DV?$ChTraitsCRT@D@ATL@@@@@ATL@@@std@@@std@@IEAAXXZ 00000001400192e8     DefragManager.obj
 0002:000062f8       $unwind$?_Reallocate@?$vector@V?$CStringT@DV?$StrTraitMFC_DLL@DV?$ChTraitsCRT@D@ATL@@@@@ATL@@V?$allocator@V?$CStringT@DV?$StrTraitMFC_DLL@DV?$ChTraitsCRT@D@ATL@@@@@ATL@@@std@@@std@@IEAAX_K@Z 00000001400192f8     DefragManager.obj
 0002:00006318       $stateUnwindMap$?_Reallocate@?$vector@V?$CStringT@DV?$StrTraitMFC_DLL@DV?$ChTraitsCRT@D@ATL@@@@@ATL@@V?$allocator@V?$CStringT@DV?$StrTraitMFC_DLL@DV?$ChTraitsCRT@D@ATL@@@@@ATL@@@std@@@std@@IEAAX_K@Z 0000000140019318     DefragManager.obj
 0002:00006328       $tryMap$?_Reallocate@?$vector@V?$CStringT@DV?$StrTraitMFC_DLL@DV?$ChTraitsCRT@D@ATL@@@@@ATL@@V?$allocator@V?$CStringT@DV?$StrTraitMFC_DLL@DV?$ChTraitsCRT@D@ATL@@@@@ATL@@@std@@@std@@IEAAX_K@Z 0000000140019328     DefragManager.obj
 0002:0000633c       $handlerMap$0$?_Reallocate@?$vector@V?$CStringT@DV?$StrTraitMFC_DLL@DV?$ChTraitsCRT@D@ATL@@@@@ATL@@V?$allocator@V?$CStringT@DV?$StrTraitMFC_DLL@DV?$ChTraitsCRT@D@ATL@@@@@ATL@@@std@@@std@@IEAAX_K@Z 000000014001933c     DefragManager.obj
 0002:00006350       $ip2state$?_Reallocate@?$vector@V?$CStringT@DV?$StrTraitMFC_DLL@DV?$ChTraitsCRT@D@ATL@@@@@ATL@@V?$allocator@V?$CStringT@DV?$StrTraitMFC_DLL@DV?$ChTraitsCRT@D@ATL@@@@@ATL@@@std@@@std@@IEAAX_K@Z 0000000140019350     DefragManager.obj
 0002:00006378       $unwind$?catch$51@?0??_Reallocate@?$vector@V?$CStringT@DV?$StrTraitMFC_DLL@DV?$ChTraitsCRT@D@ATL@@@@@ATL@@V?$allocator@V?$CStringT@DV?$StrTraitMFC_DLL@DV?$ChTraitsCRT@D@ATL@@@@@ATL@@@std@@@std@@IEAAX_K@Z@4HA 0000000140019378     DefragManager.obj
 0002:00006388       $unwind$??$_Uninitialized_move_al_unchecked1@PEAV?$CStringT@DV?$StrTraitMFC_DLL@DV?$ChTraitsCRT@D@ATL@@@@@ATL@@PEAV12@V?$allocator@V?$CStringT@DV?$StrTraitMFC_DLL@DV?$ChTraitsCRT@D@ATL@@@@@ATL@@@std@@@std@@YAPEAV?$CStringT@DV?$StrTraitMFC_DLL@DV?$ChTraitsCRT@D@ATL@@@@@ATL@@PEAV12@00AEAU?$_Wrap_alloc@V?$allocator@V?$CStringT@DV?$StrTraitMFC_DLL@DV?$ChTraitsCRT@D@ATL@@@@@ATL@@@std@@@0@U_General_ptr_iterator_tag@0@U_Any_tag@0@@Z 0000000140019388     DefragManager.obj
 0002:0000639c       $stateUnwindMap$??$_Uninitialized_move_al_unchecked1@PEAV?$CStringT@DV?$StrTraitMFC_DLL@DV?$ChTraitsCRT@D@ATL@@@@@ATL@@PEAV12@V?$allocator@V?$CStringT@DV?$StrTraitMFC_DLL@DV?$ChTraitsCRT@D@ATL@@@@@ATL@@@std@@@std@@YAPEAV?$CStringT@DV?$StrTraitMFC_DLL@DV?$ChTraitsCRT@D@ATL@@@@@ATL@@PEAV12@00AEAU?$_Wrap_alloc@V?$allocator@V?$CStringT@DV?$StrTraitMFC_DLL@DV?$ChTraitsCRT@D@ATL@@@@@ATL@@@std@@@0@U_General_ptr_iterator_tag@0@U_Any_tag@0@@Z 000000014001939c     DefragManager.obj
 0002:000063b4       $tryMap$??$_Uninitialized_move_al_unchecked1@PEAV?$CStringT@DV?$StrTraitMFC_DLL@DV?$ChTraitsCRT@D@ATL@@@@@ATL@@PEAV12@V?$allocator@V?$CStringT@DV?$StrTraitMFC_DLL@DV?$ChTraitsCRT@D@ATL@@@@@ATL@@@std@@@std@@YAPEAV?$CStringT@DV?$StrTraitMFC_DLL@DV?$ChTraitsCRT@D@ATL@@@@@ATL@@PEAV12@00AEAU?$_Wrap_alloc@V?$allocator@V?$CStringT@DV?$StrTraitMFC_DLL@DV?$ChTraitsCRT@D@ATL@@@@@ATL@@@std@@@0@U_General_ptr_iterator_tag@0@U_Any_tag@0@@Z 00000001400193b4     DefragManager.obj
 0002:000063c8       $handlerMap$0$??$_Uninitialized_move_al_unchecked1@PEAV?$CStringT@DV?$StrTraitMFC_DLL@DV?$ChTraitsCRT@D@ATL@@@@@ATL@@PEAV12@V?$allocator@V?$CStringT@DV?$StrTraitMFC_DLL@DV?$ChTraitsCRT@D@ATL@@@@@ATL@@@std@@@std@@YAPEAV?$CStringT@DV?$StrTraitMFC_DLL@DV?$ChTraitsCRT@D@ATL@@@@@ATL@@PEAV12@00AEAU?$_Wrap_alloc@V?$allocator@V?$CStringT@DV?$StrTraitMFC_DLL@DV?$ChTraitsCRT@D@ATL@@@@@ATL@@@std@@@0@U_General_ptr_iterator_tag@0@U_Any_tag@0@@Z 00000001400193c8     DefragManager.obj
 0002:000063e0       $ip2state$??$_Uninitialized_move_al_unchecked1@PEAV?$CStringT@DV?$StrTraitMFC_DLL@DV?$ChTraitsCRT@D@ATL@@@@@ATL@@PEAV12@V?$allocator@V?$CStringT@DV?$StrTraitMFC_DLL@DV?$ChTraitsCRT@D@ATL@@@@@ATL@@@std@@@std@@YAPEAV?$CStringT@DV?$StrTraitMFC_DLL@DV?$ChTraitsCRT@D@ATL@@@@@ATL@@PEAV12@00AEAU?$_Wrap_alloc@V?$allocator@V?$CStringT@DV?$StrTraitMFC_DLL@DV?$ChTraitsCRT@D@ATL@@@@@ATL@@@std@@@0@U_General_ptr_iterator_tag@0@U_Any_tag@0@@Z 00000001400193e0     DefragManager.obj
 0002:00006418       $unwind$?catch$5@?0???$_Uninitialized_move_al_unchecked1@PEAV?$CStringT@DV?$StrTraitMFC_DLL@DV?$ChTraitsCRT@D@ATL@@@@@ATL@@PEAV12@V?$allocator@V?$CStringT@DV?$StrTraitMFC_DLL@DV?$ChTraitsCRT@D@ATL@@@@@ATL@@@std@@@std@@YAPEAV?$CStringT@DV?$StrTraitMFC_DLL@DV?$ChTraitsCRT@D@ATL@@@@@ATL@@PEAV12@00AEAU?$_Wrap_alloc@V?$allocator@V?$CStringT@DV?$StrTraitMFC_DLL@DV?$ChTraitsCRT@D@ATL@@@@@ATL@@@std@@@0@U_General_ptr_iterator_tag@0@U_Any_tag@0@@Z@4HA 0000000140019418     DefragManager.obj
 0002:0000642c       $unwind$?GetThreadNameArray@@YA?AV?$CStringT@DV?$StrTraitMFC_DLL@DV?$ChTraitsCRT@D@ATL@@@@@ATL@@PEADH@Z 000000014001942c     DeleLowGr.obj
 0002:00006440       $ip2state$?GetThreadNameArray@@YA?AV?$CStringT@DV?$StrTraitMFC_DLL@DV?$ChTraitsCRT@D@ATL@@@@@ATL@@PEADH@Z 0000000140019440     DeleLowGr.obj
 0002:00006450       $unwind$??0DeleLowGr@@QEAA@HPEAXPEBUSETTING_TBL@@@Z 0000000140019450     DeleLowGr.obj
 0002:00006470       $stateUnwindMap$??0DeleLowGr@@QEAA@HPEAXPEBUSETTING_TBL@@@Z 0000000140019470     DeleLowGr.obj
 0002:00006490       $ip2state$??0DeleLowGr@@QEAA@HPEAXPEBUSETTING_TBL@@@Z 0000000140019490     DeleLowGr.obj
 0002:000064b8       $unwind$?StartExec@DeleLowGr@@AEAA_NXZ 00000001400194b8     DeleLowGr.obj
 0002:000064d8       $stateUnwindMap$?StartExec@DeleLowGr@@AEAA_NXZ 00000001400194d8     DeleLowGr.obj
 0002:000064f0       $ip2state$?StartExec@DeleLowGr@@AEAA_NXZ 00000001400194f0     DeleLowGr.obj
 0002:00006518       $unwind$?DeleteInf@DeleLowGr@@AEAA_NPEAVOdbcBase@KizuODBC@@PEBD111H@Z 0000000140019518     DeleLowGr.obj
 0002:00006534       $stateUnwindMap$?DeleteInf@DeleLowGr@@AEAA_NPEAVOdbcBase@KizuODBC@@PEBD111H@Z 0000000140019534     DeleLowGr.obj
 0002:00006540       $ip2state$?DeleteInf@DeleLowGr@@AEAA_NPEAVOdbcBase@KizuODBC@@PEBD111H@Z 0000000140019540     DeleLowGr.obj
 0002:00006558       $unwind$?SetDeleteOkFlg@DeleLowGr@@AEAA_NPEAVOdbcBase@KizuODBC@@PEBD@Z 0000000140019558     DeleLowGr.obj
 0002:00006570       $stateUnwindMap$?SetDeleteOkFlg@DeleLowGr@@AEAA_NPEAVOdbcBase@KizuODBC@@PEBD@Z 0000000140019570     DeleLowGr.obj
 0002:00006578       $ip2state$?SetDeleteOkFlg@DeleLowGr@@AEAA_NPEAVOdbcBase@KizuODBC@@PEBD@Z 0000000140019578     DeleLowGr.obj
 0002:00006590       $unwind$??0DeleTable@@QEAA@HPEAHPEAX1V?$CStringT@DV?$StrTraitMFC_DLL@DV?$ChTraitsCRT@D@ATL@@@@@ATL@@2@Z 0000000140019590     DeleTable.obj
 0002:000065bc       $stateUnwindMap$??0DeleTable@@QEAA@HPEAHPEAX1V?$CStringT@DV?$StrTraitMFC_DLL@DV?$ChTraitsCRT@D@ATL@@@@@ATL@@2@Z 00000001400195bc     DeleTable.obj
 0002:00006620       $ip2state$??0DeleTable@@QEAA@HPEAHPEAX1V?$CStringT@DV?$StrTraitMFC_DLL@DV?$ChTraitsCRT@D@ATL@@@@@ATL@@2@Z 0000000140019620     DeleTable.obj
 0002:000066c8       $unwind$??1DeleTable@@UEAA@XZ 00000001400196c8     DeleTable.obj
 0002:000066e0       $ip2state$??1DeleTable@@UEAA@XZ 00000001400196e0     DeleTable.obj
 0002:00006718       $unwind$?ExecCycle@DeleTable@@EEAAXXZ 0000000140019718     DeleTable.obj
 0002:00006728       $chain$0$?ExecCycle@DeleTable@@EEAAXXZ 0000000140019728     DeleTable.obj
 0002:0000673c       $chain$1$?ExecCycle@DeleTable@@EEAAXXZ 000000014001973c     DeleTable.obj
 0002:0000674c       $unwind$?ExecSizeMin@DeleTable@@EEAAXXZ 000000014001974c     DeleTable.obj
 0002:00006768       $unwind$?ExecFast@DeleTable@@EEAAXXZ 0000000140019768     DeleTable.obj
 0002:00006778       $unwind$?Delete_BackUp@DeleTable@@AEAAXPEBD@Z 0000000140019778     DeleTable.obj
 0002:00006788       $chain$0$?Delete_BackUp@DeleTable@@AEAAXPEBD@Z 0000000140019788     DeleTable.obj
 0002:0000679c       $chain$1$?Delete_BackUp@DeleTable@@AEAAXPEBD@Z 000000014001979c     DeleTable.obj
 0002:000067b0       $chain$2$?Delete_BackUp@DeleTable@@AEAAXPEBD@Z 00000001400197b0     DeleTable.obj
 0002:000067c0       $chain$3$?Delete_BackUp@DeleTable@@AEAAXPEBD@Z 00000001400197c0     DeleTable.obj
 0002:000067d0       $unwind$??0KizuDeleteManager@@QEAA@HPEAHPEAX1V?$CStringT@DV?$StrTraitMFC_DLL@DV?$ChTraitsCRT@D@ATL@@@@@ATL@@2@Z 00000001400197d0     KizuDeleteManager.obj
 0002:000067ec       $stateUnwindMap$??0KizuDeleteManager@@QEAA@HPEAHPEAX1V?$CStringT@DV?$StrTraitMFC_DLL@DV?$ChTraitsCRT@D@ATL@@@@@ATL@@2@Z 00000001400197ec     KizuDeleteManager.obj
 0002:00006810       $ip2state$??0KizuDeleteManager@@QEAA@HPEAHPEAX1V?$CStringT@DV?$StrTraitMFC_DLL@DV?$ChTraitsCRT@D@ATL@@@@@ATL@@2@Z 0000000140019810     KizuDeleteManager.obj
 0002:00006840       $unwind$?MainThread@KizuDeleteManager@@KAIPEAX@Z 0000000140019840     KizuDeleteManager.obj
 0002:00006850       $unwind$?Select_OldKey@KizuDeleteManager@@IEAA_NPEBD0HPEAD@Z 0000000140019850     KizuDeleteManager.obj
 0002:00006870       $stateUnwindMap$?Select_OldKey@KizuDeleteManager@@IEAA_NPEBD0HPEAD@Z 0000000140019870     KizuDeleteManager.obj
 0002:00006888       $ip2state$?Select_OldKey@KizuDeleteManager@@IEAA_NPEBD0HPEAD@Z 0000000140019888     KizuDeleteManager.obj
 0002:000068b0       $unwind$?Select_OldKey@KizuDeleteManager@@IEAA_NPEBD00HPEAD@Z 00000001400198b0     KizuDeleteManager.obj
 0002:000068d0       $stateUnwindMap$?Select_OldKey@KizuDeleteManager@@IEAA_NPEBD00HPEAD@Z 00000001400198d0     KizuDeleteManager.obj
 0002:000068e8       $ip2state$?Select_OldKey@KizuDeleteManager@@IEAA_NPEBD00HPEAD@Z 00000001400198e8     KizuDeleteManager.obj
 0002:00006910       $unwind$?Exec_Shrink@KizuDeleteManager@@IEAA_NXZ 0000000140019910     KizuDeleteManager.obj
 0002:00006924       $stateUnwindMap$?Exec_Shrink@KizuDeleteManager@@IEAA_NXZ 0000000140019924     KizuDeleteManager.obj
 0002:00006940       $ip2state$?Exec_Shrink@KizuDeleteManager@@IEAA_NXZ 0000000140019940     KizuDeleteManager.obj
 0002:00006968       $unwind$?Delete_Day@KizuDeleteManager@@IEAA_NPEBD0H@Z 0000000140019968     KizuDeleteManager.obj
 0002:00006984       $stateUnwindMap$?Delete_Day@KizuDeleteManager@@IEAA_NPEBD0H@Z 0000000140019984     KizuDeleteManager.obj
 0002:000069a0       $ip2state$?Delete_Day@KizuDeleteManager@@IEAA_NPEBD0H@Z 00000001400199a0     KizuDeleteManager.obj
 0002:000069c8       $unwind$?Delete_Day2@KizuDeleteManager@@IEAA_NPEBD0H@Z 00000001400199c8     KizuDeleteManager.obj
 0002:000069ec       $stateUnwindMap$?Delete_Day2@KizuDeleteManager@@IEAA_NPEBD0H@Z 00000001400199ec     KizuDeleteManager.obj
 0002:00006a08       $ip2state$?Delete_Day2@KizuDeleteManager@@IEAA_NPEBD0H@Z 0000000140019a08     KizuDeleteManager.obj
 0002:00006a30       $unwind$?Delete_Cnt@KizuDeleteManager@@IEAA_NPEBD00HH@Z 0000000140019a30     KizuDeleteManager.obj
 0002:00006a54       $stateUnwindMap$?Delete_Cnt@KizuDeleteManager@@IEAA_NPEBD00HH@Z 0000000140019a54     KizuDeleteManager.obj
 0002:00006a70       $ip2state$?Delete_Cnt@KizuDeleteManager@@IEAA_NPEBD00HH@Z 0000000140019a70     KizuDeleteManager.obj
 0002:00006a98       $unwind$?Delete_Inf@KizuDeleteManager@@IEAA_NPEBD00@Z 0000000140019a98     KizuDeleteManager.obj
 0002:00006ab8       $stateUnwindMap$?Delete_Inf@KizuDeleteManager@@IEAA_NPEBD00@Z 0000000140019ab8     KizuDeleteManager.obj
 0002:00006ad0       $ip2state$?Delete_Inf@KizuDeleteManager@@IEAA_NPEBD00@Z 0000000140019ad0     KizuDeleteManager.obj
 0002:00006af8       $unwind$?Delete_Inf@KizuDeleteManager@@IEAA_NPEBD00H0@Z 0000000140019af8     KizuDeleteManager.obj
 0002:00006b1c       $stateUnwindMap$?Delete_Inf@KizuDeleteManager@@IEAA_NPEBD00H0@Z 0000000140019b1c     KizuDeleteManager.obj
 0002:00006b38       $ip2state$?Delete_Inf@KizuDeleteManager@@IEAA_NPEBD00H0@Z 0000000140019b38     KizuDeleteManager.obj
 0002:00006b60       $unwind$?Delete_OldInf@KizuDeleteManager@@IEAA_NPEBD00H0@Z 0000000140019b60     KizuDeleteManager.obj
 0002:00006b88       $ip2state$?Delete_OldInf@KizuDeleteManager@@IEAA_NPEBD00H0@Z 0000000140019b88     KizuDeleteManager.obj
 0002:00006bb0       $unwind$??0MainInctance@@QEAA@XZ 0000000140019bb0     MainInctance.obj
 0002:00006bc4       $stateUnwindMap$??0MainInctance@@QEAA@XZ 0000000140019bc4     MainInctance.obj
 0002:00006bd0       $ip2state$??0MainInctance@@QEAA@XZ 0000000140019bd0     MainInctance.obj
 0002:00006be8       $unwind$?Init@MainInctance@@QEAAHXZ 0000000140019be8     MainInctance.obj
 0002:00006c0c       $stateUnwindMap$?Init@MainInctance@@QEAAHXZ 0000000140019c0c     MainInctance.obj
 0002:00006c30       $ip2state$?Init@MainInctance@@QEAAHXZ 0000000140019c30     MainInctance.obj
 0002:00006c78       $unwind$?Exit@MainInctance@@QEAAXXZ 0000000140019c78     MainInctance.obj
 0002:00006c84       $chain$3$?Exit@MainInctance@@QEAAXXZ 0000000140019c84     MainInctance.obj
 0002:00006ca4       $chain$4$?Exit@MainInctance@@QEAAXXZ 0000000140019ca4     MainInctance.obj
 0002:00006cb8       $chain$5$?Exit@MainInctance@@QEAAXXZ 0000000140019cb8     MainInctance.obj
 0002:00006cc8       $chain$6$?Exit@MainInctance@@QEAAXXZ 0000000140019cc8     MainInctance.obj
 0002:00006cdc       $chain$7$?Exit@MainInctance@@QEAAXXZ 0000000140019cdc     MainInctance.obj
 0002:00006cec       $unwind$?SetWaitMode@MainInctance@@QEAAX_N@Z 0000000140019cec     MainInctance.obj
 0002:00006cfc       $chain$1$?SetWaitMode@MainInctance@@QEAAX_N@Z 0000000140019cfc     MainInctance.obj
 0002:00006d14       $chain$2$?SetWaitMode@MainInctance@@QEAAX_N@Z 0000000140019d14     MainInctance.obj
 0002:00006d24       $unwind$?MainThread@MainInctance@@CAIPEAX@Z 0000000140019d24     MainInctance.obj
 0002:00006d24       $unwind$?MainThread@LogFileManager@KizuLib@@CAIPEAX@Z 0000000140019d24     KizuLibMFC:LogFileManager.obj
 0002:00006d2c       $unwind$?InitInstance@CTI_DELETEApp@@UEAAHXZ 0000000140019d2c     TI_DELETE.obj
 0002:00006d40       $stateUnwindMap$?InitInstance@CTI_DELETEApp@@UEAAHXZ 0000000140019d40     TI_DELETE.obj
 0002:00006d68       $ip2state$?InitInstance@CTI_DELETEApp@@UEAAHXZ 0000000140019d68     TI_DELETE.obj
 0002:00006da0       $unwind$?OnInitDialog@CTI_DELETEDlg@@MEAAHXZ 0000000140019da0     TI_DELETEDlg.obj
 0002:00006db0       $stateUnwindMap$?OnInitDialog@CTI_DELETEDlg@@MEAAHXZ 0000000140019db0     TI_DELETEDlg.obj
 0002:00006db8       $ip2state$?OnInitDialog@CTI_DELETEDlg@@MEAAHXZ 0000000140019db8     TI_DELETEDlg.obj
 0002:00006dd0       $unwind$?OnPaint@CTI_DELETEDlg@@IEAAXXZ 0000000140019dd0     TI_DELETEDlg.obj
 0002:00006de4       $chain$1$?OnPaint@CTI_DELETEDlg@@IEAAXXZ 0000000140019de4     TI_DELETEDlg.obj
 0002:00006dfc       $chain$2$?OnPaint@CTI_DELETEDlg@@IEAAXXZ 0000000140019dfc     TI_DELETEDlg.obj
 0002:00006e0c       $unwind$?OnBnClickedOk@CTI_DELETEDlg@@QEAAXXZ 0000000140019e0c     TI_DELETEDlg.obj
 0002:00006e18       $unwind$?InitProcess@CTI_DELETEDlg@@AEAAXXZ 0000000140019e18     TI_DELETEDlg.obj
 0002:00006e30       $stateUnwindMap$?InitProcess@CTI_DELETEDlg@@AEAAXXZ 0000000140019e30     TI_DELETEDlg.obj
 0002:00006e38       $ip2state$?InitProcess@CTI_DELETEDlg@@AEAAXXZ 0000000140019e38     TI_DELETEDlg.obj
 0002:00006e50       $unwind$?_Tidy@?$deque@PEADV?$allocator@PEAD@std@@@std@@IEAAXXZ 0000000140019e50     KizuLibMFC:LogFileManager.obj
 0002:00006e50       $unwind$??_G?$basic_ofstream@DU?$char_traits@D@std@@@std@@UEAAPEAXI@Z 0000000140019e50     KizuLibMFC:LogFileManager.obj
 0002:00006e50       $unwind$?WriteList@LogFileManager@KizuLib@@AEAAXPEBD@Z 0000000140019e50     KizuLibMFC:LogFileManager.obj
 0002:00006e50       $unwind$?ExecuteDirect@OdbcManager@KizuODBC@@QEAAFPEBD@Z 0000000140019e50     KizuODBC:OdbcManager.obj
 0002:00006e50       $unwind$?ExitProcess@CTI_DELETEDlg@@AEAAXXZ 0000000140019e50     TI_DELETEDlg.obj
 0002:00006e50       $unwind$?__scrt_initialize_thread_safe_statics@@YAHXZ 0000000140019e50     msvcrt:thread_safe_statics.obj
 0002:00006e50       $unwind$_RTC_Terminate     0000000140019e50     msvcrt:_initsect_.obj
 0002:00006e50       $unwind$?close@?$basic_filebuf@DU?$char_traits@D@std@@@std@@QEAAPEAV12@XZ 0000000140019e50     KizuLibMFC:LogFileManager.obj
 0002:00006e50       $unwind$_RTC_Initialize    0000000140019e50     msvcrt:_initsect_.obj
 0002:00006e60       $unwind$?MainThread@CTI_DELETEDlg@@CAIPEAX@Z 0000000140019e60     TI_DELETEDlg.obj
 0002:00006e70       $unwind$?OnTimer@CTI_DELETEDlg@@QEAAX_K@Z 0000000140019e70     TI_DELETEDlg.obj
 0002:00006e94       $stateUnwindMap$?OnTimer@CTI_DELETEDlg@@QEAAX_K@Z 0000000140019e94     TI_DELETEDlg.obj
 0002:00006ea8       $ip2state$?OnTimer@CTI_DELETEDlg@@QEAAX_K@Z 0000000140019ea8     TI_DELETEDlg.obj
 0002:00006ed0       $unwind$??0ThreadManager@@QEAA@PEBDH@Z 0000000140019ed0     KizuLibMFC:ThreadManager.obj
 0002:00006eec       $stateUnwindMap$??0ThreadManager@@QEAA@PEBDH@Z 0000000140019eec     KizuLibMFC:ThreadManager.obj
 0002:00006f00       $ip2state$??0ThreadManager@@QEAA@PEBDH@Z 0000000140019f00     KizuLibMFC:ThreadManager.obj
 0002:00006f20       $unwind$??1locale@std@@QEAA@XZ 0000000140019f20     KizuLibMFC:LogFileManager.obj
 0002:00006f30       $ip2state$??1locale@std@@QEAA@XZ 0000000140019f30     KizuLibMFC:LogFileManager.obj
 0002:00006f38       $unwind$??0LogFileManager@KizuLib@@QEAA@PEBDPEAVCListBox@@HH@Z 0000000140019f38     KizuLibMFC:LogFileManager.obj
 0002:00006f60       $stateUnwindMap$??0LogFileManager@KizuLib@@QEAA@PEBDPEAVCListBox@@HH@Z 0000000140019f60     KizuLibMFC:LogFileManager.obj
 0002:00006fa0       $ip2state$??0LogFileManager@KizuLib@@QEAA@PEBDPEAVCListBox@@HH@Z 0000000140019fa0     KizuLibMFC:LogFileManager.obj
 0002:00007000       $unwind$??1LogFileManager@KizuLib@@UEAA@XZ 000000014001a000     KizuLibMFC:LogFileManager.obj
 0002:00007018       $ip2state$??1LogFileManager@KizuLib@@UEAA@XZ 000000014001a018     KizuLibMFC:LogFileManager.obj
 0002:00007020       $unwind$?Write@LogFileManager@KizuLib@@QEAAXW4LNO@12@PEBDZZ 000000014001a020     KizuLibMFC:LogFileManager.obj
 0002:00007044       $stateUnwindMap$?Write@LogFileManager@KizuLib@@QEAAXW4LNO@12@PEBDZZ 000000014001a044     KizuLibMFC:LogFileManager.obj
 0002:00007050       $ip2state$?Write@LogFileManager@KizuLib@@QEAAXW4LNO@12@PEBDZZ 000000014001a050     KizuLibMFC:LogFileManager.obj
 0002:00007068       $unwind$?WriteFile@LogFileManager@KizuLib@@QEAAXPEBD@Z 000000014001a068     KizuLibMFC:LogFileManager.obj
 0002:00007084       $stateUnwindMap$?WriteFile@LogFileManager@KizuLib@@QEAAXPEBD@Z 000000014001a084     KizuLibMFC:LogFileManager.obj
 0002:00007098       $ip2state$?WriteFile@LogFileManager@KizuLib@@QEAAXPEBD@Z 000000014001a098     KizuLibMFC:LogFileManager.obj
 0002:000070c0       $unwind$?AllGetQueue@LogFileManager@KizuLib@@QEAAHXZ 000000014001a0c0     KizuLibMFC:LogFileManager.obj
 0002:000070d4       $unwind$?ShowEdit@LogFileManager@KizuLib@@QEAAXXZ 000000014001a0d4     KizuLibMFC:LogFileManager.obj
 0002:000070ec       $chain$4$?MainThread@LogFileManager@KizuLib@@CAIPEAX@Z 000000014001a0ec     KizuLibMFC:LogFileManager.obj
 0002:00007110       $chain$5$?MainThread@LogFileManager@KizuLib@@CAIPEAX@Z 000000014001a110     KizuLibMFC:LogFileManager.obj
 0002:00007120       $unwind$??1?$basic_ofstream@DU?$char_traits@D@std@@@std@@UEAA@XZ 000000014001a120     KizuLibMFC:LogFileManager.obj
 0002:00007138       $ip2state$??1?$basic_ofstream@DU?$char_traits@D@std@@@std@@UEAA@XZ 000000014001a138     KizuLibMFC:LogFileManager.obj
 0002:00007150       $unwind$??0?$basic_ofstream@DU?$char_traits@D@std@@@std@@QEAA@XZ 000000014001a150     KizuLibMFC:LogFileManager.obj
 0002:00007164       $stateUnwindMap$??0?$basic_ofstream@DU?$char_traits@D@std@@@std@@QEAA@XZ 000000014001a164     KizuLibMFC:LogFileManager.obj
 0002:00007180       $ip2state$??0?$basic_ofstream@DU?$char_traits@D@std@@@std@@QEAA@XZ 000000014001a180     KizuLibMFC:LogFileManager.obj
 0002:000071a8       $unwind$?setbuf@?$basic_filebuf@DU?$char_traits@D@std@@@std@@MEAAPEAV?$basic_streambuf@DU?$char_traits@D@std@@@2@PEAD_J@Z 000000014001a1a8     KizuLibMFC:LogFileManager.obj
 0002:000071b4       $chain$0$?setbuf@?$basic_filebuf@DU?$char_traits@D@std@@@std@@MEAAPEAV?$basic_streambuf@DU?$char_traits@D@std@@@2@PEAD_J@Z 000000014001a1b4     KizuLibMFC:LogFileManager.obj
 0002:000071c8       $chain$1$?setbuf@?$basic_filebuf@DU?$char_traits@D@std@@@std@@MEAAPEAV?$basic_streambuf@DU?$char_traits@D@std@@@2@PEAD_J@Z 000000014001a1c8     KizuLibMFC:LogFileManager.obj
 0002:000071d8       $unwind$?seekpos@?$basic_filebuf@DU?$char_traits@D@std@@@std@@MEAA?AV?$fpos@U_Mbstatet@@@2@V32@H@Z 000000014001a1d8     KizuLibMFC:LogFileManager.obj
 0002:000071ec       $unwind$?seekoff@?$basic_filebuf@DU?$char_traits@D@std@@@std@@MEAA?AV?$fpos@U_Mbstatet@@@2@_JHH@Z 000000014001a1ec     KizuLibMFC:LogFileManager.obj
 0002:00007200       $unwind$?uflow@?$basic_filebuf@DU?$char_traits@D@std@@@std@@MEAAHXZ 000000014001a200     KizuLibMFC:LogFileManager.obj
 0002:00007224       $stateUnwindMap$?overflow@?$basic_filebuf@DU?$char_traits@D@std@@@std@@MEAAHH@Z 000000014001a224     KizuLibMFC:LogFileManager.obj
 0002:00007224       $stateUnwindMap$?uflow@?$basic_filebuf@DU?$char_traits@D@std@@@std@@MEAAHXZ 000000014001a224     KizuLibMFC:LogFileManager.obj
 0002:00007230       $ip2state$?uflow@?$basic_filebuf@DU?$char_traits@D@std@@@std@@MEAAHXZ 000000014001a230     KizuLibMFC:LogFileManager.obj
 0002:00007248       $chain$0$?underflow@?$basic_filebuf@DU?$char_traits@D@std@@@std@@MEAAHXZ 000000014001a248     KizuLibMFC:LogFileManager.obj
 0002:0000725c       $chain$2$?underflow@?$basic_filebuf@DU?$char_traits@D@std@@@std@@MEAAHXZ 000000014001a25c     KizuLibMFC:LogFileManager.obj
 0002:00007270       $unwind$?overflow@?$basic_filebuf@DU?$char_traits@D@std@@@std@@MEAAHH@Z 000000014001a270     KizuLibMFC:LogFileManager.obj
 0002:00007298       $ip2state$?overflow@?$basic_filebuf@DU?$char_traits@D@std@@@std@@MEAAHH@Z 000000014001a298     KizuLibMFC:LogFileManager.obj
 0002:000072b0       $unwind$??_G?$basic_filebuf@DU?$char_traits@D@std@@@std@@UEAAPEAXI@Z 000000014001a2b0     KizuLibMFC:LogFileManager.obj
 0002:000072c8       $ip2state$??_G?$basic_filebuf@DU?$char_traits@D@std@@@std@@UEAAPEAXI@Z 000000014001a2c8     KizuLibMFC:LogFileManager.obj
 0002:000072e0       $unwind$?_Endwrite@?$basic_filebuf@DU?$char_traits@D@std@@@std@@IEAA_NXZ 000000014001a2e0     KizuLibMFC:LogFileManager.obj
 0002:00007300       $stateUnwindMap$?_Endwrite@?$basic_filebuf@DU?$char_traits@D@std@@@std@@IEAA_NXZ 000000014001a300     KizuLibMFC:LogFileManager.obj
 0002:00007308       $ip2state$?_Endwrite@?$basic_filebuf@DU?$char_traits@D@std@@@std@@IEAA_NXZ 000000014001a308     KizuLibMFC:LogFileManager.obj
 0002:00007320       $unwind$?open@?$basic_filebuf@DU?$char_traits@D@std@@@std@@QEAAPEAV12@PEBDHH@Z 000000014001a320     KizuLibMFC:LogFileManager.obj
 0002:00007338       $stateUnwindMap$?open@?$basic_filebuf@DU?$char_traits@D@std@@@std@@QEAAPEAV12@PEBDHH@Z 000000014001a338     KizuLibMFC:LogFileManager.obj
 0002:00007348       $ip2state$?open@?$basic_filebuf@DU?$char_traits@D@std@@@std@@QEAAPEAV12@PEBDHH@Z 000000014001a348     KizuLibMFC:LogFileManager.obj
 0002:00007368       $unwind$?_Copy@?$basic_string@DU?$char_traits@D@std@@V?$allocator@D@2@@std@@QEAAX_K0@Z 000000014001a368     KizuLibMFC:LogFileManager.obj
 0002:00007380       $stateUnwindMap$?_Copy@?$basic_string@DU?$char_traits@D@std@@V?$allocator@D@2@@std@@QEAAX_K0@Z 000000014001a380     KizuLibMFC:LogFileManager.obj
 0002:000073a0       $tryMap$?_Copy@?$basic_string@DU?$char_traits@D@std@@V?$allocator@D@2@@std@@QEAAX_K0@Z 000000014001a3a0     KizuLibMFC:LogFileManager.obj
 0002:000073c8       $handlerMap$0$?_Copy@?$basic_string@DU?$char_traits@D@std@@V?$allocator@D@2@@std@@QEAAX_K0@Z 000000014001a3c8     KizuLibMFC:LogFileManager.obj
 0002:000073dc       $handlerMap$1$?_Copy@?$basic_string@DU?$char_traits@D@std@@V?$allocator@D@2@@std@@QEAAX_K0@Z 000000014001a3dc     KizuLibMFC:LogFileManager.obj
 0002:000073f0       $ip2state$?_Copy@?$basic_string@DU?$char_traits@D@std@@V?$allocator@D@2@@std@@QEAAX_K0@Z 000000014001a3f0     KizuLibMFC:LogFileManager.obj
 0002:00007430       $unwind$?catch$107@?0??_Copy@?$basic_string@DU?$char_traits@D@std@@V?$allocator@D@2@@std@@QEAAX_K0@Z@4HA 000000014001a430     KizuLibMFC:LogFileManager.obj
 0002:00007440       $unwind$?catch$106@?0??_Copy@?$basic_string@DU?$char_traits@D@std@@V?$allocator@D@2@@std@@QEAAX_K0@Z@4HA 000000014001a440     KizuLibMFC:LogFileManager.obj
 0002:00007454       $unwind$??0?$ThreadQueue@D@KizuLib@@QEAA@H@Z 000000014001a454     KizuLibMFC:LogFileManager.obj
 0002:00007464       $chain$0$??1?$ThreadQueue@D@KizuLib@@UEAA@XZ 000000014001a464     KizuLibMFC:LogFileManager.obj
 0002:00007478       $chain$1$??1?$ThreadQueue@D@KizuLib@@UEAA@XZ 000000014001a478     KizuLibMFC:LogFileManager.obj
 0002:00007488       $unwind$?GetFromHead@?$ThreadQueue@D@KizuLib@@QEAAPEADXZ 000000014001a488     KizuLibMFC:LogFileManager.obj
 0002:00007498       $unwind$??$?6U?$char_traits@D@std@@@std@@YAAEAV?$basic_ostream@DU?$char_traits@D@std@@@0@AEAV10@PEBD@Z 000000014001a498     KizuLibMFC:LogFileManager.obj
 0002:000074b4       $stateUnwindMap$??$?6U?$char_traits@D@std@@@std@@YAAEAV?$basic_ostream@DU?$char_traits@D@std@@@0@AEAV10@PEBD@Z 000000014001a4b4     KizuLibMFC:LogFileManager.obj
 0002:000074e4       $tryMap$??$?6U?$char_traits@D@std@@@std@@YAAEAV?$basic_ostream@DU?$char_traits@D@std@@@0@AEAV10@PEBD@Z 000000014001a4e4     KizuLibMFC:LogFileManager.obj
 0002:000074f8       $handlerMap$0$??$?6U?$char_traits@D@std@@@std@@YAAEAV?$basic_ostream@DU?$char_traits@D@std@@@0@AEAV10@PEBD@Z 000000014001a4f8     KizuLibMFC:LogFileManager.obj
 0002:00007510       $ip2state$??$?6U?$char_traits@D@std@@@std@@YAAEAV?$basic_ostream@DU?$char_traits@D@std@@@0@AEAV10@PEBD@Z 000000014001a510     KizuLibMFC:LogFileManager.obj
 0002:00007568       $unwind$?catch$8@?0???$?6U?$char_traits@D@std@@@std@@YAAEAV?$basic_ostream@DU?$char_traits@D@std@@@0@AEAV10@PEBD@Z@4HA 000000014001a568     KizuLibMFC:LogFileManager.obj
 0002:00007578       $unwind$??$use_facet@V?$codecvt@DDU_Mbstatet@@@std@@@std@@YAAEBV?$codecvt@DDU_Mbstatet@@@0@AEBVlocale@0@@Z 000000014001a578     KizuLibMFC:LogFileManager.obj
 0002:00007590       $stateUnwindMap$??$use_facet@V?$codecvt@DDU_Mbstatet@@@std@@@std@@YAAEBV?$codecvt@DDU_Mbstatet@@@0@AEBVlocale@0@@Z 000000014001a590     KizuLibMFC:LogFileManager.obj
 0002:00007598       $ip2state$??$use_facet@V?$codecvt@DDU_Mbstatet@@@std@@@std@@YAAEBV?$codecvt@DDU_Mbstatet@@@0@AEBVlocale@0@@Z 000000014001a598     KizuLibMFC:LogFileManager.obj
 0002:000075b0       $unwind$?push_back@?$deque@PEADV?$allocator@PEAD@std@@@std@@QEAAXAEBQEAD@Z 000000014001a5b0     KizuLibMFC:LogFileManager.obj
 0002:000075c4       $unwind$??1sentry@?$basic_ostream@DU?$char_traits@D@std@@@std@@QEAA@XZ 000000014001a5c4     KizuLibMFC:LogFileManager.obj
 0002:000075d8       $ip2state$??1sentry@?$basic_ostream@DU?$char_traits@D@std@@@std@@QEAA@XZ 000000014001a5d8     KizuLibMFC:LogFileManager.obj
 0002:000075f0       $unwind$?_Growmap@?$deque@PEADV?$allocator@PEAD@std@@@std@@IEAAX_K@Z 000000014001a5f0     KizuLibMFC:LogFileManager.obj
 0002:000075fc       $chain$1$?_Growmap@?$deque@PEADV?$allocator@PEAD@std@@@std@@IEAAX_K@Z 000000014001a5fc     KizuLibMFC:LogFileManager.obj
 0002:00007614       $chain$5$?_Growmap@?$deque@PEADV?$allocator@PEAD@std@@@std@@IEAAX_K@Z 000000014001a614     KizuLibMFC:LogFileManager.obj
 0002:00007634       $chain$8$?_Growmap@?$deque@PEADV?$allocator@PEAD@std@@@std@@IEAAX_K@Z 000000014001a634     KizuLibMFC:LogFileManager.obj
 0002:00007634       $chain$6$?_Growmap@?$deque@PEADV?$allocator@PEAD@std@@@std@@IEAAX_K@Z 000000014001a634     KizuLibMFC:LogFileManager.obj
 0002:00007644       $chain$7$?_Growmap@?$deque@PEADV?$allocator@PEAD@std@@@std@@IEAAX_K@Z 000000014001a644     KizuLibMFC:LogFileManager.obj
 0002:00007664       $chain$9$?_Growmap@?$deque@PEADV?$allocator@PEAD@std@@@std@@IEAAX_K@Z 000000014001a664     KizuLibMFC:LogFileManager.obj
 0002:00007674       $unwind$??1_Sentry_base@?$basic_ostream@DU?$char_traits@D@std@@@std@@QEAA@XZ 000000014001a674     KizuLibMFC:LogFileManager.obj
 0002:00007688       $ip2state$??1_Sentry_base@?$basic_ostream@DU?$char_traits@D@std@@@std@@QEAA@XZ 000000014001a688     KizuLibMFC:LogFileManager.obj
 0002:00007690       $unwind$sprintf            000000014001a690     KizuLibMFC:LogFileManager.obj
 0002:0000769c       $unwind$?SetThreadName@WorkThread@KizuLib@@SAXPEBDK@Z 000000014001a69c     KizuLib:WorkThread.obj
 0002:000076bc       $unwind$?task_init@@YAHPEBDH@Z 000000014001a6bc     KizuLib:KizuLib.obj
 0002:000076c4       $chain$0$?task_init@@YAHPEBDH@Z 000000014001a6c4     KizuLib:KizuLib.obj
 0002:000076d8       $chain$2$?task_init@@YAHPEBDH@Z 000000014001a6d8     KizuLib:KizuLib.obj
 0002:000076d8       $chain$4$?task_init@@YAHPEBDH@Z 000000014001a6d8     KizuLib:KizuLib.obj
 0002:000076ec       $unwind$?syslog@@YAHJPEBDZZ 000000014001a6ec     KizuLib:KizuLib.obj
 0002:00007704       $unwind$?statelog@@YAHJJJPEBDZZ 000000014001a704     KizuLib:KizuLib.obj
 0002:00007720       $unwind$?SetStatus@KizuFunction@KizuLib@@SA_NHH_NPEBD@Z 000000014001a720     KizuLib:KizuFunction.obj
 0002:00007740       $ip2state$?SetStatus@KizuFunction@KizuLib@@SA_NHH_NPEBD@Z 000000014001a740     KizuLib:KizuFunction.obj
 0002:00007758       $unwind$?Create@MailSlotManager@KizuLib@@QEAA_NPEBDK@Z 000000014001a758     KizuLib:MailSlotManager.obj
 0002:00007758       $unwind$??0KizuPcInfManager@KizuLib@@QEAA@H@Z 000000014001a758     KizuLib:KizuPcInfManager.obj
 0002:0000776c       $unwind$?SetPcName@KizuPcInfManager@KizuLib@@QEAA_NPEADPEBD1@Z 000000014001a76c     KizuLib:KizuPcInfManager.obj
 0002:00007790       $ip2state$?SetPcName@KizuPcInfManager@KizuLib@@QEAA_NPEADPEBD1@Z 000000014001a790     KizuLib:KizuPcInfManager.obj
 0002:000077a8       $unwind$?SendMail@MailSlotManager@KizuLib@@SAHPEBD0PEBXK@Z 000000014001a7a8     KizuLib:MailSlotManager.obj
 0002:000077c0       $unwind$?Recv@MailSlotManager@KizuLib@@UEAAHPEAXK@Z 000000014001a7c0     KizuLib:MailSlotManager.obj
 0002:000077dc       $unwind$??1OdbcBase@KizuODBC@@UEAA@XZ 000000014001a7dc     KizuODBC:OdbcBase.obj
 0002:000077f0       $ip2state$??1OdbcBase@KizuODBC@@UEAA@XZ 000000014001a7f0     KizuODBC:OdbcBase.obj
 0002:000077f8       $unwind$?OpenCheck@OdbcBase@KizuODBC@@SA_NPEBD0@Z 000000014001a7f8     KizuODBC:OdbcBase.obj
 0002:00007804       $chain$0$?OpenCheck@OdbcBase@KizuODBC@@SA_NPEBD0@Z 000000014001a804     KizuODBC:OdbcBase.obj
 0002:00007818       $chain$1$?OpenCheck@OdbcBase@KizuODBC@@SA_NPEBD0@Z 000000014001a818     KizuODBC:OdbcBase.obj
 0002:00007828       $unwind$?GetSelectKey@OdbcBase@KizuODBC@@QEAA_NPEBDPEAH@Z 000000014001a828     KizuODBC:OdbcBase.obj
 0002:00007828       $unwind$?GetSelectKey@OdbcBase@KizuODBC@@QEAA_NPEBDHPEAD@Z 000000014001a828     KizuODBC:OdbcBase.obj
 0002:00007834       $unwind$?GetSelectKey_Static@OdbcBase@KizuODBC@@SA_NPEBDPEAH00@Z 000000014001a834     KizuODBC:OdbcBase.obj
 0002:00007850       $ip2state$?GetSelectKey_Static@OdbcBase@KizuODBC@@SA_NPEBDPEAH00@Z 000000014001a850     KizuODBC:OdbcBase.obj
 0002:00007868       $unwind$?GetErrMsg@OdbcEnv@KizuODBC@@QEAAXXZ 000000014001a868     KizuODBC:OdbcEnv.obj
 0002:00007870       $unwind$?Alloc@OdbcManager@KizuODBC@@IEAAXXZ 000000014001a870     KizuODBC:OdbcManager.obj
 0002:0000787c       $unwind$?Connect@OdbcManager@KizuODBC@@QEAAHPEBD0@Z 000000014001a87c     KizuODBC:OdbcManager.obj
 0002:00007898       $unwind$?Connect@OdbcManager@KizuODBC@@QEAAHPEBD00@Z 000000014001a898     KizuODBC:OdbcManager.obj
 0002:000078ac       $unwind$?ExecuteDirectAsync@OdbcManager@KizuODBC@@QEAAFPEBD_N@Z 000000014001a8ac     KizuODBC:OdbcManager.obj
 0002:000078b8       $chain$0$?ExecuteDirectAsync@OdbcManager@KizuODBC@@QEAAFPEBD_N@Z 000000014001a8b8     KizuODBC:OdbcManager.obj
 0002:000078cc       $chain$1$?ExecuteDirectAsync@OdbcManager@KizuODBC@@QEAAFPEBD_N@Z 000000014001a8cc     KizuODBC:OdbcManager.obj
 0002:000078dc       $unwind$?GetErrMsg@OdbcManager@KizuODBC@@QEAAXXZ 000000014001a8dc     KizuODBC:OdbcManager.obj
 0002:000078f0       $unwind$?GetErrMsg@OdbcManager@KizuODBC@@QEAAXF@Z 000000014001a8f0     KizuODBC:OdbcManager.obj
 0002:00007908       $xdatasym                  000000014001a908     msvcrt:_amdsecgs_.obj
 0002:0000790c       $unwind$??_L@YAXPEAX_K1P6AX0@Z2@Z 000000014001a90c     msvcrt:ehvecctr.obj
 0002:00007938       $unwind$??_M@YAXPEAX_K1P6AX0@Z@Z 000000014001a938     msvcrt:ehvecdtr.obj
 0002:00007960       $unwind$?__ArrayUnwind@@YAXPEAX_K1P6AX0@Z@Z 000000014001a960     msvcrt:ehvecdtr.obj
 0002:0000798c       $unwind$__scrt_is_nonwritable_in_current_image 000000014001a98c     msvcrt:utility.obj
 0002:000079ac       $unwind$__scrt_is_nonwritable_in_current_image$filt$0 000000014001a9ac     msvcrt:utility.obj
 0002:000079b4       $unwind$__scrt_initialize_onexit_tables 000000014001a9b4     msvcrt:utility.obj
 0002:000079c0       $unwind$?__scrt_common_main_seh@@YAHXZ 000000014001a9c0     msvcrt:exe_winmain.obj
 0002:000079e4       $unwind$__report_gsfailure 000000014001a9e4     msvcrt:gs_report.obj
 0002:000079ec       $unwind$capture_previous_context 000000014001a9ec     msvcrt:gs_report.obj
 0002:000079f8       $unwind$__scrt_get_show_window_mode 000000014001a9f8     msvcrt:utility_desktop.obj
 0002:00007a00       $unwind$__scrt_fastfail    000000014001aa00     msvcrt:utility_desktop.obj
 0002:00007a10       $unwind$__isa_available_init 000000014001aa10     msvcrt:_cpu_disp_.obj
 0002:00007a20       $unwind$__security_init_cookie 000000014001aa20     msvcrt:gs_support.obj
 0002:00007a2c       $unwind$__GSHandlerCheckCommon 000000014001aa2c     msvcrt:_gshandler_.obj
 0002:00007a38       $xdatasym                  000000014001aa38     msvcrt:_guard_dispatch_.obj
 0002:00007a3c       $unwind$??_G_Fac_node@std@@QEAAPEAXI@Z 000000014001aa3c     msvcprt:locale0_implib.obj
 0002:00007a58       $ip2state$??_G_Fac_node@std@@QEAAPEAXI@Z 000000014001aa58     msvcprt:locale0_implib.obj
 0002:00007a70       $unwind$__GSHandlerCheck_EH 000000014001aa70     msvcrt:gshandlereh.obj
 0002:00007a88       $xdatasym                  000000014001aa88     msvcrt:_chkstk_.obj
 0002:00008888       .idata$6                   000000014001b888     KizuODBC:ODBC32.dll
 0002:00008894       .idata$6                   000000014001b894     mfc140:mfc140.dll
 0002:00008cde       .idata$6                   000000014001bcde     kernel32:KERNEL32.dll
 0002:00008dd2       .idata$6                   000000014001bdd2     user32:USER32.dll
 0002:00008df6       .idata$6                   000000014001bdf6     comctl32:COMCTL32.dll
 0002:00009612       .idata$6                   000000014001c612     msvcprt:MSVCP140.dll
 0002:000096d8       .idata$6                   000000014001c6d8     vcruntime:VCRUNTIME140.dll
 0002:000099e4       .idata$6                   000000014001c9e4     ucrt:api-ms-win-crt-convert-l1-1-0.dll
 0002:00009a06       .idata$6                   000000014001ca06     ucrt:api-ms-win-crt-runtime-l1-1-0.dll
 0002:00009a28       .idata$6                   000000014001ca28     ucrt:api-ms-win-crt-time-l1-1-0.dll
 0002:00009a48       .idata$6                   000000014001ca48     ucrt:api-ms-win-crt-heap-l1-1-0.dll
 0002:00009a68       .idata$6                   000000014001ca68     ucrt:api-ms-win-crt-locale-l1-1-0.dll
 0002:00009a8a       .idata$6                   000000014001ca8a     ucrt:api-ms-win-crt-stdio-l1-1-0.dll
 0002:00009aaa       .idata$6                   000000014001caaa     ucrt:api-ms-win-crt-filesystem-l1-1-0.dll
 0002:00009ad0       .idata$6                   000000014001cad0     ucrt:api-ms-win-crt-math-l1-1-0.dll
 0003:000007b8       ?_Tss_mutex@@3U_RTL_CRITICAL_SECTION@@A 000000014001d7b8     msvcrt:thread_safe_statics.obj
 0003:000007e0       ?_Tss_cv@@3U_RTL_CONDITION_VARIABLE@@A 000000014001d7e0     msvcrt:thread_safe_statics.obj
 0003:000007e8       ?_Tss_event@@3PEAXEA       000000014001d7e8     msvcrt:thread_safe_statics.obj
 0003:000007f0       ?encoded_sleep_condition_variable_cs@@3P6AHPEAU_RTL_CONDITION_VARIABLE@@PEAU_RTL_CRITICAL_SECTION@@K@ZEA 000000014001d7f0     msvcrt:thread_safe_statics.obj
 0003:000007f8       ?encoded_wake_all_condition_variable@@3P6AXPEAU_RTL_CONDITION_VARIABLE@@@ZEA 000000014001d7f8     msvcrt:thread_safe_statics.obj
 0003:00000810       ?module_local_atexit_table@@3U_onexit_table_t@@A 000000014001d810     msvcrt:utility.obj
 0003:00000828       ?module_local_at_quick_exit_table@@3U_onexit_table_t@@A 000000014001d828     msvcrt:utility.obj
 0003:00000840       ?is_initialized_as_dll@@3_NA 000000014001d840     msvcrt:utility.obj
 0003:00000850       GS_ExceptionRecord         000000014001d850     msvcrt:gs_report.obj
 0003:000008f0       GS_ContextRecord           000000014001d8f0     msvcrt:gs_report.obj
 0003:00000e58       ?_Fac_head@std@@3PEAU_Fac_node@1@EA 000000014001de58     msvcprt:locale0_implib.obj
 0003:00000e60       ?_Fac_tidy_reg@std@@3U_Fac_tidy_reg_t@1@B 000000014001de60     msvcprt:locale0_implib.obj
 0003:00000e90       ?g_nLineID@@3HA            000000014001de90     KizuLib:KizuLib.obj
 0003:00000e98       ?mcls_pPcInf@@3PEAVKizuPcInfManager@KizuLib@@EA 000000014001de98     KizuLib:KizuLib.obj
 0003:000012a0       ?mcls_pMail@@3PEAVMailSlotManager@KizuLib@@EA 000000014001e2a0     KizuLib:KizuLib.obj
 0003:00001670       ?g_cMyTaskName@@3PADA      000000014001e670     KizuLib:KizuLib.obj
 0004:00000000       $pdata$??__EtheApp@@YAXXZ  000000014001f000     TI_DELETE.obj
 0004:0000000c       $pdata$??__E?m_inst@OdbcEnv@KizuODBC@@0V12@A@@YAXXZ 000000014001f00c     KizuODBC:OdbcEnv.obj
 0004:00000018       $pdata$??__E_AtlBaseModule@ATL@@YAXXZ 000000014001f018     atls:atlbase.obj
 0004:00000024       $pdata$??__E_afxInitAppState@@YAXXZ 000000014001f024     mfcs140:appmodul.obj
 0004:00000030       $pdata$??0ControlDefragManager@@QEAA@XZ 000000014001f030     ControlDefragManager.obj
 0004:0000003c       $pdata$??_GControlDefragManager@@UEAAPEAXI@Z 000000014001f03c     ControlDefragManager.obj
 0004:00000048       $pdata$??1ControlDefragManager@@UEAA@XZ 000000014001f048     ControlDefragManager.obj
 0004:00000054       $pdata$?ThreadFirst@ControlDefragManager@@EEAAHXZ 000000014001f054     ControlDefragManager.obj
 0004:00000060       $pdata$?ThreadLast@ControlDefragManager@@EEAAHXZ 000000014001f060     ControlDefragManager.obj
 0004:0000006c       $pdata$?ThreadEvent@ControlDefragManager@@EEAAXH@Z 000000014001f06c     ControlDefragManager.obj
 0004:00000078       $pdata$?Exec@ControlDefragManager@@AEAAXXZ 000000014001f078     ControlDefragManager.obj
 0004:00000084       $pdata$??0ControlLowGr@@QEAA@XZ 000000014001f084     ControlLowGr.obj
 0004:00000090       $pdata$??_GControlLowGr@@UEAAPEAXI@Z 000000014001f090     ControlLowGr.obj
 0004:0000009c       $pdata$??1SETTING_TBL@@QEAA@XZ 000000014001f09c     ControlLowGr.obj
 0004:000000a8       $pdata$??0MAIN@SETTING_TBL@@QEAA@XZ 000000014001f0a8     ControlLowGr.obj
 0004:000000b4       $pdata$??1MAIN@SETTING_TBL@@QEAA@XZ 000000014001f0b4     ControlLowGr.obj
 0004:000000c0       $pdata$??1ControlLowGr@@UEAA@XZ 000000014001f0c0     ControlLowGr.obj
 0004:000000cc       $pdata$?WorkerInit@ControlLowGr@@QEAAXXZ 000000014001f0cc     ControlLowGr.obj
 0004:000000d8       $pdata$?ThreadFirst@ControlLowGr@@EEAAHXZ 000000014001f0d8     ControlLowGr.obj
 0004:000000e4       $pdata$?ThreadEvent@ControlLowGr@@EEAAXH@Z 000000014001f0e4     ControlLowGr.obj
 0004:000000f0       $pdata$?CheckDeleListItem@ControlLowGr@@AEAA_NXZ 000000014001f0f0     ControlLowGr.obj
 0004:000000fc       $pdata$?BackUpDeleListItem@ControlLowGr@@AEAA_NXZ 000000014001f0fc     ControlLowGr.obj
 0004:00000108       $pdata$??1LockManager@KizuLib@@UEAA@XZ 000000014001f108     ControlManager.obj
 0004:00000114       $pdata$??_GLockManager@KizuLib@@UEAAPEAXI@Z 000000014001f114     ControlManager.obj
 0004:00000120       $pdata$??0ControlManager@@QEAA@PEADPEAVLogFileManager@KizuLib@@@Z 000000014001f120     ControlManager.obj
 0004:0000012c       $pdata$??_GControlManager@@UEAAPEAXI@Z 000000014001f12c     ControlManager.obj
 0004:00000138       $pdata$??1ControlManager@@UEAA@XZ 000000014001f138     ControlManager.obj
 0004:00000144       $pdata$?WorkerInit@ControlManager@@QEAAXXZ 000000014001f144     ControlManager.obj
 0004:00000150       $pdata$?WorkerExit@ControlManager@@QEAAXXZ 000000014001f150     ControlManager.obj
 0004:0000015c       $pdata$0$?WorkerExit@ControlManager@@QEAAXXZ 000000014001f15c     ControlManager.obj
 0004:00000168       $pdata$1$?WorkerExit@ControlManager@@QEAAXXZ 000000014001f168     ControlManager.obj
 0004:00000174       $pdata$?MainThread@ControlManager@@CAIPEAX@Z 000000014001f174     ControlManager.obj
 0004:00000180       $pdata$?CheckDB_Size@ControlManager@@AEAAXXZ 000000014001f180     ControlManager.obj
 0004:0000018c       $pdata$?GetDB_Size@ControlManager@@AEAAHXZ 000000014001f18c     ControlManager.obj
 0004:00000198       $pdata$?Check_TranSize@ControlManager@@AEAAXXZ 000000014001f198     ControlManager.obj
 0004:000001a4       $pdata$?GetThreadNameArray@@YA?AV?$CStringT@DV?$StrTraitMFC_DLL@DV?$ChTraitsCRT@D@ATL@@@@@ATL@@PEADH@Z 000000014001f1a4     DefragManager.obj
 0004:000001b0       $pdata$??0DefragManager@@QEAA@HPEAD@Z 000000014001f1b0     DefragManager.obj
 0004:000001bc       $pdata$??_GDefragManager@@UEAAPEAXI@Z 000000014001f1bc     DefragManager.obj
 0004:000001c8       $pdata$??0DEF_TBL@DefragManager@@QEAA@XZ 000000014001f1c8     DefragManager.obj
 0004:000001d4       $pdata$??1DefragManager@@UEAA@XZ 000000014001f1d4     DefragManager.obj
 0004:000001e0       $pdata$?ThreadFirst@DefragManager@@EEAAHXZ 000000014001f1e0     DefragManager.obj
 0004:000001ec       $pdata$?ThreadLast@DefragManager@@EEAAHXZ 000000014001f1ec     DefragManager.obj
 0004:000001f8       $pdata$?ThreadEvent@DefragManager@@EEAAXH@Z 000000014001f1f8     DefragManager.obj
 0004:00000204       $pdata$?Exec@DefragManager@@AEAAXXZ 000000014001f204     DefragManager.obj
 0004:00000210       $pdata$?GetIndexTables@DefragManager@@AEAA_NPEBDPEAV?$vector@V?$CStringT@DV?$StrTraitMFC_DLL@DV?$ChTraitsCRT@D@ATL@@@@@ATL@@V?$allocator@V?$CStringT@DV?$StrTraitMFC_DLL@DV?$ChTraitsCRT@D@ATL@@@@@ATL@@@std@@@std@@@Z 000000014001f210     DefragManager.obj
 0004:0000021c       $pdata$?ExecDefrag@DefragManager@@AEAAHPEBD0@Z 000000014001f21c     DefragManager.obj
 0004:00000228       $pdata$?push_back@?$vector@V?$CStringT@DV?$StrTraitMFC_DLL@DV?$ChTraitsCRT@D@ATL@@@@@ATL@@V?$allocator@V?$CStringT@DV?$StrTraitMFC_DLL@DV?$ChTraitsCRT@D@ATL@@@@@ATL@@@std@@@std@@QEAAX$$QEAV?$CStringT@DV?$StrTraitMFC_DLL@DV?$ChTraitsCRT@D@ATL@@@@@ATL@@@Z 000000014001f228     DefragManager.obj
 0004:00000234       $pdata$?_Tidy@?$vector@V?$CStringT@DV?$StrTraitMFC_DLL@DV?$ChTraitsCRT@D@ATL@@@@@ATL@@V?$allocator@V?$CStringT@DV?$StrTraitMFC_DLL@DV?$ChTraitsCRT@D@ATL@@@@@ATL@@@std@@@std@@IEAAXXZ 000000014001f234     DefragManager.obj
 0004:00000240       $pdata$0$?_Tidy@?$vector@V?$CStringT@DV?$StrTraitMFC_DLL@DV?$ChTraitsCRT@D@ATL@@@@@ATL@@V?$allocator@V?$CStringT@DV?$StrTraitMFC_DLL@DV?$ChTraitsCRT@D@ATL@@@@@ATL@@@std@@@std@@IEAAXXZ 000000014001f240     DefragManager.obj
 0004:0000024c       $pdata$1$?_Tidy@?$vector@V?$CStringT@DV?$StrTraitMFC_DLL@DV?$ChTraitsCRT@D@ATL@@@@@ATL@@V?$allocator@V?$CStringT@DV?$StrTraitMFC_DLL@DV?$ChTraitsCRT@D@ATL@@@@@ATL@@@std@@@std@@IEAAXXZ 000000014001f24c     DefragManager.obj
 0004:00000258       $pdata$?deallocate@?$_Wrap_alloc@V?$allocator@V?$CStringT@DV?$StrTraitMFC_DLL@DV?$ChTraitsCRT@D@ATL@@@@@ATL@@@std@@@std@@QEAAXPEAV?$CStringT@DV?$StrTraitMFC_DLL@DV?$ChTraitsCRT@D@ATL@@@@@ATL@@_K@Z 000000014001f258     DefragManager.obj
 0004:00000264       $pdata$?_Reallocate@?$vector@V?$CStringT@DV?$StrTraitMFC_DLL@DV?$ChTraitsCRT@D@ATL@@@@@ATL@@V?$allocator@V?$CStringT@DV?$StrTraitMFC_DLL@DV?$ChTraitsCRT@D@ATL@@@@@ATL@@@std@@@std@@IEAAX_K@Z 000000014001f264     DefragManager.obj
 0004:00000270       $pdata$??$_Uninitialized_move_al_unchecked1@PEAV?$CStringT@DV?$StrTraitMFC_DLL@DV?$ChTraitsCRT@D@ATL@@@@@ATL@@PEAV12@V?$allocator@V?$CStringT@DV?$StrTraitMFC_DLL@DV?$ChTraitsCRT@D@ATL@@@@@ATL@@@std@@@std@@YAPEAV?$CStringT@DV?$StrTraitMFC_DLL@DV?$ChTraitsCRT@D@ATL@@@@@ATL@@PEAV12@00AEAU?$_Wrap_alloc@V?$allocator@V?$CStringT@DV?$StrTraitMFC_DLL@DV?$ChTraitsCRT@D@ATL@@@@@ATL@@@std@@@0@U_General_ptr_iterator_tag@0@U_Any_tag@0@@Z 000000014001f270     DefragManager.obj
 0004:0000027c       $pdata$?GetThreadNameArray@@YA?AV?$CStringT@DV?$StrTraitMFC_DLL@DV?$ChTraitsCRT@D@ATL@@@@@ATL@@PEADH@Z 000000014001f27c     DeleLowGr.obj
 0004:00000288       $pdata$??0DeleLowGr@@QEAA@HPEAXPEBUSETTING_TBL@@@Z 000000014001f288     DeleLowGr.obj
 0004:00000294       $pdata$??_GDeleLowGr@@UEAAPEAXI@Z 000000014001f294     DeleLowGr.obj
 0004:000002a0       $pdata$?ThreadEvent@DeleLowGr@@EEAAXH@Z 000000014001f2a0     DeleLowGr.obj
 0004:000002ac       $pdata$?StartExec@DeleLowGr@@AEAA_NXZ 000000014001f2ac     DeleLowGr.obj
 0004:000002b8       $pdata$?DeleteInf@DeleLowGr@@AEAA_NPEAVOdbcBase@KizuODBC@@PEBD111H@Z 000000014001f2b8     DeleLowGr.obj
 0004:000002c4       $pdata$?SetDeleteOkFlg@DeleLowGr@@AEAA_NPEAVOdbcBase@KizuODBC@@PEBD@Z 000000014001f2c4     DeleLowGr.obj
 0004:000002d0       $pdata$??0DeleTable@@QEAA@HPEAHPEAX1V?$CStringT@DV?$StrTraitMFC_DLL@DV?$ChTraitsCRT@D@ATL@@@@@ATL@@2@Z 000000014001f2d0     DeleTable.obj
 0004:000002dc       $pdata$??_GDeleTable@@UEAAPEAXI@Z 000000014001f2dc     DeleTable.obj
 0004:000002e8       $pdata$??0DEL_TBL_CNT@KizuDeleteManager@@QEAA@XZ 000000014001f2e8     DeleTable.obj
 0004:000002e8       $pdata$??0DEL_TBL@KizuDeleteManager@@QEAA@XZ 000000014001f2e8     DeleTable.obj
 0004:000002f4       $pdata$??1DEL_TBL_CNT@KizuDeleteManager@@QEAA@XZ 000000014001f2f4     DeleTable.obj
 0004:000002f4       $pdata$??1DEL_TBL@KizuDeleteManager@@QEAA@XZ 000000014001f2f4     DeleTable.obj
 0004:00000300       $pdata$??1DeleTable@@UEAA@XZ 000000014001f300     DeleTable.obj
 0004:0000030c       $pdata$?ExecCycle@DeleTable@@EEAAXXZ 000000014001f30c     DeleTable.obj
 0004:00000318       $pdata$0$?ExecCycle@DeleTable@@EEAAXXZ 000000014001f318     DeleTable.obj
 0004:00000324       $pdata$1$?ExecCycle@DeleTable@@EEAAXXZ 000000014001f324     DeleTable.obj
 0004:00000330       $pdata$?ExecSizeMin@DeleTable@@EEAAXXZ 000000014001f330     DeleTable.obj
 0004:0000033c       $pdata$?ExecFast@DeleTable@@EEAAXXZ 000000014001f33c     DeleTable.obj
 0004:00000348       $pdata$?Delete_BackUp@DeleTable@@AEAAXPEBD@Z 000000014001f348     DeleTable.obj
 0004:00000354       $pdata$0$?Delete_BackUp@DeleTable@@AEAAXPEBD@Z 000000014001f354     DeleTable.obj
 0004:00000360       $pdata$1$?Delete_BackUp@DeleTable@@AEAAXPEBD@Z 000000014001f360     DeleTable.obj
 0004:0000036c       $pdata$2$?Delete_BackUp@DeleTable@@AEAAXPEBD@Z 000000014001f36c     DeleTable.obj
 0004:00000378       $pdata$3$?Delete_BackUp@DeleTable@@AEAAXPEBD@Z 000000014001f378     DeleTable.obj
 0004:00000384       $pdata$??0KizuDeleteManager@@QEAA@HPEAHPEAX1V?$CStringT@DV?$StrTraitMFC_DLL@DV?$ChTraitsCRT@D@ATL@@@@@ATL@@2@Z 000000014001f384     KizuDeleteManager.obj
 0004:00000390       $pdata$??_GKizuDeleteManager@@UEAAPEAXI@Z 000000014001f390     KizuDeleteManager.obj
 0004:0000039c       $pdata$??1KizuDeleteManager@@UEAA@XZ 000000014001f39c     KizuDeleteManager.obj
 0004:000003a8       $pdata$?MainThread@KizuDeleteManager@@KAIPEAX@Z 000000014001f3a8     KizuDeleteManager.obj
 0004:000003b4       $pdata$?Select_OldKey@KizuDeleteManager@@IEAA_NPEBD0HPEAD@Z 000000014001f3b4     KizuDeleteManager.obj
 0004:000003c0       $pdata$?Select_OldKey@KizuDeleteManager@@IEAA_NPEBD00HPEAD@Z 000000014001f3c0     KizuDeleteManager.obj
 0004:000003cc       $pdata$?Exec_Shrink@KizuDeleteManager@@IEAA_NXZ 000000014001f3cc     KizuDeleteManager.obj
 0004:000003d8       $pdata$?Delete_Day@KizuDeleteManager@@IEAA_NPEBD0H@Z 000000014001f3d8     KizuDeleteManager.obj
 0004:000003e4       $pdata$?Delete_Day2@KizuDeleteManager@@IEAA_NPEBD0H@Z 000000014001f3e4     KizuDeleteManager.obj
 0004:000003f0       $pdata$?Delete_Cnt@KizuDeleteManager@@IEAA_NPEBD00HH@Z 000000014001f3f0     KizuDeleteManager.obj
 0004:000003fc       $pdata$?Delete_Inf@KizuDeleteManager@@IEAA_NPEBD00@Z 000000014001f3fc     KizuDeleteManager.obj
 0004:00000408       $pdata$?Delete_Inf@KizuDeleteManager@@IEAA_NPEBD00H0@Z 000000014001f408     KizuDeleteManager.obj
 0004:00000414       $pdata$?Delete_OldInf@KizuDeleteManager@@IEAA_NPEBD00H0@Z 000000014001f414     KizuDeleteManager.obj
 0004:00000420       $pdata$??0MainInctance@@QEAA@XZ 000000014001f420     MainInctance.obj
 0004:0000042c       $pdata$??_GMainInctance@@UEAAPEAXI@Z 000000014001f42c     MainInctance.obj
 0004:00000438       $pdata$??1MainInctance@@UEAA@XZ 000000014001f438     MainInctance.obj
 0004:00000444       $pdata$?Init@MainInctance@@QEAAHXZ 000000014001f444     MainInctance.obj
 0004:00000450       $pdata$?Exit@MainInctance@@QEAAXXZ 000000014001f450     MainInctance.obj
 0004:0000045c       $pdata$3$?Exit@MainInctance@@QEAAXXZ 000000014001f45c     MainInctance.obj
 0004:00000468       $pdata$4$?Exit@MainInctance@@QEAAXXZ 000000014001f468     MainInctance.obj
 0004:00000474       $pdata$5$?Exit@MainInctance@@QEAAXXZ 000000014001f474     MainInctance.obj
 0004:00000480       $pdata$6$?Exit@MainInctance@@QEAAXXZ 000000014001f480     MainInctance.obj
 0004:0000048c       $pdata$7$?Exit@MainInctance@@QEAAXXZ 000000014001f48c     MainInctance.obj
 0004:00000498       $pdata$?SetWaitMode@MainInctance@@QEAAX_N@Z 000000014001f498     MainInctance.obj
 0004:000004a4       $pdata$1$?SetWaitMode@MainInctance@@QEAAX_N@Z 000000014001f4a4     MainInctance.obj
 0004:000004b0       $pdata$2$?SetWaitMode@MainInctance@@QEAAX_N@Z 000000014001f4b0     MainInctance.obj
 0004:000004bc       $pdata$?MainThread@MainInctance@@CAIPEAX@Z 000000014001f4bc     MainInctance.obj
 0004:000004c8       $pdata$??_GCTI_DELETEApp@@UEAAPEAXI@Z 000000014001f4c8     TI_DELETE.obj
 0004:000004d4       $pdata$?InitInstance@CTI_DELETEApp@@UEAAHXZ 000000014001f4d4     TI_DELETE.obj
 0004:000004e0       $pdata$??1CTI_DELETEDlg@@UEAA@XZ 000000014001f4e0     TI_DELETE.obj
 0004:000004ec       $pdata$??_GCTI_DELETEDlg@@UEAAPEAXI@Z 000000014001f4ec     TI_DELETEDlg.obj
 0004:000004f8       $pdata$?DoDataExchange@CTI_DELETEDlg@@MEAAXPEAVCDataExchange@@@Z 000000014001f4f8     TI_DELETEDlg.obj
 0004:00000504       $pdata$?OnInitDialog@CTI_DELETEDlg@@MEAAHXZ 000000014001f504     TI_DELETEDlg.obj
 0004:00000510       $pdata$?OnPaint@CTI_DELETEDlg@@IEAAXXZ 000000014001f510     TI_DELETEDlg.obj
 0004:0000051c       $pdata$1$?OnPaint@CTI_DELETEDlg@@IEAAXXZ 000000014001f51c     TI_DELETEDlg.obj
 0004:00000528       $pdata$2$?OnPaint@CTI_DELETEDlg@@IEAAXXZ 000000014001f528     TI_DELETEDlg.obj
 0004:00000534       $pdata$?OnBnClickedOk@CTI_DELETEDlg@@QEAAXXZ 000000014001f534     TI_DELETEDlg.obj
 0004:00000540       $pdata$?InitProcess@CTI_DELETEDlg@@AEAAXXZ 000000014001f540     TI_DELETEDlg.obj
 0004:0000054c       $pdata$?ExitProcess@CTI_DELETEDlg@@AEAAXXZ 000000014001f54c     TI_DELETEDlg.obj
 0004:00000558       $pdata$?MainThread@CTI_DELETEDlg@@CAIPEAX@Z 000000014001f558     TI_DELETEDlg.obj
 0004:00000564       $pdata$?OnTimer@CTI_DELETEDlg@@QEAAX_K@Z 000000014001f564     TI_DELETEDlg.obj
 0004:00000570       $pdata$??_GCComboBox@@UEAAPEAXI@Z 000000014001f570     TI_DELETEDlg.obj
 0004:0000057c       $pdata$??_GCListBox@@UEAAPEAXI@Z 000000014001f57c     TI_DELETEDlg.obj
 0004:00000588       $pdata$??0ThreadManager@@QEAA@PEBDH@Z 000000014001f588     KizuLibMFC:ThreadManager.obj
 0004:00000594       $pdata$??_GThreadManager@@UEAAPEAXI@Z 000000014001f594     KizuLibMFC:ThreadManager.obj
 0004:000005a0       $pdata$??1ThreadManager@@UEAA@XZ 000000014001f5a0     KizuLibMFC:ThreadManager.obj
 0004:000005ac       $pdata$?MainThread@ThreadManager@@KAIPEAX@Z 000000014001f5ac     KizuLibMFC:ThreadManager.obj
 0004:000005b8       $pdata$?ThreadMainLoop@ThreadManager@@MEAAHXZ 000000014001f5b8     KizuLibMFC:ThreadManager.obj
 0004:000005c4       $pdata$??0exception@std@@QEAA@AEBV01@@Z 000000014001f5c4     KizuLibMFC:LogFileManager.obj
 0004:000005d0       $pdata$??_Gbad_cast@std@@UEAAPEAXI@Z 000000014001f5d0     KizuLibMFC:LogFileManager.obj
 0004:000005d0       $pdata$??_Gexception@std@@UEAAPEAXI@Z 000000014001f5d0     KizuLibMFC:LogFileManager.obj
 0004:000005dc       $pdata$??1locale@std@@QEAA@XZ 000000014001f5dc     KizuLibMFC:LogFileManager.obj
 0004:000005e8       $pdata$??1AutoLock@KizuLib@@UEAA@XZ 000000014001f5e8     KizuLibMFC:LogFileManager.obj
 0004:000005f4       $pdata$??_GAutoLock@KizuLib@@UEAAPEAXI@Z 000000014001f5f4     KizuLibMFC:LogFileManager.obj
 0004:00000600       $pdata$?GetNowLogPath@LogFileManager@KizuLib@@QEAA?AV?$CStringT@DV?$StrTraitMFC_DLL@DV?$ChTraitsCRT@D@ATL@@@@@ATL@@XZ 000000014001f600     KizuLibMFC:LogFileManager.obj
 0004:0000060c       $pdata$??0LogFileManager@KizuLib@@QEAA@PEBDPEAVCListBox@@HH@Z 000000014001f60c     KizuLibMFC:LogFileManager.obj
 0004:00000618       $pdata$??_GLogFileManager@KizuLib@@UEAAPEAXI@Z 000000014001f618     KizuLibMFC:LogFileManager.obj
 0004:00000624       $pdata$??_D?$basic_ofstream@DU?$char_traits@D@std@@@std@@QEAAXXZ 000000014001f624     KizuLibMFC:LogFileManager.obj
 0004:00000630       $pdata$??1LogFileManager@KizuLib@@UEAA@XZ 000000014001f630     KizuLibMFC:LogFileManager.obj
 0004:0000063c       $pdata$?Write@LogFileManager@KizuLib@@QEAAXW4LNO@12@PEBDZZ 000000014001f63c     KizuLibMFC:LogFileManager.obj
 0004:00000648       $pdata$?WriteFile@LogFileManager@KizuLib@@QEAAXPEBD@Z 000000014001f648     KizuLibMFC:LogFileManager.obj
 0004:00000654       $pdata$?WriteList@LogFileManager@KizuLib@@AEAAXPEBD@Z 000000014001f654     KizuLibMFC:LogFileManager.obj
 0004:00000660       $pdata$?AllGetQueue@LogFileManager@KizuLib@@QEAAHXZ 000000014001f660     KizuLibMFC:LogFileManager.obj
 0004:0000066c       $pdata$?ShowEdit@LogFileManager@KizuLib@@QEAAXXZ 000000014001f66c     KizuLibMFC:LogFileManager.obj
 0004:00000678       $pdata$?MainThread@LogFileManager@KizuLib@@CAIPEAX@Z 000000014001f678     KizuLibMFC:LogFileManager.obj
 0004:00000684       $pdata$4$?MainThread@LogFileManager@KizuLib@@CAIPEAX@Z 000000014001f684     KizuLibMFC:LogFileManager.obj
 0004:00000690       $pdata$5$?MainThread@LogFileManager@KizuLib@@CAIPEAX@Z 000000014001f690     KizuLibMFC:LogFileManager.obj
 0004:0000069c       $pdata$??1?$basic_string@DU?$char_traits@D@std@@V?$allocator@D@2@@std@@QEAA@XZ 000000014001f69c     KizuLibMFC:LogFileManager.obj
 0004:000006a8       $pdata$??1?$basic_ofstream@DU?$char_traits@D@std@@@std@@UEAA@XZ 000000014001f6a8     KizuLibMFC:LogFileManager.obj
 0004:000006b4       $pdata$??0?$basic_ofstream@DU?$char_traits@D@std@@@std@@QEAA@XZ 000000014001f6b4     KizuLibMFC:LogFileManager.obj
 0004:000006c0       $pdata$?imbue@?$basic_filebuf@DU?$char_traits@D@std@@@std@@MEAAXAEBVlocale@2@@Z 000000014001f6c0     KizuLibMFC:LogFileManager.obj
 0004:000006cc       $pdata$?sync@?$basic_filebuf@DU?$char_traits@D@std@@@std@@MEAAHXZ 000000014001f6cc     KizuLibMFC:LogFileManager.obj
 0004:000006d8       $pdata$?setbuf@?$basic_filebuf@DU?$char_traits@D@std@@@std@@MEAAPEAV?$basic_streambuf@DU?$char_traits@D@std@@@2@PEAD_J@Z 000000014001f6d8     KizuLibMFC:LogFileManager.obj
 0004:000006e4       $pdata$0$?setbuf@?$basic_filebuf@DU?$char_traits@D@std@@@std@@MEAAPEAV?$basic_streambuf@DU?$char_traits@D@std@@@2@PEAD_J@Z 000000014001f6e4     KizuLibMFC:LogFileManager.obj
 0004:000006f0       $pdata$1$?setbuf@?$basic_filebuf@DU?$char_traits@D@std@@@std@@MEAAPEAV?$basic_streambuf@DU?$char_traits@D@std@@@2@PEAD_J@Z 000000014001f6f0     KizuLibMFC:LogFileManager.obj
 0004:000006fc       $pdata$?seekpos@?$basic_filebuf@DU?$char_traits@D@std@@@std@@MEAA?AV?$fpos@U_Mbstatet@@@2@V32@H@Z 000000014001f6fc     KizuLibMFC:LogFileManager.obj
 0004:00000708       $pdata$?seekoff@?$basic_filebuf@DU?$char_traits@D@std@@@std@@MEAA?AV?$fpos@U_Mbstatet@@@2@_JHH@Z 000000014001f708     KizuLibMFC:LogFileManager.obj
 0004:00000714       $pdata$?uflow@?$basic_filebuf@DU?$char_traits@D@std@@@std@@MEAAHXZ 000000014001f714     KizuLibMFC:LogFileManager.obj
 0004:00000720       $pdata$?underflow@?$basic_filebuf@DU?$char_traits@D@std@@@std@@MEAAHXZ 000000014001f720     KizuLibMFC:LogFileManager.obj
 0004:0000072c       $pdata$0$?underflow@?$basic_filebuf@DU?$char_traits@D@std@@@std@@MEAAHXZ 000000014001f72c     KizuLibMFC:LogFileManager.obj
 0004:00000738       $pdata$2$?underflow@?$basic_filebuf@DU?$char_traits@D@std@@@std@@MEAAHXZ 000000014001f738     KizuLibMFC:LogFileManager.obj
 0004:00000744       $pdata$?pbackfail@?$basic_filebuf@DU?$char_traits@D@std@@@std@@MEAAHH@Z 000000014001f744     KizuLibMFC:LogFileManager.obj
 0004:00000750       $pdata$?overflow@?$basic_filebuf@DU?$char_traits@D@std@@@std@@MEAAHH@Z 000000014001f750     KizuLibMFC:LogFileManager.obj
 0004:0000075c       $pdata$??_G?$basic_ofstream@DU?$char_traits@D@std@@@std@@UEAAPEAXI@Z 000000014001f75c     KizuLibMFC:LogFileManager.obj
 0004:00000768       $pdata$??_G?$basic_filebuf@DU?$char_traits@D@std@@@std@@UEAAPEAXI@Z 000000014001f768     KizuLibMFC:LogFileManager.obj
 0004:00000774       $pdata$?_Endwrite@?$basic_filebuf@DU?$char_traits@D@std@@@std@@IEAA_NXZ 000000014001f774     KizuLibMFC:LogFileManager.obj
 0004:00000780       $pdata$?close@?$basic_filebuf@DU?$char_traits@D@std@@@std@@QEAAPEAV12@XZ 000000014001f780     KizuLibMFC:LogFileManager.obj
 0004:0000078c       $pdata$?open@?$basic_filebuf@DU?$char_traits@D@std@@@std@@QEAAPEAV12@PEBDHH@Z 000000014001f78c     KizuLibMFC:LogFileManager.obj
 0004:00000798       $pdata$?_Copy@?$basic_string@DU?$char_traits@D@std@@V?$allocator@D@2@@std@@QEAAX_K0@Z 000000014001f798     KizuLibMFC:LogFileManager.obj
 0004:000007a4       $pdata$?allocate@?$_Wrap_alloc@V?$allocator@D@std@@@std@@QEAAPEAD_K@Z 000000014001f7a4     KizuLibMFC:LogFileManager.obj
 0004:000007b0       $pdata$??0?$ThreadQueue@D@KizuLib@@QEAA@H@Z 000000014001f7b0     KizuLibMFC:LogFileManager.obj
 0004:000007bc       $pdata$??1?$ThreadQueue@D@KizuLib@@UEAA@XZ 000000014001f7bc     KizuLibMFC:LogFileManager.obj
 0004:000007c8       $pdata$0$??1?$ThreadQueue@D@KizuLib@@UEAA@XZ 000000014001f7c8     KizuLibMFC:LogFileManager.obj
 0004:000007d4       $pdata$1$??1?$ThreadQueue@D@KizuLib@@UEAA@XZ 000000014001f7d4     KizuLibMFC:LogFileManager.obj
 0004:000007e0       $pdata$?GetFromHead@?$ThreadQueue@D@KizuLib@@QEAAPEADXZ 000000014001f7e0     KizuLibMFC:LogFileManager.obj
 0004:000007ec       $pdata$??$?6U?$char_traits@D@std@@@std@@YAAEAV?$basic_ostream@DU?$char_traits@D@std@@@0@AEAV10@PEBD@Z 000000014001f7ec     KizuLibMFC:LogFileManager.obj
 0004:000007f8       $pdata$??$endl@DU?$char_traits@D@std@@@std@@YAAEAV?$basic_ostream@DU?$char_traits@D@std@@@0@AEAV10@@Z 000000014001f7f8     KizuLibMFC:LogFileManager.obj
 0004:00000804       $pdata$??$use_facet@V?$codecvt@DDU_Mbstatet@@@std@@@std@@YAAEBV?$codecvt@DDU_Mbstatet@@@0@AEBVlocale@0@@Z 000000014001f804     KizuLibMFC:LogFileManager.obj
 0004:00000810       $pdata$??0bad_cast@std@@QEAA@AEBV01@@Z 000000014001f810     KizuLibMFC:LogFileManager.obj
 0004:0000081c       $pdata$??_G?$ThreadQueue@D@KizuLib@@UEAAPEAXI@Z 000000014001f81c     KizuLibMFC:LogFileManager.obj
 0004:00000828       $pdata$?push_back@?$deque@PEADV?$allocator@PEAD@std@@@std@@QEAAXAEBQEAD@Z 000000014001f828     KizuLibMFC:LogFileManager.obj
 0004:00000834       $pdata$??1sentry@?$basic_ostream@DU?$char_traits@D@std@@@std@@QEAA@XZ 000000014001f834     KizuLibMFC:LogFileManager.obj
 0004:00000840       $pdata$?_Tidy@?$deque@PEADV?$allocator@PEAD@std@@@std@@IEAAXXZ 000000014001f840     KizuLibMFC:LogFileManager.obj
 0004:0000084c       $pdata$?_Growmap@?$deque@PEADV?$allocator@PEAD@std@@@std@@IEAAX_K@Z 000000014001f84c     KizuLibMFC:LogFileManager.obj
 0004:00000858       $pdata$1$?_Growmap@?$deque@PEADV?$allocator@PEAD@std@@@std@@IEAAX_K@Z 000000014001f858     KizuLibMFC:LogFileManager.obj
 0004:00000864       $pdata$5$?_Growmap@?$deque@PEADV?$allocator@PEAD@std@@@std@@IEAAX_K@Z 000000014001f864     KizuLibMFC:LogFileManager.obj
 0004:00000870       $pdata$6$?_Growmap@?$deque@PEADV?$allocator@PEAD@std@@@std@@IEAAX_K@Z 000000014001f870     KizuLibMFC:LogFileManager.obj
 0004:0000087c       $pdata$7$?_Growmap@?$deque@PEADV?$allocator@PEAD@std@@@std@@IEAAX_K@Z 000000014001f87c     KizuLibMFC:LogFileManager.obj
 0004:00000888       $pdata$8$?_Growmap@?$deque@PEADV?$allocator@PEAD@std@@@std@@IEAAX_K@Z 000000014001f888     KizuLibMFC:LogFileManager.obj
 0004:00000894       $pdata$9$?_Growmap@?$deque@PEADV?$allocator@PEAD@std@@@std@@IEAAX_K@Z 000000014001f894     KizuLibMFC:LogFileManager.obj
 0004:000008a0       $pdata$??1_Sentry_base@?$basic_ostream@DU?$char_traits@D@std@@@std@@QEAA@XZ 000000014001f8a0     KizuLibMFC:LogFileManager.obj
 0004:000008ac       $pdata$sprintf             000000014001f8ac     KizuLibMFC:LogFileManager.obj
 0004:000008b8       $pdata$??_GWorkThread@KizuLib@@UEAAPEAXI@Z 000000014001f8b8     KizuLib:WorkThread.obj
 0004:000008c4       $pdata$?MainThread@WorkThread@KizuLib@@MEAAIXZ 000000014001f8c4     KizuLib:WorkThread.obj
 0004:000008d0       $pdata$?SetThreadName@WorkThread@KizuLib@@SAXPEBDK@Z 000000014001f8d0     KizuLib:WorkThread.obj
 0004:000008dc       $pdata$?task_init@@YAHPEBDH@Z 000000014001f8dc     KizuLib:KizuLib.obj
 0004:000008e8       $pdata$0$?task_init@@YAHPEBDH@Z 000000014001f8e8     KizuLib:KizuLib.obj
 0004:000008f4       $pdata$2$?task_init@@YAHPEBDH@Z 000000014001f8f4     KizuLib:KizuLib.obj
 0004:00000900       $pdata$4$?task_init@@YAHPEBDH@Z 000000014001f900     KizuLib:KizuLib.obj
 0004:0000090c       $pdata$?syslog@@YAHJPEBDZZ 000000014001f90c     KizuLib:KizuLib.obj
 0004:00000918       $pdata$?statelog@@YAHJJJPEBDZZ 000000014001f918     KizuLib:KizuLib.obj
 0004:00000924       $pdata$?SetStatus@KizuFunction@KizuLib@@SA_NHH_NPEBD@Z 000000014001f924     KizuLib:KizuFunction.obj
 0004:00000930       $pdata$??_GKizuPerformanceCounter@KizuLib@@UEAAPEAXI@Z 000000014001f930     KizuLib:KizuPerformanceCounter.obj
 0004:0000093c       $pdata$??0KizuPcInfManager@KizuLib@@QEAA@H@Z 000000014001f93c     KizuLib:KizuPcInfManager.obj
 0004:00000948       $pdata$??_GKizuPcInfManager@KizuLib@@UEAAPEAXI@Z 000000014001f948     KizuLib:KizuPcInfManager.obj
 0004:00000954       $pdata$?SetPcName@KizuPcInfManager@KizuLib@@QEAA_NPEADPEBD1@Z 000000014001f954     KizuLib:KizuPcInfManager.obj
 0004:00000960       $pdata$??_GMailSlotManager@KizuLib@@UEAAPEAXI@Z 000000014001f960     KizuLib:MailSlotManager.obj
 0004:0000096c       $pdata$?SendMail@MailSlotManager@KizuLib@@SAHPEBD0PEBXK@Z 000000014001f96c     KizuLib:MailSlotManager.obj
 0004:00000978       $pdata$?Create@MailSlotManager@KizuLib@@QEAA_NPEBDK@Z 000000014001f978     KizuLib:MailSlotManager.obj
 0004:00000984       $pdata$?Recv@MailSlotManager@KizuLib@@UEAAHPEAXK@Z 000000014001f984     KizuLib:MailSlotManager.obj
 0004:00000990       $pdata$?Send@MailSlotManager@KizuLib@@UEAAHPEBXK@Z 000000014001f990     KizuLib:MailSlotManager.obj
 0004:0000099c       $pdata$?Recv@MailSlotManager@KizuLib@@UEAA_NPEAXKPEAU_OVERLAPPED@@@Z 000000014001f99c     KizuLib:MailSlotManager.obj
 0004:000009a8       $pdata$?Send@MailSlotManager@KizuLib@@UEAA_NPEBXKPEAU_OVERLAPPED@@@Z 000000014001f9a8     KizuLib:MailSlotManager.obj
 0004:000009b4       $pdata$?GetResult@MailSlotManager@KizuLib@@UEAA_NPEAU_OVERLAPPED@@@Z 000000014001f9b4     KizuLib:MailSlotManager.obj
 0004:000009c0       $pdata$??_GOdbcBase@KizuODBC@@UEAAPEAXI@Z 000000014001f9c0     KizuODBC:OdbcBase.obj
 0004:000009cc       $pdata$??1OdbcBase@KizuODBC@@UEAA@XZ 000000014001f9cc     KizuODBC:OdbcBase.obj
 0004:000009d8       $pdata$?OpenCheck@OdbcBase@KizuODBC@@SA_NPEBD0@Z 000000014001f9d8     KizuODBC:OdbcBase.obj
 0004:000009e4       $pdata$0$?OpenCheck@OdbcBase@KizuODBC@@SA_NPEBD0@Z 000000014001f9e4     KizuODBC:OdbcBase.obj
 0004:000009f0       $pdata$1$?OpenCheck@OdbcBase@KizuODBC@@SA_NPEBD0@Z 000000014001f9f0     KizuODBC:OdbcBase.obj
 0004:000009fc       $pdata$?DisConnect@OdbcBase@KizuODBC@@QEAAXXZ 000000014001f9fc     KizuODBC:OdbcBase.obj
 0004:00000a08       $pdata$?GetSelectKey@OdbcBase@KizuODBC@@QEAA_NPEBDHPEAD@Z 000000014001fa08     KizuODBC:OdbcBase.obj
 0004:00000a14       $pdata$?GetSelectKey@OdbcBase@KizuODBC@@QEAA_NPEBDPEAH@Z 000000014001fa14     KizuODBC:OdbcBase.obj
 0004:00000a20       $pdata$?GetSelectKey_Static@OdbcBase@KizuODBC@@SA_NPEBDPEAH00@Z 000000014001fa20     KizuODBC:OdbcBase.obj
 0004:00000a2c       $pdata$??0OdbcEnv@KizuODBC@@AEAA@XZ 000000014001fa2c     KizuODBC:OdbcEnv.obj
 0004:00000a38       $pdata$??_GOdbcEnv@KizuODBC@@UEAAPEAXI@Z 000000014001fa38     KizuODBC:OdbcEnv.obj
 0004:00000a44       $pdata$?GetErrMsg@OdbcEnv@KizuODBC@@QEAAXXZ 000000014001fa44     KizuODBC:OdbcEnv.obj
 0004:00000a50       $pdata$??_GOdbcManager@KizuODBC@@UEAAPEAXI@Z 000000014001fa50     KizuODBC:OdbcManager.obj
 0004:00000a5c       $pdata$??1OdbcManager@KizuODBC@@UEAA@XZ 000000014001fa5c     KizuODBC:OdbcManager.obj
 0004:00000a68       $pdata$?Alloc@OdbcManager@KizuODBC@@IEAAXXZ 000000014001fa68     KizuODBC:OdbcManager.obj
 0004:00000a74       $pdata$?Connect@OdbcManager@KizuODBC@@QEAAHPEBD0@Z 000000014001fa74     KizuODBC:OdbcManager.obj
 0004:00000a80       $pdata$?Connect@OdbcManager@KizuODBC@@QEAAHPEBD00@Z 000000014001fa80     KizuODBC:OdbcManager.obj
 0004:00000a8c       $pdata$?ExecuteDirect@OdbcManager@KizuODBC@@QEAAFPEBD@Z 000000014001fa8c     KizuODBC:OdbcManager.obj
 0004:00000a98       $pdata$?ExecuteDirectAsync@OdbcManager@KizuODBC@@QEAAFPEBD_N@Z 000000014001fa98     KizuODBC:OdbcManager.obj
 0004:00000aa4       $pdata$0$?ExecuteDirectAsync@OdbcManager@KizuODBC@@QEAAFPEBD_N@Z 000000014001faa4     KizuODBC:OdbcManager.obj
 0004:00000ab0       $pdata$1$?ExecuteDirectAsync@OdbcManager@KizuODBC@@QEAAFPEBD_N@Z 000000014001fab0     KizuODBC:OdbcManager.obj
 0004:00000abc       $pdata$?GetErrMsg@OdbcManager@KizuODBC@@QEAAXXZ 000000014001fabc     KizuODBC:OdbcManager.obj
 0004:00000ac8       $pdata$?GetErrMsg@OdbcManager@KizuODBC@@QEAAXF@Z 000000014001fac8     KizuODBC:OdbcManager.obj
 0004:00000ae0       $pdata$??_Gtype_info@@UEAAPEAXI@Z 000000014001fae0     msvcrt:std_type_info_static.obj
 0004:00000aec       $pdata$??_L@YAXPEAX_K1P6AX0@Z2@Z 000000014001faec     msvcrt:ehvecctr.obj
 0004:00000af8       $pdata$??_M@YAXPEAX_K1P6AX0@Z@Z 000000014001faf8     msvcrt:ehvecdtr.obj
 0004:00000b04       $pdata$?__ArrayUnwind@@YAXPEAX_K1P6AX0@Z@Z 000000014001fb04     msvcrt:ehvecdtr.obj
 0004:00000b10       $pdata$?__scrt_initialize_thread_safe_statics@@YAHXZ 000000014001fb10     msvcrt:thread_safe_statics.obj
 0004:00000b1c       $pdata$?__scrt_uninitialize_thread_safe_statics@@YAXXZ 000000014001fb1c     msvcrt:thread_safe_statics.obj
 0004:00000b28       $pdata$__scrt_acquire_startup_lock 000000014001fb28     msvcrt:utility.obj
 0004:00000b34       $pdata$__scrt_initialize_crt 000000014001fb34     msvcrt:utility.obj
 0004:00000b40       $pdata$__scrt_initialize_onexit_tables 000000014001fb40     msvcrt:utility.obj
 0004:00000b4c       $pdata$__scrt_is_nonwritable_in_current_image 000000014001fb4c     msvcrt:utility.obj
 0004:00000b58       $pdata$__scrt_release_startup_lock 000000014001fb58     msvcrt:utility.obj
 0004:00000b64       $pdata$__scrt_uninitialize_crt 000000014001fb64     msvcrt:utility.obj
 0004:00000b70       $pdata$_onexit             000000014001fb70     msvcrt:utility.obj
 0004:00000b7c       $pdata$atexit              000000014001fb7c     msvcrt:utility.obj
 0004:00000b88       $pdata$?pre_c_initialization@@YAHXZ 000000014001fb88     msvcrt:exe_winmain.obj
 0004:00000b94       $pdata$?post_pgo_initialization@@YAHXZ 000000014001fb94     msvcrt:exe_winmain.obj
 0004:00000ba0       $pdata$?pre_cpp_initialization@@YAXXZ 000000014001fba0     msvcrt:exe_winmain.obj
 0004:00000bac       $pdata$?__scrt_common_main_seh@@YAHXZ 000000014001fbac     msvcrt:exe_winmain.obj
 0004:00000bb8       $pdata$WinMainCRTStartup   000000014001fbb8     msvcrt:exe_winmain.obj
 0004:00000bc4       $pdata$__raise_securityfailure 000000014001fbc4     msvcrt:gs_report.obj
 0004:00000bd0       $pdata$__report_gsfailure  000000014001fbd0     msvcrt:gs_report.obj
 0004:00000bdc       $pdata$capture_previous_context 000000014001fbdc     msvcrt:gs_report.obj
 0004:00000be8       $pdata$__scrt_fastfail     000000014001fbe8     msvcrt:utility_desktop.obj
 0004:00000bf4       $pdata$__scrt_get_show_window_mode 000000014001fbf4     msvcrt:utility_desktop.obj
 0004:00000c00       $pdata$__scrt_is_managed_app 000000014001fc00     msvcrt:utility_desktop.obj
 0004:00000c0c       $pdata$__scrt_unhandled_exception_filter 000000014001fc0c     msvcrt:utility_desktop.obj
 0004:00000c18       $pdata$__isa_available_init 000000014001fc18     msvcrt:_cpu_disp_.obj
 0004:00000c24       $pdata$__security_init_cookie 000000014001fc24     msvcrt:gs_support.obj
 0004:00000c30       $pdata$__scrt_initialize_default_local_stdio_options 000000014001fc30     msvcrt:default_local_stdio_options.obj
 0004:00000c3c       $pdata$_RTC_Initialize     000000014001fc3c     msvcrt:_initsect_.obj
 0004:00000c48       $pdata$_RTC_Terminate      000000014001fc48     msvcrt:_initsect_.obj
 0004:00000c54       $pdata$__GSHandlerCheck    000000014001fc54     msvcrt:_gshandler_.obj
 0004:00000c60       $pdata$__GSHandlerCheckCommon 000000014001fc60     msvcrt:_gshandler_.obj
 0004:00000c6c       $pdata$??0CAtlBaseModule@ATL@@QEAA@XZ 000000014001fc6c     atls:atlbase.obj
 0004:00000c78       $pdata$??1CAtlBaseModule@ATL@@QEAA@XZ 000000014001fc78     atls:atlbase.obj
 0004:00000c84       $pdata$??_G_Fac_node@std@@QEAAPEAXI@Z 000000014001fc84     msvcprt:locale0_implib.obj
 0004:00000c90       $pdata$?_Facet_Register@std@@YAXPEAV_Facet_base@1@@Z 000000014001fc90     msvcprt:locale0_implib.obj
 0004:00000c9c       $pdata$?AfxInitialize@@YAHHK@Z 000000014001fc9c     mfcs140:appmodul.obj
 0004:00000ca8       $pdata$__GSHandlerCheck_EH 000000014001fca8     msvcrt:gshandlereh.obj
 0004:00000ccc       $pdata$?dtor$0@?0??WorkerInit@ControlLowGr@@QEAAXXZ@4HA 000000014001fccc     ControlLowGr.obj
 0004:00000cd8       $pdata$?dtor$0@?0??WorkerInit@ControlManager@@QEAAXXZ@4HA 000000014001fcd8     ControlManager.obj
 0004:00000ce4       $pdata$?dtor$3@?0??WorkerInit@ControlManager@@QEAAXXZ@4HA 000000014001fce4     ControlManager.obj
 0004:00000cf0       $pdata$?dtor$0@?0??GetThreadNameArray@@YA?AV?$CStringT@DV?$StrTraitMFC_DLL@DV?$ChTraitsCRT@D@ATL@@@@@ATL@@PEADH@Z@4HA 000000014001fcf0     DefragManager.obj
 0004:00000cf0       $pdata$?dtor$0@?0??GetThreadNameArray@@YA?AV?$CStringT@DV?$StrTraitMFC_DLL@DV?$ChTraitsCRT@D@ATL@@@@@ATL@@PEADH@Z@4HA 000000014001fcf0     DeleLowGr.obj
 0004:00000cfc       $pdata$?dtor$74@?0??push_back@?$vector@V?$CStringT@DV?$StrTraitMFC_DLL@DV?$ChTraitsCRT@D@ATL@@@@@ATL@@V?$allocator@V?$CStringT@DV?$StrTraitMFC_DLL@DV?$ChTraitsCRT@D@ATL@@@@@ATL@@@std@@@std@@QEAAX$$QEAV?$CStringT@DV?$StrTraitMFC_DLL@DV?$ChTraitsCRT@D@ATL@@@@@ATL@@@Z@4HA 000000014001fcfc     DefragManager.obj
 0004:00000d08       $pdata$?dtor$139@?0??push_back@?$vector@V?$CStringT@DV?$StrTraitMFC_DLL@DV?$ChTraitsCRT@D@ATL@@@@@ATL@@V?$allocator@V?$CStringT@DV?$StrTraitMFC_DLL@DV?$ChTraitsCRT@D@ATL@@@@@ATL@@@std@@@std@@QEAAX$$QEAV?$CStringT@DV?$StrTraitMFC_DLL@DV?$ChTraitsCRT@D@ATL@@@@@ATL@@@Z@4HA 000000014001fd08     DefragManager.obj
 0004:00000d14       $pdata$?catch$51@?0??_Reallocate@?$vector@V?$CStringT@DV?$StrTraitMFC_DLL@DV?$ChTraitsCRT@D@ATL@@@@@ATL@@V?$allocator@V?$CStringT@DV?$StrTraitMFC_DLL@DV?$ChTraitsCRT@D@ATL@@@@@ATL@@@std@@@std@@IEAAX_K@Z@4HA 000000014001fd14     DefragManager.obj
 0004:00000d20       $pdata$?dtor$3@?0???$_Uninitialized_move_al_unchecked1@PEAV?$CStringT@DV?$StrTraitMFC_DLL@DV?$ChTraitsCRT@D@ATL@@@@@ATL@@PEAV12@V?$allocator@V?$CStringT@DV?$StrTraitMFC_DLL@DV?$ChTraitsCRT@D@ATL@@@@@ATL@@@std@@@std@@YAPEAV?$CStringT@DV?$StrTraitMFC_DLL@DV?$ChTraitsCRT@D@ATL@@@@@ATL@@PEAV12@00AEAU?$_Wrap_alloc@V?$allocator@V?$CStringT@DV?$StrTraitMFC_DLL@DV?$ChTraitsCRT@D@ATL@@@@@ATL@@@std@@@0@U_General_ptr_iterator_tag@0@U_Any_tag@0@@Z@4HA 000000014001fd20     DefragManager.obj
 0004:00000d2c       $pdata$?catch$5@?0???$_Uninitialized_move_al_unchecked1@PEAV?$CStringT@DV?$StrTraitMFC_DLL@DV?$ChTraitsCRT@D@ATL@@@@@ATL@@PEAV12@V?$allocator@V?$CStringT@DV?$StrTraitMFC_DLL@DV?$ChTraitsCRT@D@ATL@@@@@ATL@@@std@@@std@@YAPEAV?$CStringT@DV?$StrTraitMFC_DLL@DV?$ChTraitsCRT@D@ATL@@@@@ATL@@PEAV12@00AEAU?$_Wrap_alloc@V?$allocator@V?$CStringT@DV?$StrTraitMFC_DLL@DV?$ChTraitsCRT@D@ATL@@@@@ATL@@@std@@@0@U_General_ptr_iterator_tag@0@U_Any_tag@0@@Z@4HA 000000014001fd2c     DefragManager.obj
 0004:00000d38       $pdata$?dtor$1@?0??Init@MainInctance@@QEAAHXZ@4HA 000000014001fd38     MainInctance.obj
 0004:00000d44       $pdata$?dtor$3@?0??Init@MainInctance@@QEAAHXZ@4HA 000000014001fd44     MainInctance.obj
 0004:00000d50       $pdata$?dtor$2@?0??Init@MainInctance@@QEAAHXZ@4HA 000000014001fd50     MainInctance.obj
 0004:00000d5c       $pdata$?dtor$0@?0??InitProcess@CTI_DELETEDlg@@AEAAXXZ@4HA 000000014001fd5c     TI_DELETEDlg.obj
 0004:00000d68       $pdata$?dtor$0@?0???0?$basic_ofstream@DU?$char_traits@D@std@@@std@@QEAA@XZ@4HA 000000014001fd68     KizuLibMFC:LogFileManager.obj
 0004:00000d74       $pdata$?catch$107@?0??_Copy@?$basic_string@DU?$char_traits@D@std@@V?$allocator@D@2@@std@@QEAAX_K0@Z@4HA 000000014001fd74     KizuLibMFC:LogFileManager.obj
 0004:00000d80       $pdata$?catch$106@?0??_Copy@?$basic_string@DU?$char_traits@D@std@@V?$allocator@D@2@@std@@QEAAX_K0@Z@4HA 000000014001fd80     KizuLibMFC:LogFileManager.obj
 0004:00000d8c       $pdata$?catch$8@?0???$?6U?$char_traits@D@std@@@std@@YAAEAV?$basic_ostream@DU?$char_traits@D@std@@@0@AEAV10@PEBD@Z@4HA 000000014001fd8c     KizuLibMFC:LogFileManager.obj
 0004:00000d98       $pdata$?filt$0@?0??SetThreadName@WorkThread@KizuLib@@SAXPEBDK@Z@4HA 000000014001fd98     KizuLib:WorkThread.obj
 0004:00000da4       $pdata$?fin$0@?0???_L@YAXPEAX_K1P6AX0@Z2@Z@4HA 000000014001fda4     msvcrt:ehvecctr.obj
 0004:00000db0       $pdata$?fin$0@?0???_M@YAXPEAX_K1P6AX0@Z@Z@4HA 000000014001fdb0     msvcrt:ehvecdtr.obj
 0004:00000dbc       $pdata$?filt$0@?0??__ArrayUnwind@@YAXPEAX_K1P6AX0@Z@Z@4HA 000000014001fdbc     msvcrt:ehvecdtr.obj
 0004:00000dc8       $pdata$__scrt_is_nonwritable_in_current_image$filt$0 000000014001fdc8     msvcrt:utility.obj
 0004:00000dd4       $pdata$?filt$0@?0??__scrt_common_main_seh@@YAHXZ@4HA 000000014001fdd4     msvcrt:exe_winmain.obj
 0004:00000de0       $pdata$??__F?m_inst@OdbcEnv@KizuODBC@@0V12@A@@YAXXZ 000000014001fde0     KizuODBC:OdbcEnv.obj
 0004:00000dec       $pdata$??__F_Fac_tidy_reg@std@@YAXXZ 000000014001fdec     msvcprt:locale0_implib.obj
 0005:00000000       __guard_fids__             0000000140020000     msvcrt:std_type_info_static.obj
 0005:00000004       __guard_fids__             0000000140020004     msvcrt:thread_safe_statics.obj
 0005:00000008       __guard_fids_?__scrt_initialize_thread_safe_statics@@YAHXZ 0000000140020008     msvcrt:thread_safe_statics.obj
 0005:0000000c       __guard_fids__             000000014002000c     msvcrt:exe_winmain.obj
 0005:00000010       __guard_fids__             0000000140020010     msvcrt:exe_winmain.obj
 0005:00000014       __guard_fids__             0000000140020014     msvcrt:exe_winmain.obj
 0005:00000018       __guard_fids_?pre_c_initialization@@YAHXZ 0000000140020018     msvcrt:exe_winmain.obj
 0005:00000020       __guard_fids___scrt_set_unhandled_exception_filter 0000000140020020     msvcrt:utility_desktop.obj
 0005:00000024       __guard_fids__             0000000140020024     msvcrt:guard_support.obj
 0005:00000028       __guard_fids_??__E_Fac_tidy_reg@std@@YAXXZ 0000000140020028     msvcprt:locale0_implib.obj
 0005:0000002c       __guard_fids__             000000014002002c     msvcprt:locale0_implib.obj
 0005:00000030       __guard_fids__             0000000140020030     mfcs140:appmodul.obj
 0007:00000300       $R000000                   0000000140022300     TI_DELETE.res
 0007:00000968       $R000668                   0000000140022968     TI_DELETE.res
 0007:00000c50       $R000950                   0000000140022c50     TI_DELETE.res
 0007:00000d78       $R000A78                   0000000140022d78     TI_DELETE.res
 0007:00001c20       $R001920                   0000000140023c20     TI_DELETE.res
 0007:000024c8       $R0021C8                   00000001400244c8     TI_DELETE.res
 0007:00002a30       $R002730                   0000000140024a30     TI_DELETE.res
 0007:000046d8       $R0043D8                   00000001400266d8     TI_DELETE.res
 0007:00005380       $R005080                   0000000140027380     TI_DELETE.res
 0007:000056e8       $R0053E8                   00000001400276e8     TI_DELETE.res
 0007:00005770       $R005470                   0000000140027770     TI_DELETE.res
 0007:00005da0       $R005AA0                   0000000140027da0     TI_DELETE.res
 0007:00006090       $R005D90                   0000000140028090     TI_DELETE.res
