 TO_CAMERA

 Timestamp is 5c91d7f2 (Wed Mar 20 15:04:34 2019)

 Preferred load address is 0000000140000000

 Start         Length     Name                   Class
 0001:00000000 000000b0H .text$di                CODE
 0001:000000b0 00010420H .text$mn                CODE
 0001:000104d0 00000020H .text$mn$00             CODE
 0001:000104f0 00000640H .text$x                 CODE
 0001:00010b30 0000008fH .text$yd                CODE
 0002:00000000 00000c58H .idata$5                DATA
 0002:00000c58 00000010H .00cfg                  DATA
 0002:00000c68 00000008H .CRT$XCA                DATA
 0002:00000c70 00000008H .CRT$XCAA               DATA
 0002:00000c78 00000018H .CRT$XCL                DATA
 0002:00000c90 00000010H .CRT$XCU                DATA
 0002:00000ca0 00000008H .CRT$XCZ                DATA
 0002:00000ca8 00000008H .CRT$XIA                DATA
 0002:00000cb0 00000008H .CRT$XIAA               DATA
 0002:00000cb8 00000008H .CRT$XIAC               DATA
 0002:00000cc0 00000008H .CRT$XIC                DATA
 0002:00000cc8 00000008H .CRT$XIZ                DATA
 0002:00000cd0 00000008H .CRT$XLA                DATA
 0002:00000cd8 00000008H .CRT$XLZ                DATA
 0002:00000ce0 00000008H .CRT$XPA                DATA
 0002:00000ce8 00000008H .CRT$XPZ                DATA
 0002:00000cf0 00000008H .CRT$XTA                DATA
 0002:00000cf8 00000008H .CRT$XTZ                DATA
 0002:00000d00 00003708H .rdata                  DATA
 0002:00004408 00000028H .rdata$T                DATA
 0002:00004430 0000109cH .rdata$r                DATA
 0002:000054cc 0000040cH .rdata$zzzdbg           DATA
 0002:000058d8 00000008H .rtc$IAA                DATA
 0002:000058e0 00000008H .rtc$IZZ                DATA
 0002:000058e8 00000008H .rtc$TAA                DATA
 0002:000058f0 00000010H .rtc$TZZ                DATA
 0002:00005900 00001da0H .xdata                  DATA
 0002:000076a0 000000e0H .xdata$x                DATA
 0002:00007780 00000000H ATL$__a                 DATA
 0002:00007780 00000000H ATL$__z                 DATA
 0002:00007780 00000000H .edata                  DATA
 0002:00007780 00000104H .idata$2                DATA
 0002:00007884 00000014H .idata$3                DATA
 0002:00007898 00000c58H .idata$4                DATA
 0002:000084f0 000012c4H .idata$6                DATA
 0003:00000000 00000050H .data                   DATA
 0003:00000050 00000670H .data$r                 DATA
 0003:000006c0 00000ef8H .bss                    DATA
 0004:00000000 0000153cH .pdata                  DATA
 0005:00000000 00000034H .gfids$y                DATA
 0006:00000000 00000004H .tls                    DATA
 0006:00000004 00000004H .tls$                   DATA
 0006:00000008 00000001H .tls$ZZZ                DATA
 0007:00000000 00000370H .rsrc$01                DATA
 0007:00000370 00008bd0H .rsrc$02                DATA

  Address         Publics by Value              Rva+Base               Lib:Object

 0000:00000000       __dynamic_value_reloc_table 0000000000000000     <absolute>
 0000:00000000       __guard_longjmp_count      0000000000000000     <absolute>
 0000:00000000       __guard_iat_table          0000000000000000     <absolute>
 0000:00000000       __guard_iat_count          0000000000000000     <absolute>
 0000:00000000       __guard_fids_count         0000000000000000     <absolute>
 0000:00000000       __guard_longjmp_table      0000000000000000     <absolute>
 0000:00000000       ___safe_se_handler_table   0000000000000000     <absolute>
 0000:00000000       ___safe_se_handler_count   0000000000000000     <absolute>
 0000:00000000       __guard_fids_table         0000000000000000     <absolute>
 0000:00000100       __guard_flags              0000000000000100     <absolute>
 0000:00000000       __ImageBase                0000000140000000     <linker-defined>
 0001:000000b0       ?_Allocate@std@@YAPEAX_K0_N@Z 00000001400010b0 f i CameraManager.obj
 0001:00000130       ??0CameraManager@@QEAA@XZ  0000000140001130 f   CameraManager.obj
 0001:000004d0       ??_GCameraManager@@UEAAPEAXI@Z 00000001400014d0 f i CameraManager.obj
 0001:000004d0       ??_ECameraManager@@UEAAPEAXI@Z 00000001400014d0 f i * CIL library *:* CIL module *
 0001:00000510       ??1CameraManager@@UEAA@XZ  0000000140001510 f   CameraManager.obj
 0001:000006a0       ?SetClass@CameraManager@@QEAAXHPEAD@Z 00000001400016a0 f   CameraManager.obj
 0001:00000910       ?MainThread@CameraManager@@CAIPEAX@Z 0000000140001910 f   CameraManager.obj
 0001:00000dd0       ?SetDataMailCommand@CameraManager@@AEAA_NPEAUCOMMON_QUE@@@Z 0000000140001dd0 f   CameraManager.obj
 0001:00001240       ?SetExposureTime@CameraManager@@AEAA_NHHH@Z 0000000140002240 f   CameraManager.obj
 0001:00001470       ?CheckNextSend@CameraManager@@AEAA_NXZ 0000000140002470 f   CameraManager.obj
 0001:000024c0       ?CheckDataRecv@CameraManager@@AEAA_NXZ 00000001400034c0 f   CameraManager.obj
 0001:000028b0       ?Open@CameraManager@@AEAA_N_N@Z 00000001400038b0 f   CameraManager.obj
 0001:00002950       ?Close@CameraManager@@AEAAXXZ 0000000140003950 f   CameraManager.obj
 0001:00002af0       ?Recv@CameraManager@@AEAA_NXZ 0000000140003af0 f   CameraManager.obj
 0001:00002c00       ?Send@CameraManager@@AEAA_NXZ 0000000140003c00 f   CameraManager.obj
 0001:00002d10       ?GetParam@CameraManager@@AEAA_NXZ 0000000140003d10 f   CameraManager.obj
 0001:00002db0       ?GetParamStatic@CameraManager@@AEAA_NXZ 0000000140003db0 f   CameraManager.obj
 0001:000038a0       ?DoDataExchange@CWnd@@MEAAXPEAVCDataExchange@@@Z 00000001400048a0 f i TO_CAMERADlg.obj
 0001:000038a0       _guard_check_icall_nop     00000001400048a0 f i msvcrt:guard_support.obj
 0001:000038a0       ?__global_delete@@YAXPEAX_K@Z 00000001400048a0 f i * CIL library *:* CIL module *
 0001:000038a0       ?OnClose@CTO_CAMERADlg@@QEAAXXZ 00000001400048a0 f i TO_CAMERADlg.obj
 0001:000038a0       ?Dump@CObject@@UEBAXAEAVCDumpContext@@@Z 00000001400048a0 f i TO_CAMERA.obj
 0001:000038a0       _initialize_denormal_control 00000001400048a0 f i msvcrt:denormal_control.obj
 0001:000038a0       ??3@YAXPEAX0@Z             00000001400048a0 f i CameraManager.obj
 0001:000038a0       ?Serialize@CObject@@UEAAXAEAVCArchive@@@Z 00000001400048a0 f i TO_CAMERA.obj
 0001:000038a0       ?AssertValid@CObject@@UEBAXXZ 00000001400048a0 f i TO_CAMERA.obj
 0001:000038a0       ?__empty_global_delete@@YAXPEAX_K@Z 00000001400048a0 f i CameraManager.obj
 0001:000038a0       _initialize_invalid_parameter_handler 00000001400048a0 f i msvcrt:invalid_parameter_handler.obj
 0001:000038a0       ?OnCancel@CTO_CAMERADlg@@EEAAXXZ 00000001400048a0 f i TO_CAMERADlg.obj
 0001:000038b0       ??1?$vector@V?$CStringT@DV?$StrTraitMFC_DLL@DV?$ChTraitsCRT@D@ATL@@@@@ATL@@V?$allocator@V?$CStringT@DV?$StrTraitMFC_DLL@DV?$ChTraitsCRT@D@ATL@@@@@ATL@@@std@@@std@@QEAA@XZ 00000001400048b0 f i CameraManager.obj
 0001:00003920       ?push_back@?$vector@V?$CStringT@DV?$StrTraitMFC_DLL@DV?$ChTraitsCRT@D@ATL@@@@@ATL@@V?$allocator@V?$CStringT@DV?$StrTraitMFC_DLL@DV?$ChTraitsCRT@D@ATL@@@@@ATL@@@std@@@std@@QEAAX$$QEAV?$CStringT@DV?$StrTraitMFC_DLL@DV?$ChTraitsCRT@D@ATL@@@@@ATL@@@Z 0000000140004920 f i CameraManager.obj
 0001:00003aa0       ?deallocate@?$_Wrap_alloc@V?$allocator@V?$CStringT@DV?$StrTraitMFC_DLL@DV?$ChTraitsCRT@D@ATL@@@@@ATL@@@std@@@std@@QEAAXPEAV?$CStringT@DV?$StrTraitMFC_DLL@DV?$ChTraitsCRT@D@ATL@@@@@ATL@@_K@Z 0000000140004aa0 f i CameraManager.obj
 0001:00003b20       ?_Reallocate@?$vector@V?$CStringT@DV?$StrTraitMFC_DLL@DV?$ChTraitsCRT@D@ATL@@@@@ATL@@V?$allocator@V?$CStringT@DV?$StrTraitMFC_DLL@DV?$ChTraitsCRT@D@ATL@@@@@ATL@@@std@@@std@@IEAAX_K@Z 0000000140004b20 f i CameraManager.obj
 0001:00003be0       ??0?$ThreadQueue@UCOMMON_QUE@@@KizuLib@@QEAA@H@Z 0000000140004be0 f i CameraManager.obj
 0001:00003c90       ??1?$ThreadQueue@UCOMMON_QUE@@@KizuLib@@UEAA@XZ 0000000140004c90 f i CameraManager.obj
 0001:00003cf0       ?GetFromHead@?$ThreadQueue@D@KizuLib@@QEAAPEADXZ 0000000140004cf0 f i KizuLibMFC:LogFileManager.obj
 0001:00003cf0       ?GetFromHead@?$ThreadQueue@UCOMMON_QUE@@@KizuLib@@QEAAPEAUCOMMON_QUE@@XZ 0000000140004cf0 f i CameraManager.obj
 0001:00003d90       ??_E?$ThreadQueue@UCOMMON_QUE@@@KizuLib@@UEAAPEAXI@Z 0000000140004d90 f i * CIL library *:* CIL module *
 0001:00003d90       ??_G?$ThreadQueue@UCOMMON_QUE@@@KizuLib@@UEAAPEAXI@Z 0000000140004d90 f i CameraManager.obj
 0001:00003e20       ?_Tidy@?$deque@PEADV?$allocator@PEAD@std@@@std@@IEAAXXZ 0000000140004e20 f i KizuLibMFC:LogFileManager.obj
 0001:00003e20       ?_Tidy@?$deque@PEAUCOMMON_QUE@@V?$allocator@PEAUCOMMON_QUE@@@std@@@std@@IEAAXXZ 0000000140004e20 f i CameraManager.obj
 0001:00003f10       ?begin@?$deque@PEAUCOMMON_QUE@@V?$allocator@PEAUCOMMON_QUE@@@std@@@std@@QEAA?AV?$_Deque_iterator@V?$_Deque_val@U?$_Deque_simple_types@PEAUCOMMON_QUE@@@std@@@std@@@2@XZ 0000000140004f10 f i CameraManager.obj
 0001:00003f10       ?begin@?$deque@PEADV?$allocator@PEAD@std@@@std@@QEAA?AV?$_Deque_iterator@V?$_Deque_val@U?$_Deque_simple_types@PEAD@std@@@std@@@2@XZ 0000000140004f10 f i KizuLibMFC:LogFileManager.obj
 0001:00003f30       ?Free@?$ThreadQueue@UCOMMON_QUE@@@KizuLib@@QEAAXXZ 0000000140004f30 f i CameraManager.obj
 0001:00003fb0       ??$_Uninitialized_move_al_unchecked1@PEAV?$CStringT@DV?$StrTraitMFC_DLL@DV?$ChTraitsCRT@D@ATL@@@@@ATL@@PEAV12@V?$allocator@V?$CStringT@DV?$StrTraitMFC_DLL@DV?$ChTraitsCRT@D@ATL@@@@@ATL@@@std@@@std@@YAPEAV?$CStringT@DV?$StrTraitMFC_DLL@DV?$ChTraitsCRT@D@ATL@@@@@ATL@@PEAV12@00AEAU?$_Wrap_alloc@V?$allocator@V?$CStringT@DV?$StrTraitMFC_DLL@DV?$ChTraitsCRT@D@ATL@@@@@ATL@@@std@@@0@U_General_ptr_iterator_tag@0@U_Any_tag@0@@Z 0000000140004fb0 f i CameraManager.obj
 0001:00004010       __local_stdio_printf_options 0000000140005010 f i CameraManager.obj
 0001:00004020       sprintf                    0000000140005020 f i CameraManager.obj
 0001:00004080       ??0MainInctance@@QEAA@XZ   0000000140005080 f   MainInctance.obj
 0001:00004120       ??_EMainInctance@@UEAAPEAXI@Z 0000000140005120 f i * CIL library *:* CIL module *
 0001:00004120       ??_GMainInctance@@UEAAPEAXI@Z 0000000140005120 f i MainInctance.obj
 0001:00004180       ??1MainInctance@@UEAA@XZ   0000000140005180 f   MainInctance.obj
 0001:000041c0       ?Init@MainInctance@@QEAAHXZ 00000001400051c0 f   MainInctance.obj
 0001:00004460       ?Exit@MainInctance@@QEAAXXZ 0000000140005460 f   MainInctance.obj
 0001:00004520       ?MainThread@MainInctance@@CAIPEAX@Z 0000000140005520 f   MainInctance.obj
 0001:00004620       ?_AtlInitializeCriticalSectionEx@ATL@@YAHPEAU_RTL_CRITICAL_SECTION@@KK@Z 0000000140005620 f i stdafx.obj
 0001:00004630       ?GetMessageMap@CTO_CAMERAApp@@MEBAPEBUAFX_MSGMAP@@XZ 0000000140005630 f   TO_CAMERA.obj
 0001:00004640       ??_GCTO_CAMERAApp@@UEAAPEAXI@Z 0000000140005640 f i TO_CAMERA.obj
 0001:00004640       ??_ECTO_CAMERAApp@@UEAAPEAXI@Z 0000000140005640 f i * CIL library *:* CIL module *
 0001:00004690       ?InitInstance@CTO_CAMERAApp@@UEAAHXZ 0000000140005690 f   TO_CAMERA.obj
 0001:00004780       ??1CTO_CAMERADlg@@UEAA@XZ  0000000140005780 f i TO_CAMERA.obj
 0001:00004800       ?GetApplicationRecoveryPingInterval@CWinApp@@UEAAKXZ 0000000140005800 f i TO_CAMERA.obj
 0001:00004810       __scrt_initialize_winrt    0000000140005810 f i msvcrt:utility_desktop.obj
 0001:00004810       ?GetApplicationRecoveryParameter@CWinApp@@UEAAPEAXXZ 0000000140005810 f i TO_CAMERA.obj
 0001:00004810       ?GetApplicationRestartFlags@CWinApp@@UEAAKXZ 0000000140005810 f i TO_CAMERA.obj
 0001:00004810       _get_startup_commit_mode   0000000140005810 f i msvcrt:commit_mode.obj
 0001:00004810       _matherr                   0000000140005810 f i msvcrt:matherr.obj
 0001:00004810       _get_startup_thread_locale_mode 0000000140005810 f i msvcrt:thread_locale.obj
 0001:00004810       _get_startup_new_mode      0000000140005810 f i msvcrt:new_mode.obj
 0001:00004820       ?RestoreAutosavedFilesAtRestart@CWinApp@@UEBAHXZ 0000000140005820 f i TO_CAMERA.obj
 0001:00004830       ?ReopenPreviousFilesAtRestart@CWinApp@@UEBAHXZ 0000000140005830 f i TO_CAMERA.obj
 0001:00004840       ?SupportsAutosaveAtInterval@CWinApp@@UEBAHXZ 0000000140005840 f i TO_CAMERA.obj
 0001:00004850       ?SupportsAutosaveAtRestart@CWinApp@@UEBAHXZ 0000000140005850 f i TO_CAMERA.obj
 0001:00004860       ?SupportsApplicationRecovery@CWinApp@@UEBAHXZ 0000000140005860 f i TO_CAMERA.obj
 0001:00004870       ?SupportsRestartManager@CWinApp@@UEBAHXZ 0000000140005870 f i TO_CAMERA.obj
 0001:00004880       ?GetMySession@CameraManager@@QEAA?AV?$CStringT@DV?$StrTraitMFC_DLL@DV?$ChTraitsCRT@D@ATL@@@@@ATL@@XZ 0000000140005880 f i TO_CAMERADlg.obj
 0001:000048b0       ??0CTO_CAMERADlg@@QEAA@PEAVCWnd@@@Z 00000001400058b0 f   TO_CAMERADlg.obj
 0001:00004990       ??_GCTO_CAMERADlg@@UEAAPEAXI@Z 0000000140005990 f i TO_CAMERADlg.obj
 0001:00004990       ??_ECTO_CAMERADlg@@UEAAPEAXI@Z 0000000140005990 f i * CIL library *:* CIL module *
 0001:000049e0       ?DoDataExchange@CTO_CAMERADlg@@MEAAXPEAVCDataExchange@@@Z 00000001400059e0 f   TO_CAMERADlg.obj
 0001:00004a40       ?GetMessageMap@CTO_CAMERADlg@@MEBAPEBUAFX_MSGMAP@@XZ 0000000140005a40 f   TO_CAMERADlg.obj
 0001:00004a50       ?OnInitDialog@CTO_CAMERADlg@@MEAAHXZ 0000000140005a50 f   TO_CAMERADlg.obj
 0001:00004d50       ?OnPaint@CTO_CAMERADlg@@IEAAXXZ 0000000140005d50 f   TO_CAMERADlg.obj
 0001:00004e60       ?OnQueryDragIcon@CTO_CAMERADlg@@IEAAPEAUHICON__@@XZ 0000000140005e60 f   TO_CAMERADlg.obj
 0001:00004e70       ?OnBnClickedOk@CTO_CAMERADlg@@QEAAXXZ 0000000140005e70 f   TO_CAMERADlg.obj
 0001:00004f00       ?OnLbnDblclkList1@CTO_CAMERADlg@@QEAAXXZ 0000000140005f00 f   TO_CAMERADlg.obj
 0001:00004f10       ?InitProcess@CTO_CAMERADlg@@AEAAXXZ 0000000140005f10 f   TO_CAMERADlg.obj
 0001:00005140       ?ExitProcess@CTO_CAMERADlg@@AEAAXXZ 0000000140006140 f   TO_CAMERADlg.obj
 0001:00005230       ?MainThread@CTO_CAMERADlg@@CAIPEAX@Z 0000000140006230 f   TO_CAMERADlg.obj
 0001:000055f0       ?CommandSender@CTO_CAMERADlg@@AEAAXPEAUCOMMON_QUE@@@Z 00000001400065f0 f   TO_CAMERADlg.obj
 0001:00005710       ?OnTimer@CTO_CAMERADlg@@QEAAX_K@Z 0000000140006710 f   TO_CAMERADlg.obj
 0001:00005d40       ?OnBnClickedDebugParam@CTO_CAMERADlg@@QEAAXXZ 0000000140006d40 f   TO_CAMERADlg.obj
 0001:00005dd0       ?OnBnClickedDebugInit@CTO_CAMERADlg@@QEAAXXZ 0000000140006dd0 f   TO_CAMERADlg.obj
 0001:00005ee0       ?OnBnClickedDebugCheckInit@CTO_CAMERADlg@@QEAAXXZ 0000000140006ee0 f   TO_CAMERADlg.obj
 0001:00005fb0       ?OnBnClickedDebugPlson@CTO_CAMERADlg@@QEAAXXZ 0000000140006fb0 f   TO_CAMERADlg.obj
 0001:00006040       ?OnBnClickedDebugPlsoff@CTO_CAMERADlg@@QEAAXXZ 0000000140007040 f   TO_CAMERADlg.obj
 0001:000060d0       ?OnBnClickedDebugScodeT@CTO_CAMERADlg@@QEAAXXZ 00000001400070d0 f   TO_CAMERADlg.obj
 0001:00006190       ?OnBnClickedDebugScodeB@CTO_CAMERADlg@@QEAAXXZ 0000000140007190 f   TO_CAMERADlg.obj
 0001:00006250       ?OnBnClickedDebugAgc@CTO_CAMERADlg@@QEAAXXZ 0000000140007250 f   TO_CAMERADlg.obj
 0001:000064b0       ?OnBnClickedRoup1@CTO_CAMERADlg@@QEAAXXZ 00000001400074b0 f   TO_CAMERADlg.obj
 0001:00006570       ?OnBnClickedRoup2@CTO_CAMERADlg@@QEAAXXZ 0000000140007570 f   TO_CAMERADlg.obj
 0001:00006630       ?OnBnClickedRoup3@CTO_CAMERADlg@@QEAAXXZ 0000000140007630 f   TO_CAMERADlg.obj
 0001:000066f0       ?OnBnClickedRoup4@CTO_CAMERADlg@@QEAAXXZ 00000001400076f0 f   TO_CAMERADlg.obj
 0001:000067b0       ?OnBnClickedRoup5@CTO_CAMERADlg@@QEAAXXZ 00000001400077b0 f   TO_CAMERADlg.obj
 0001:00006870       ?OnBnClickedRoup6@CTO_CAMERADlg@@QEAAXXZ 0000000140007870 f   TO_CAMERADlg.obj
 0001:00006930       ?OnBnClickedRoup7@CTO_CAMERADlg@@QEAAXXZ 0000000140007930 f   TO_CAMERADlg.obj
 0001:000069f0       ?OnBnClickedRoup8@CTO_CAMERADlg@@QEAAXXZ 00000001400079f0 f   TO_CAMERADlg.obj
 0001:00006ab0       ?OnBnClickedRoup9@CTO_CAMERADlg@@QEAAXXZ 0000000140007ab0 f   TO_CAMERADlg.obj
 0001:00006b70       ?OnBnClickedRoup10@CTO_CAMERADlg@@QEAAXXZ 0000000140007b70 f   TO_CAMERADlg.obj
 0001:00006c30       ?OnBnClickedRoup11@CTO_CAMERADlg@@QEAAXXZ 0000000140007c30 f   TO_CAMERADlg.obj
 0001:00006cf0       ?OnBnClickedRoup12@CTO_CAMERADlg@@QEAAXXZ 0000000140007cf0 f   TO_CAMERADlg.obj
 0001:00006db0       ?OnBnClickedRoup13@CTO_CAMERADlg@@QEAAXXZ 0000000140007db0 f   TO_CAMERADlg.obj
 0001:00006e70       ?OnBnClickedRoup14@CTO_CAMERADlg@@QEAAXXZ 0000000140007e70 f   TO_CAMERADlg.obj
 0001:00006f30       ?OnBnClickedRoup15@CTO_CAMERADlg@@QEAAXXZ 0000000140007f30 f   TO_CAMERADlg.obj
 0001:00006ff0       ?OnBnClickedRoup16@CTO_CAMERADlg@@QEAAXXZ 0000000140007ff0 f   TO_CAMERADlg.obj
 0001:000070b0       ?OnBnClickedRoup17@CTO_CAMERADlg@@QEAAXXZ 00000001400080b0 f   TO_CAMERADlg.obj
 0001:00007170       ?OnBnClickedRoup18@CTO_CAMERADlg@@QEAAXXZ 0000000140008170 f   TO_CAMERADlg.obj
 0001:00007230       ?OnBnClickedRoup19@CTO_CAMERADlg@@QEAAXXZ 0000000140008230 f   TO_CAMERADlg.obj
 0001:000072f0       ?OnBnClickedRoup20@CTO_CAMERADlg@@QEAAXXZ 00000001400082f0 f   TO_CAMERADlg.obj
 0001:000073b0       ?OnBnClickedRoup21@CTO_CAMERADlg@@QEAAXXZ 00000001400083b0 f   TO_CAMERADlg.obj
 0001:00007470       ?OnBnClickedRoup22@CTO_CAMERADlg@@QEAAXXZ 0000000140008470 f   TO_CAMERADlg.obj
 0001:00007530       ?OnBnClickedRoup23@CTO_CAMERADlg@@QEAAXXZ 0000000140008530 f   TO_CAMERADlg.obj
 0001:000075f0       ?OnBnClickedRoup24@CTO_CAMERADlg@@QEAAXXZ 00000001400085f0 f   TO_CAMERADlg.obj
 0001:000076b0       ?OnBnClickedRoup25@CTO_CAMERADlg@@QEAAXXZ 00000001400086b0 f   TO_CAMERADlg.obj
 0001:00007770       ?OnBnClickedRoup26@CTO_CAMERADlg@@QEAAXXZ 0000000140008770 f   TO_CAMERADlg.obj
 0001:00007830       ?OnBnClickedRoup27@CTO_CAMERADlg@@QEAAXXZ 0000000140008830 f   TO_CAMERADlg.obj
 0001:000078f0       ?OnBnClickedRoup28@CTO_CAMERADlg@@QEAAXXZ 00000001400088f0 f   TO_CAMERADlg.obj
 0001:000079b0       ?OnBnClickedRoup29@CTO_CAMERADlg@@QEAAXXZ 00000001400089b0 f   TO_CAMERADlg.obj
 0001:00007a70       ?OnBnClickedRoup30@CTO_CAMERADlg@@QEAAXXZ 0000000140008a70 f   TO_CAMERADlg.obj
 0001:00007b30       ?OnBnClickedRoup31@CTO_CAMERADlg@@QEAAXXZ 0000000140008b30 f   TO_CAMERADlg.obj
 0001:00007bf0       ?OnBnClickedRoup32@CTO_CAMERADlg@@QEAAXXZ 0000000140008bf0 f   TO_CAMERADlg.obj
 0001:00007cb0       ?OnBnClickedRodown1@CTO_CAMERADlg@@QEAAXXZ 0000000140008cb0 f   TO_CAMERADlg.obj
 0001:00007d70       ?OnBnClickedRodown2@CTO_CAMERADlg@@QEAAXXZ 0000000140008d70 f   TO_CAMERADlg.obj
 0001:00007e30       ?OnBnClickedRodown3@CTO_CAMERADlg@@QEAAXXZ 0000000140008e30 f   TO_CAMERADlg.obj
 0001:00007ef0       ?OnBnClickedRodown4@CTO_CAMERADlg@@QEAAXXZ 0000000140008ef0 f   TO_CAMERADlg.obj
 0001:00007fb0       ?OnBnClickedRodown5@CTO_CAMERADlg@@QEAAXXZ 0000000140008fb0 f   TO_CAMERADlg.obj
 0001:00008070       ?OnBnClickedRodown6@CTO_CAMERADlg@@QEAAXXZ 0000000140009070 f   TO_CAMERADlg.obj
 0001:00008130       ?OnBnClickedRodown7@CTO_CAMERADlg@@QEAAXXZ 0000000140009130 f   TO_CAMERADlg.obj
 0001:000081f0       ?OnBnClickedRodown8@CTO_CAMERADlg@@QEAAXXZ 00000001400091f0 f   TO_CAMERADlg.obj
 0001:000082b0       ?OnBnClickedRodown9@CTO_CAMERADlg@@QEAAXXZ 00000001400092b0 f   TO_CAMERADlg.obj
 0001:00008370       ?OnBnClickedRodown10@CTO_CAMERADlg@@QEAAXXZ 0000000140009370 f   TO_CAMERADlg.obj
 0001:00008430       ?OnBnClickedRodown11@CTO_CAMERADlg@@QEAAXXZ 0000000140009430 f   TO_CAMERADlg.obj
 0001:000084f0       ?OnBnClickedRodown12@CTO_CAMERADlg@@QEAAXXZ 00000001400094f0 f   TO_CAMERADlg.obj
 0001:000085b0       ?OnBnClickedRodown13@CTO_CAMERADlg@@QEAAXXZ 00000001400095b0 f   TO_CAMERADlg.obj
 0001:00008670       ?OnBnClickedRodown14@CTO_CAMERADlg@@QEAAXXZ 0000000140009670 f   TO_CAMERADlg.obj
 0001:00008730       ?OnBnClickedRodown15@CTO_CAMERADlg@@QEAAXXZ 0000000140009730 f   TO_CAMERADlg.obj
 0001:000087f0       ?OnBnClickedRodown16@CTO_CAMERADlg@@QEAAXXZ 00000001400097f0 f   TO_CAMERADlg.obj
 0001:000088b0       ?OnBnClickedRodown17@CTO_CAMERADlg@@QEAAXXZ 00000001400098b0 f   TO_CAMERADlg.obj
 0001:00008970       ?OnBnClickedRodown18@CTO_CAMERADlg@@QEAAXXZ 0000000140009970 f   TO_CAMERADlg.obj
 0001:00008a30       ?OnBnClickedRodown19@CTO_CAMERADlg@@QEAAXXZ 0000000140009a30 f   TO_CAMERADlg.obj
 0001:00008af0       ?OnBnClickedRodown20@CTO_CAMERADlg@@QEAAXXZ 0000000140009af0 f   TO_CAMERADlg.obj
 0001:00008bb0       ?OnBnClickedRodown21@CTO_CAMERADlg@@QEAAXXZ 0000000140009bb0 f   TO_CAMERADlg.obj
 0001:00008c70       ?OnBnClickedRodown22@CTO_CAMERADlg@@QEAAXXZ 0000000140009c70 f   TO_CAMERADlg.obj
 0001:00008d30       ?OnBnClickedRodown23@CTO_CAMERADlg@@QEAAXXZ 0000000140009d30 f   TO_CAMERADlg.obj
 0001:00008df0       ?OnBnClickedRodown24@CTO_CAMERADlg@@QEAAXXZ 0000000140009df0 f   TO_CAMERADlg.obj
 0001:00008eb0       ?OnBnClickedRodown25@CTO_CAMERADlg@@QEAAXXZ 0000000140009eb0 f   TO_CAMERADlg.obj
 0001:00008f70       ?OnBnClickedRodown26@CTO_CAMERADlg@@QEAAXXZ 0000000140009f70 f   TO_CAMERADlg.obj
 0001:00009030       ?OnBnClickedRodown27@CTO_CAMERADlg@@QEAAXXZ 000000014000a030 f   TO_CAMERADlg.obj
 0001:000090f0       ?OnBnClickedRodown28@CTO_CAMERADlg@@QEAAXXZ 000000014000a0f0 f   TO_CAMERADlg.obj
 0001:000091b0       ?OnBnClickedRodown29@CTO_CAMERADlg@@QEAAXXZ 000000014000a1b0 f   TO_CAMERADlg.obj
 0001:00009270       ?OnBnClickedRodown30@CTO_CAMERADlg@@QEAAXXZ 000000014000a270 f   TO_CAMERADlg.obj
 0001:00009330       ?OnBnClickedRodown31@CTO_CAMERADlg@@QEAAXXZ 000000014000a330 f   TO_CAMERADlg.obj
 0001:000093f0       ?OnBnClickedRodown32@CTO_CAMERADlg@@QEAAXXZ 000000014000a3f0 f   TO_CAMERADlg.obj
 0001:000094b0       ?OnBnClickedCmdSend@CTO_CAMERADlg@@QEAAXXZ 000000014000a4b0 f   TO_CAMERADlg.obj
 0001:00009560       ??HATL@@YA?AV?$CStringT@DV?$StrTraitMFC_DLL@DV?$ChTraitsCRT@D@ATL@@@@@0@PEBDAEBV10@@Z 000000014000a560 f i TO_CAMERADlg.obj
 0001:000095e0       ?AddToTail@?$ThreadQueue@UCOMMON_QUE@@@KizuLib@@QEAAHPEAUCOMMON_QUE@@@Z 000000014000a5e0 f i TO_CAMERADlg.obj
 0001:000096f0       ?_Growmap@?$deque@PEADV?$allocator@PEAD@std@@@std@@IEAAX_K@Z 000000014000a6f0 f i KizuLibMFC:LogFileManager.obj
 0001:000096f0       ?_Growmap@?$deque@PEAUCOMMON_QUE@@V?$allocator@PEAUCOMMON_QUE@@@std@@@std@@IEAAX_K@Z 000000014000a6f0 f i TO_CAMERADlg.obj
 0001:000098d0       ?Create@CDialog@@UEAAHIPEAVCWnd@@@Z 000000014000a8d0 f i TO_CAMERADlg.obj
 0001:000098e0       ??_GCComboBox@@UEAAPEAXI@Z 000000014000a8e0 f i TO_CAMERADlg.obj
 0001:000098e0       ??_ECComboBox@@UEAAPEAXI@Z 000000014000a8e0 f i * CIL library *:* CIL module *
 0001:00009930       ??_GCListBox@@UEAAPEAXI@Z  000000014000a930 f i TO_CAMERADlg.obj
 0001:00009930       ??_ECListBox@@UEAAPEAXI@Z  000000014000a930 f i * CIL library *:* CIL module *
 0001:00009980       ?BeginModalState@CWnd@@UEAAXXZ 000000014000a980 f i TO_CAMERADlg.obj
 0001:00009990       ?EndModalState@CWnd@@UEAAXXZ 000000014000a990 f i TO_CAMERADlg.obj
 0001:000099a0       ??0Rs232cBase@Kizu232C@@QEAA@PEBD0KKKK_N@Z 000000014000a9a0 f   Kizu232C:Rs232cBase.obj
 0001:0000a040       ??_GRs232cBase@Kizu232C@@UEAAPEAXI@Z 000000014000b040 f i Kizu232C:Rs232cBase.obj
 0001:0000a040       ??_ERs232cBase@Kizu232C@@UEAAPEAXI@Z 000000014000b040 f i * CIL library *:* CIL module *
 0001:0000a080       ??1Rs232cBase@Kizu232C@@UEAA@XZ 000000014000b080 f   Kizu232C:Rs232cBase.obj
 0001:0000a160       ?Send@Rs232cBase@Kizu232C@@QEAAHPEBXKPEAX@Z 000000014000b160 f   Kizu232C:Rs232cBase.obj
 0001:0000a1e0       ?MainThread@Rs232cBase@Kizu232C@@CAIPEAX@Z 000000014000b1e0 f   Kizu232C:Rs232cBase.obj
 0001:0000a6d0       ??0exception@std@@QEAA@AEBV01@@Z 000000014000b6d0 f i KizuLibMFC:LogFileManager.obj
 0001:0000a710       ?what@exception@std@@UEBAPEBDXZ 000000014000b710 f i KizuLibMFC:LogFileManager.obj
 0001:0000a730       ??_Gbad_cast@std@@UEAAPEAXI@Z 000000014000b730 f i KizuLibMFC:LogFileManager.obj
 0001:0000a730       ??_Ebad_cast@std@@UEAAPEAXI@Z 000000014000b730 f i * CIL library *:* CIL module *
 0001:0000a730       ??_Eexception@std@@UEAAPEAXI@Z 000000014000b730 f i * CIL library *:* CIL module *
 0001:0000a730       ??_Gexception@std@@UEAAPEAXI@Z 000000014000b730 f i KizuLibMFC:LogFileManager.obj
 0001:0000a780       ??1bad_cast@std@@UEAA@XZ   000000014000b780 f i KizuLibMFC:LogFileManager.obj
 0001:0000a7a0       ??1locale@std@@QEAA@XZ     000000014000b7a0 f i KizuLibMFC:LogFileManager.obj
 0001:0000a7e0       ??1AutoLock@KizuLib@@UEAA@XZ 000000014000b7e0 f i KizuLibMFC:LogFileManager.obj
 0001:0000a810       ??_EAutoLock@KizuLib@@UEAAPEAXI@Z 000000014000b810 f i * CIL library *:* CIL module *
 0001:0000a810       ??_GAutoLock@KizuLib@@UEAAPEAXI@Z 000000014000b810 f i KizuLibMFC:LogFileManager.obj
 0001:0000a870       ?GetNowLogPath@LogFileManager@KizuLib@@QEAA?AV?$CStringT@DV?$StrTraitMFC_DLL@DV?$ChTraitsCRT@D@ATL@@@@@ATL@@XZ 000000014000b870 f i KizuLibMFC:LogFileManager.obj
 0001:0000a8a0       ??0LogFileManager@KizuLib@@QEAA@PEBDPEAVCListBox@@HH@Z 000000014000b8a0 f   KizuLibMFC:LogFileManager.obj
 0001:0000ac70       ??_ELogFileManager@KizuLib@@UEAAPEAXI@Z 000000014000bc70 f i * CIL library *:* CIL module *
 0001:0000ac70       ??_GLogFileManager@KizuLib@@UEAAPEAXI@Z 000000014000bc70 f i KizuLibMFC:LogFileManager.obj
 0001:0000acb0       ??_D?$basic_ofstream@DU?$char_traits@D@std@@@std@@QEAAXXZ 000000014000bcb0 f i KizuLibMFC:LogFileManager.obj
 0001:0000ad20       ??1LogFileManager@KizuLib@@UEAA@XZ 000000014000bd20 f   KizuLibMFC:LogFileManager.obj
 0001:0000af00       ?Write@LogFileManager@KizuLib@@QEAAXW4LNO@12@PEBDZZ 000000014000bf00 f   KizuLibMFC:LogFileManager.obj
 0001:0000b1c0       ?WriteFile@LogFileManager@KizuLib@@QEAAXPEBD@Z 000000014000c1c0 f   KizuLibMFC:LogFileManager.obj
 0001:0000b340       ?WriteList@LogFileManager@KizuLib@@AEAAXPEBD@Z 000000014000c340 f   KizuLibMFC:LogFileManager.obj
 0001:0000b430       ?AllGetQueue@LogFileManager@KizuLib@@QEAAHXZ 000000014000c430 f   KizuLibMFC:LogFileManager.obj
 0001:0000b4d0       ?ShowEdit@LogFileManager@KizuLib@@QEAAXXZ 000000014000c4d0 f   KizuLibMFC:LogFileManager.obj
 0001:0000b5b0       ?MainThread@LogFileManager@KizuLib@@CAIPEAX@Z 000000014000c5b0 f   KizuLibMFC:LogFileManager.obj
 0001:0000b6b0       ??1?$basic_string@DU?$char_traits@D@std@@V?$allocator@D@2@@std@@QEAA@XZ 000000014000c6b0 f i KizuLibMFC:LogFileManager.obj
 0001:0000b740       ??0?$basic_ofstream@DU?$char_traits@D@std@@@std@@QEAA@XZ 000000014000c740 f i KizuLibMFC:LogFileManager.obj
 0001:0000b820       ?imbue@?$basic_filebuf@DU?$char_traits@D@std@@@std@@MEAAXAEBVlocale@2@@Z 000000014000c820 f i KizuLibMFC:LogFileManager.obj
 0001:0000b870       ?sync@?$basic_filebuf@DU?$char_traits@D@std@@@std@@MEAAHXZ 000000014000c870 f i KizuLibMFC:LogFileManager.obj
 0001:0000b8c0       ?setbuf@?$basic_filebuf@DU?$char_traits@D@std@@@std@@MEAAPEAV?$basic_streambuf@DU?$char_traits@D@std@@@2@PEAD_J@Z 000000014000c8c0 f i KizuLibMFC:LogFileManager.obj
 0001:0000b9b0       ?seekpos@?$basic_filebuf@DU?$char_traits@D@std@@@std@@MEAA?AV?$fpos@U_Mbstatet@@@2@V32@H@Z 000000014000c9b0 f i KizuLibMFC:LogFileManager.obj
 0001:0000baa0       ?seekoff@?$basic_filebuf@DU?$char_traits@D@std@@@std@@MEAA?AV?$fpos@U_Mbstatet@@@2@_JHH@Z 000000014000caa0 f i KizuLibMFC:LogFileManager.obj
 0001:0000bba0       ?uflow@?$basic_filebuf@DU?$char_traits@D@std@@@std@@MEAAHXZ 000000014000cba0 f i KizuLibMFC:LogFileManager.obj
 0001:0000bf70       ?underflow@?$basic_filebuf@DU?$char_traits@D@std@@@std@@MEAAHXZ 000000014000cf70 f i KizuLibMFC:LogFileManager.obj
 0001:0000bfe0       ?pbackfail@?$basic_filebuf@DU?$char_traits@D@std@@@std@@MEAAHH@Z 000000014000cfe0 f i KizuLibMFC:LogFileManager.obj
 0001:0000c0c0       ?overflow@?$basic_filebuf@DU?$char_traits@D@std@@@std@@MEAAHH@Z 000000014000d0c0 f i KizuLibMFC:LogFileManager.obj
 0001:0000c430       ?_Unlock@?$basic_filebuf@DU?$char_traits@D@std@@@std@@UEAAXXZ 000000014000d430 f i KizuLibMFC:LogFileManager.obj
 0001:0000c450       ?_Lock@?$basic_filebuf@DU?$char_traits@D@std@@@std@@UEAAXXZ 000000014000d450 f i KizuLibMFC:LogFileManager.obj
 0001:0000c470       ??1?$basic_filebuf@DU?$char_traits@D@std@@@std@@UEAA@XZ 000000014000d470 f i KizuLibMFC:LogFileManager.obj
 0001:0000c4f0       ??_G?$basic_ofstream@DU?$char_traits@D@std@@@std@@UEAAPEAXI@Z 000000014000d4f0 f i KizuLibMFC:LogFileManager.obj
 0001:0000c4f0       ??_E?$basic_ofstream@DU?$char_traits@D@std@@@std@@UEAAPEAXI@Z 000000014000d4f0 f i * CIL library *:* CIL module *
 0001:0000c590       ??_E?$basic_filebuf@DU?$char_traits@D@std@@@std@@UEAAPEAXI@Z 000000014000d590 f i * CIL library *:* CIL module *
 0001:0000c590       ??_G?$basic_filebuf@DU?$char_traits@D@std@@@std@@UEAAPEAXI@Z 000000014000d590 f i KizuLibMFC:LogFileManager.obj
 0001:0000c5d0       ?_Reset_back@?$basic_filebuf@DU?$char_traits@D@std@@@std@@AEAAXXZ 000000014000d5d0 f i KizuLibMFC:LogFileManager.obj
 0001:0000c600       ?_Endwrite@?$basic_filebuf@DU?$char_traits@D@std@@@std@@IEAA_NXZ 000000014000d600 f i KizuLibMFC:LogFileManager.obj
 0001:0000c880       ?close@?$basic_filebuf@DU?$char_traits@D@std@@@std@@QEAAPEAV12@XZ 000000014000d880 f i KizuLibMFC:LogFileManager.obj
 0001:0000c900       ?open@?$basic_filebuf@DU?$char_traits@D@std@@@std@@QEAAPEAV12@PEBDHH@Z 000000014000d900 f i KizuLibMFC:LogFileManager.obj
 0001:0000ca40       ?_Copy@?$basic_string@DU?$char_traits@D@std@@V?$allocator@D@2@@std@@QEAAX_K0@Z 000000014000da40 f i KizuLibMFC:LogFileManager.obj
 0001:0000cba0       ??0?$ThreadQueue@D@KizuLib@@QEAA@H@Z 000000014000dba0 f i KizuLibMFC:LogFileManager.obj
 0001:0000cc50       ??1?$ThreadQueue@D@KizuLib@@UEAA@XZ 000000014000dc50 f i KizuLibMFC:LogFileManager.obj
 0001:0000ccb0       ?Free@?$ThreadQueue@D@KizuLib@@QEAAXXZ 000000014000dcb0 f i KizuLibMFC:LogFileManager.obj
 0001:0000cd30       ??$?6U?$char_traits@D@std@@@std@@YAAEAV?$basic_ostream@DU?$char_traits@D@std@@@0@AEAV10@PEBD@Z 000000014000dd30 f i KizuLibMFC:LogFileManager.obj
 0001:0000cf00       ??$endl@DU?$char_traits@D@std@@@std@@YAAEAV?$basic_ostream@DU?$char_traits@D@std@@@0@AEAV10@@Z 000000014000df00 f i KizuLibMFC:LogFileManager.obj
 0001:0000cf40       ??$use_facet@V?$codecvt@DDU_Mbstatet@@@std@@@std@@YAAEBV?$codecvt@DDU_Mbstatet@@@0@AEBVlocale@0@@Z 000000014000df40 f i KizuLibMFC:LogFileManager.obj
 0001:0000d050       ??0bad_cast@std@@QEAA@AEBV01@@Z 000000014000e050 f i KizuLibMFC:LogFileManager.obj
 0001:0000d090       ??_G?$ThreadQueue@D@KizuLib@@UEAAPEAXI@Z 000000014000e090 f i KizuLibMFC:LogFileManager.obj
 0001:0000d090       ??_E?$ThreadQueue@D@KizuLib@@UEAAPEAXI@Z 000000014000e090 f i * CIL library *:* CIL module *
 0001:0000d120       ?push_back@?$deque@PEADV?$allocator@PEAD@std@@@std@@QEAAXAEBQEAD@Z 000000014000e120 f i KizuLibMFC:LogFileManager.obj
 0001:0000d1f0       ??1sentry@?$basic_ostream@DU?$char_traits@D@std@@@std@@QEAA@XZ 000000014000e1f0 f i KizuLibMFC:LogFileManager.obj
 0001:0000d240       ??1_Sentry_base@?$basic_ostream@DU?$char_traits@D@std@@@std@@QEAA@XZ 000000014000e240 f i KizuLibMFC:LogFileManager.obj
 0001:0000d270       ??_E?$basic_ofstream@DU?$char_traits@D@std@@@std@@$4PPPPPPPM@A@EAAPEAXI@Z 000000014000e270 f i KizuLibMFC:LogFileManager.obj
 0001:0000d280       ??_EWorkThread@KizuLib@@UEAAPEAXI@Z 000000014000e280 f i * CIL library *:* CIL module *
 0001:0000d280       ??_GWorkThread@KizuLib@@UEAAPEAXI@Z 000000014000e280 f i KizuLib:WorkThread.obj
 0001:0000d2d0       ??1WorkThread@KizuLib@@UEAA@XZ 000000014000e2d0 f   KizuLib:WorkThread.obj
 0001:0000d2f0       ?MainThread@WorkThread@KizuLib@@MEAAIXZ 000000014000e2f0 f   KizuLib:WorkThread.obj
 0001:0000d300       ?StopMSG@WorkThread@KizuLib@@QEAAXHH@Z 000000014000e300 f   KizuLib:WorkThread.obj
 0001:0000d380       ?task_init@@YAHPEBDH@Z     000000014000e380 f   KizuLib:KizuLib.obj
 0001:0000d480       ?syslog@@YAHJPEBDZZ        000000014000e480 f   KizuLib:KizuLib.obj
 0001:0000d610       ?statelog@@YAHJJJPEBDZZ    000000014000e610 f   KizuLib:KizuLib.obj
 0001:0000d7a0       ?SetStatus@KizuFunction@KizuLib@@SA_NHH_NPEBD@Z 000000014000e7a0 f   KizuLib:KizuFunction.obj
 0001:0000daf0       ??0KizuPcInfManager@KizuLib@@QEAA@H@Z 000000014000eaf0 f   KizuLib:KizuPcInfManager.obj
 0001:0000dbd0       ??_EKizuPcInfManager@KizuLib@@UEAAPEAXI@Z 000000014000ebd0 f i * CIL library *:* CIL module *
 0001:0000dbd0       ??_GKizuPcInfManager@KizuLib@@UEAAPEAXI@Z 000000014000ebd0 f i KizuLib:KizuPcInfManager.obj
 0001:0000dc00       ?SetPcName@KizuPcInfManager@KizuLib@@QEAA_NPEADPEBD1@Z 000000014000ec00 f   KizuLib:KizuPcInfManager.obj
 0001:0000e180       ?GetError@MailSlotManager@KizuLib@@UEAAHXZ 000000014000f180 f i KizuLib:MailSlotManager.obj
 0001:0000e190       ??_GMailSlotManager@KizuLib@@UEAAPEAXI@Z 000000014000f190 f i KizuLib:MailSlotManager.obj
 0001:0000e190       ??_EMailSlotManager@KizuLib@@UEAAPEAXI@Z 000000014000f190 f i * CIL library *:* CIL module *
 0001:0000e1f0       ?SendMail@MailSlotManager@KizuLib@@SAHPEBD0PEBXK@Z 000000014000f1f0 f   KizuLib:MailSlotManager.obj
 0001:0000e2f0       ?Create@MailSlotManager@KizuLib@@QEAA_NPEBDK@Z 000000014000f2f0 f   KizuLib:MailSlotManager.obj
 0001:0000e370       ?Recv@MailSlotManager@KizuLib@@UEAAHPEAXK@Z 000000014000f370 f   KizuLib:MailSlotManager.obj
 0001:0000e430       ?Send@MailSlotManager@KizuLib@@UEAAHPEBXK@Z 000000014000f430 f   KizuLib:MailSlotManager.obj
 0001:0000e470       ?Recv@MailSlotManager@KizuLib@@UEAA_NPEAXKPEAU_OVERLAPPED@@@Z 000000014000f470 f   KizuLib:MailSlotManager.obj
 0001:0000e4c0       ?Send@MailSlotManager@KizuLib@@UEAA_NPEBXKPEAU_OVERLAPPED@@@Z 000000014000f4c0 f   KizuLib:MailSlotManager.obj
 0001:0000e510       ?GetResult@MailSlotManager@KizuLib@@UEAA_NPEAU_OVERLAPPED@@@Z 000000014000f510 f   KizuLib:MailSlotManager.obj
 0001:0000e550       ??_EOdbcBase@KizuODBC@@UEAAPEAXI@Z 000000014000f550 f i * CIL library *:* CIL module *
 0001:0000e550       ??_GOdbcBase@KizuODBC@@UEAAPEAXI@Z 000000014000f550 f i KizuODBC:OdbcBase.obj
 0001:0000e5c0       ??1OdbcBase@KizuODBC@@UEAA@XZ 000000014000f5c0 f   KizuODBC:OdbcBase.obj
 0001:0000e610       ?DisConnect@OdbcBase@KizuODBC@@QEAAXXZ 000000014000f610 f   KizuODBC:OdbcBase.obj
 0001:0000e680       ??0OdbcEnv@KizuODBC@@AEAA@XZ 000000014000f680 f   KizuODBC:OdbcEnv.obj
 0001:0000e740       ??_GOdbcEnv@KizuODBC@@UEAAPEAXI@Z 000000014000f740 f i KizuODBC:OdbcEnv.obj
 0001:0000e740       ??_EOdbcEnv@KizuODBC@@UEAAPEAXI@Z 000000014000f740 f i * CIL library *:* CIL module *
 0001:0000e7a0       ?GetErrMsg@OdbcEnv@KizuODBC@@QEAAXXZ 000000014000f7a0 f   KizuODBC:OdbcEnv.obj
 0001:0000e820       ??_GOdbcManager@KizuODBC@@UEAAPEAXI@Z 000000014000f820 f i KizuODBC:OdbcManager.obj
 0001:0000e820       ??_EOdbcManager@KizuODBC@@UEAAPEAXI@Z 000000014000f820 f i * CIL library *:* CIL module *
 0001:0000e860       ??1OdbcManager@KizuODBC@@UEAA@XZ 000000014000f860 f   KizuODBC:OdbcManager.obj
 0001:0000e920       ?Alloc@OdbcManager@KizuODBC@@IEAAXXZ 000000014000f920 f   KizuODBC:OdbcManager.obj
 0001:0000ea40       ?Connect@OdbcManager@KizuODBC@@QEAAHPEBD0@Z 000000014000fa40 f   KizuODBC:OdbcManager.obj
 0001:0000eb40       ?Connect@OdbcManager@KizuODBC@@QEAAHPEBD00@Z 000000014000fb40 f   KizuODBC:OdbcManager.obj
 0001:0000ecb0       ?DisConnect@OdbcManager@KizuODBC@@QEAAXXZ 000000014000fcb0 f   KizuODBC:OdbcManager.obj
 0001:0000ed20       ?ExecuteDirect@OdbcManager@KizuODBC@@QEAAFPEBD@Z 000000014000fd20 f   KizuODBC:OdbcManager.obj
 0001:0000edc0       ?GetErrMsg@OdbcManager@KizuODBC@@QEAAXXZ 000000014000fdc0 f   KizuODBC:OdbcManager.obj
 0001:0000ee60       ?GetErrMsg@OdbcManager@KizuODBC@@QEAAXF@Z 000000014000fe60 f   KizuODBC:OdbcManager.obj
 0001:0000ef12       ??3@YAXPEAX@Z              000000014000ff12 f   mfc140:mfc140.dll
 0001:0000ef18       ??2@YAPEAX_K@Z             000000014000ff18 f   mfc140:mfc140.dll
 0001:0000ef1e       ?OnHelp@CWinApp@@IEAAXXZ   000000014000ff1e f   mfc140:mfc140.dll
 0001:0000ef24       ?GetThisMessageMap@CWinApp@@KAPEBUAFX_MSGMAP@@XZ 000000014000ff24 f   mfc140:mfc140.dll
 0001:0000ef2a       ?DoModal@CDialog@@UEAA_JXZ 000000014000ff2a f   mfc140:mfc140.dll
 0001:0000ef30       ?GetRuntimeClass@CWinApp@@UEBAPEAUCRuntimeClass@@XZ 000000014000ff30 f   mfc140:mfc140.dll
 0001:0000ef36       ?OnCmdMsg@CCmdTarget@@UEAAHIHPEAXPEAUAFX_CMDHANDLERINFO@@@Z 000000014000ff36 f   mfc140:mfc140.dll
 0001:0000ef3c       ?OnFinalRelease@CCmdTarget@@UEAAXXZ 000000014000ff3c f   mfc140:mfc140.dll
 0001:0000ef42       ?IsInvokeAllowed@CCmdTarget@@UEAAHJ@Z 000000014000ff42 f   mfc140:mfc140.dll
 0001:0000ef48       ?GetDispatchIID@CCmdTarget@@UEAAHPEAU_GUID@@@Z 000000014000ff48 f   mfc140:mfc140.dll
 0001:0000ef4e       ?GetTypeInfoCount@CCmdTarget@@UEAAIXZ 000000014000ff4e f   mfc140:mfc140.dll
 0001:0000ef54       ?GetTypeLibCache@CCmdTarget@@UEAAPEAVCTypeLibCache@@XZ 000000014000ff54 f   mfc140:mfc140.dll
 0001:0000ef5a       ?GetTypeLib@CCmdTarget@@UEAAJKPEAPEAUITypeLib@@@Z 000000014000ff5a f   mfc140:mfc140.dll
 0001:0000ef60       ?GetCommandMap@CCmdTarget@@MEBAPEBUAFX_OLECMDMAP@@XZ 000000014000ff60 f   mfc140:mfc140.dll
 0001:0000ef66       ?GetDispatchMap@CCmdTarget@@MEBAPEBUAFX_DISPMAP@@XZ 000000014000ff66 f   mfc140:mfc140.dll
 0001:0000ef6c       ?GetConnectionMap@CCmdTarget@@MEBAPEBUAFX_CONNECTIONMAP@@XZ 000000014000ff6c f   mfc140:mfc140.dll
 0001:0000ef72       ?GetInterfaceMap@CCmdTarget@@MEBAPEBUAFX_INTERFACEMAP@@XZ 000000014000ff72 f   mfc140:mfc140.dll
 0001:0000ef78       ?GetEventSinkMap@CCmdTarget@@MEBAPEBUAFX_EVENTSINKMAP@@XZ 000000014000ff78 f   mfc140:mfc140.dll
 0001:0000ef7e       ?OnCreateAggregates@CCmdTarget@@UEAAHXZ 000000014000ff7e f   mfc140:mfc140.dll
 0001:0000ef84       ?GetInterfaceHook@CCmdTarget@@UEAAPEAUIUnknown@@PEBX@Z 000000014000ff84 f   mfc140:mfc140.dll
 0001:0000ef8a       ?GetExtraConnectionPoints@CCmdTarget@@MEAAHPEAVCPtrArray@@@Z 000000014000ff8a f   mfc140:mfc140.dll
 0001:0000ef90       ?GetConnectionHook@CCmdTarget@@MEAAPEAUIConnectionPoint@@AEBU_GUID@@@Z 000000014000ff90 f   mfc140:mfc140.dll
 0001:0000ef96       ?Run@CWinApp@@UEAAHXZ      000000014000ff96 f   mfc140:mfc140.dll
 0001:0000ef9c       ?PreTranslateMessage@CWinThread@@UEAAHPEAUtagMSG@@@Z 000000014000ff9c f   mfc140:mfc140.dll
 0001:0000efa2       ?PumpMessage@CWinThread@@UEAAHXZ 000000014000ffa2 f   mfc140:mfc140.dll
 0001:0000efa8       ?OnIdle@CWinApp@@UEAAHJ@Z  000000014000ffa8 f   mfc140:mfc140.dll
 0001:0000efae       ?IsIdleMessage@CWinThread@@UEAAHPEAUtagMSG@@@Z 000000014000ffae f   mfc140:mfc140.dll
 0001:0000efb4       ?ExitInstance@CWinApp@@UEAAHXZ 000000014000ffb4 f   mfc140:mfc140.dll
 0001:0000efba       ?ProcessWndProcException@CWinApp@@UEAA_JPEAVCException@@PEBUtagMSG@@@Z 000000014000ffba f   mfc140:mfc140.dll
 0001:0000efc0       ?ProcessMessageFilter@CWinThread@@UEAAHHPEAUtagMSG@@@Z 000000014000ffc0 f   mfc140:mfc140.dll
 0001:0000efc6       ?GetMainWnd@CWinThread@@UEAAPEAVCWnd@@XZ 000000014000ffc6 f   mfc140:mfc140.dll
 0001:0000efcc       ?Delete@CWinThread@@UEAAXXZ 000000014000ffcc f   mfc140:mfc140.dll
 0001:0000efd2       ?GetProfileIntA@CWinApp@@UEAAIPEBD0H@Z 000000014000ffd2 f   mfc140:mfc140.dll
 0001:0000efd8       ?WriteProfileInt@CWinApp@@UEAAHPEBD0H@Z 000000014000ffd8 f   mfc140:mfc140.dll
 0001:0000efde       ?GetProfileStringA@CWinApp@@UEAA?AV?$CStringT@DV?$StrTraitMFC_DLL@DV?$ChTraitsCRT@D@ATL@@@@@ATL@@PEBD00@Z 000000014000ffde f   mfc140:mfc140.dll
 0001:0000efe4       ?WriteProfileStringA@CWinApp@@UEAAHPEBD00@Z 000000014000ffe4 f   mfc140:mfc140.dll
 0001:0000efea       ?GetProfileBinary@CWinApp@@UEAAHPEBD0PEAPEAEPEAI@Z 000000014000ffea f   mfc140:mfc140.dll
 0001:0000eff0       ?WriteProfileBinary@CWinApp@@UEAAHPEBD0PEAEI@Z 000000014000fff0 f   mfc140:mfc140.dll
 0001:0000eff6       ?InitLibId@CWinApp@@UEAAXXZ 000000014000fff6 f   mfc140:mfc140.dll
 0001:0000effc       ?Register@CWinApp@@UEAAHXZ 000000014000fffc f   mfc140:mfc140.dll
 0001:0000f002       ?Unregister@CWinApp@@UEAAHXZ 0000000140010002 f   mfc140:mfc140.dll
 0001:0000f008       ?OpenDocumentFile@CWinApp@@UEAAPEAVCDocument@@PEBDH@Z 0000000140010008 f   mfc140:mfc140.dll
 0001:0000f00e       ?OpenDocumentFile@CWinApp@@UEAAPEAVCDocument@@PEBD@Z 000000014001000e f   mfc140:mfc140.dll
 0001:0000f014       ?AddToRecentFileList@CWinApp@@UEAAXPEBD@Z 0000000140010014 f   mfc140:mfc140.dll
 0001:0000f01a       ?InitApplication@CWinApp@@UEAAHXZ 000000014001001a f   mfc140:mfc140.dll
 0001:0000f020       ?SaveAllModified@CWinApp@@UEAAHXZ 0000000140010020 f   mfc140:mfc140.dll
 0001:0000f026       ?DoMessageBox@CWinApp@@UEAAHPEBDII@Z 0000000140010026 f   mfc140:mfc140.dll
 0001:0000f02c       ?DoWaitCursor@CWinApp@@UEAAXH@Z 000000014001002c f   mfc140:mfc140.dll
 0001:0000f032       ?OnDDECommand@CWinApp@@UEAAHPEAD@Z 0000000140010032 f   mfc140:mfc140.dll
 0001:0000f038       ?WinHelpA@CWinApp@@UEAAX_KI@Z 0000000140010038 f   mfc140:mfc140.dll
 0001:0000f03e       ?HtmlHelpA@CWinApp@@UEAAX_KI@Z 000000014001003e f   mfc140:mfc140.dll
 0001:0000f044       ?WinHelpInternal@CWinApp@@UEAAX_KI@Z 0000000140010044 f   mfc140:mfc140.dll
 0001:0000f04a       ?RegisterWithRestartManager@CWinApp@@UEAAJPEB_WKP6AKPEAX@Z1KK@Z 000000014001004a f   mfc140:mfc140.dll
 0001:0000f050       ?RegisterWithRestartManager@CWinApp@@UEAAJHAEBV?$CStringT@DV?$StrTraitMFC_DLL@DV?$ChTraitsCRT@D@ATL@@@@@ATL@@@Z 0000000140010050 f   mfc140:mfc140.dll
 0001:0000f056       ?ApplicationRecoveryCallback@CWinApp@@UEAAKPEAX@Z 0000000140010056 f   mfc140:mfc140.dll
 0001:0000f05c       ?GetDataRecoveryHandler@CWinApp@@UEAAPEAVCDataRecoveryHandler@@XZ 000000014001005c f   mfc140:mfc140.dll
 0001:0000f062       ?IsTaskbarInteractionEnabled@CWinApp@@UEAAHXZ 0000000140010062 f   mfc140:mfc140.dll
 0001:0000f068       ?RestartInstance@CWinApp@@UEAAHXZ 0000000140010068 f   mfc140:mfc140.dll
 0001:0000f06e       ?LoadAppLangResourceDLL@CWinApp@@UEAAPEAUHINSTANCE__@@XZ 000000014001006e f   mfc140:mfc140.dll
 0001:0000f074       ?LoadSysPolicies@CWinApp@@UEAAHXZ 0000000140010074 f   mfc140:mfc140.dll
 0001:0000f07a       ?CharToItem@CListBox@@UEAAHII@Z 000000014001007a f   mfc140:mfc140.dll
 0001:0000f080       ?VKeyToItem@CListBox@@UEAAHII@Z 0000000140010080 f   mfc140:mfc140.dll
 0001:0000f086       ?DeleteItem@CListBox@@UEAAXPEAUtagDELETEITEMSTRUCT@@@Z 0000000140010086 f   mfc140:mfc140.dll
 0001:0000f08c       ?CompareItem@CListBox@@UEAAHPEAUtagCOMPAREITEMSTRUCT@@@Z 000000014001008c f   mfc140:mfc140.dll
 0001:0000f092       ?MeasureItem@CListBox@@UEAAXPEAUtagMEASUREITEMSTRUCT@@@Z 0000000140010092 f   mfc140:mfc140.dll
 0001:0000f098       ?DrawItem@CListBox@@UEAAXPEAUtagDRAWITEMSTRUCT@@@Z 0000000140010098 f   mfc140:mfc140.dll
 0001:0000f09e       ?Create@CListBox@@UEAAHKAEBUtagRECT@@PEAVCWnd@@I@Z 000000014001009e f   mfc140:mfc140.dll
 0001:0000f0a4       ?GetOccDialogInfo@CWnd@@MEAAPEAU_AFX_OCC_DIALOG_INFO@@XZ 00000001400100a4 f   mfc140:mfc140.dll
 0001:0000f0aa       ?SetOccDialogInfo@CWnd@@MEAAHPEAU_AFX_OCC_DIALOG_INFO@@@Z 00000001400100aa f   mfc140:mfc140.dll
 0001:0000f0b0       ?CreateControlSite@CWnd@@MEAAHPEAVCOleControlContainer@@PEAPEAVCOleControlSite@@IAEBU_GUID@@@Z 00000001400100b0 f   mfc140:mfc140.dll
 0001:0000f0b6       ?CreateControlContainer@CWnd@@MEAAHPEAPEAVCOleControlContainer@@@Z 00000001400100b6 f   mfc140:mfc140.dll
 0001:0000f0bc       ?IsFrameWnd@CWnd@@UEBAHXZ  00000001400100bc f   mfc140:mfc140.dll
 0001:0000f0c2       ?CheckAutoCenter@CWnd@@UEAAHXZ 00000001400100c2 f   mfc140:mfc140.dll
 0001:0000f0c8       ?ResizeDynamicLayout@CWnd@@MEAAXXZ 00000001400100c8 f   mfc140:mfc140.dll
 0001:0000f0ce       ?OnGesturePressAndTap@CWnd@@MEAAHVCPoint@@J@Z 00000001400100ce f   mfc140:mfc140.dll
 0001:0000f0d4       ?OnGestureTwoFingerTap@CWnd@@MEAAHVCPoint@@@Z 00000001400100d4 f   mfc140:mfc140.dll
 0001:0000f0da       ?OnGestureRotate@CWnd@@MEAAHVCPoint@@N@Z 00000001400100da f   mfc140:mfc140.dll
 0001:0000f0e0       ?OnGesturePan@CWnd@@MEAAHVCPoint@@0@Z 00000001400100e0 f   mfc140:mfc140.dll
 0001:0000f0e6       ?OnGestureZoom@CWnd@@MEAAHVCPoint@@J@Z 00000001400100e6 f   mfc140:mfc140.dll
 0001:0000f0ec       ?GetGestureStatus@CWnd@@MEAAKVCPoint@@@Z 00000001400100ec f   mfc140:mfc140.dll
 0001:0000f0f2       ?OnTouchInput@CWnd@@MEAAHVCPoint@@HHPEAUtagTOUCHINPUT@@@Z 00000001400100f2 f   mfc140:mfc140.dll
 0001:0000f0f8       ?OnTouchInputs@CWnd@@MEAAHIPEAUtagTOUCHINPUT@@@Z 00000001400100f8 f   mfc140:mfc140.dll
 0001:0000f0fe       ?OnChildNotify@CListBox@@MEAAHI_K_JPEA_J@Z 00000001400100fe f   mfc140:mfc140.dll
 0001:0000f104       ?PostNcDestroy@CWnd@@MEAAXXZ 0000000140010104 f   mfc140:mfc140.dll
 0001:0000f10a       ?DefWindowProcA@CWnd@@MEAA_JI_K_J@Z 000000014001010a f   mfc140:mfc140.dll
 0001:0000f110       ?OnWndMsg@CWnd@@MEAAHI_K_JPEA_J@Z 0000000140010110 f   mfc140:mfc140.dll
 0001:0000f116       ?WindowProc@CWnd@@MEAA_JI_K_J@Z 0000000140010116 f   mfc140:mfc140.dll
 0001:0000f11c       ?OnAmbientProperty@CWnd@@UEAAHPEAVCOleControlSite@@JPEAUtagVARIANT@@@Z 000000014001011c f   mfc140:mfc140.dll
 0001:0000f122       ?PreTranslateMessage@CWnd@@UEAAHPEAUtagMSG@@@Z 0000000140010122 f   mfc140:mfc140.dll
 0001:0000f128       ?GetSuperWndProcAddr@CWnd@@MEAAPEAP6A_JPEAUHWND__@@I_K_J@ZXZ 0000000140010128 f   mfc140:mfc140.dll
 0001:0000f12e       ?OnNotify@CWnd@@MEAAH_K_JPEA_J@Z 000000014001012e f   mfc140:mfc140.dll
 0001:0000f134       ?OnCommand@CWnd@@MEAAH_K_J@Z 0000000140010134 f   mfc140:mfc140.dll
 0001:0000f13a       ?CreateAccessibleProxy@CWnd@@UEAAJ_K_JPEA_J@Z 000000014001013a f   mfc140:mfc140.dll
 0001:0000f140       ?SetProxy@CWnd@@UEAAJPEAUIAccessibleProxy@@@Z 0000000140010140 f   mfc140:mfc140.dll
 0001:0000f146       ?put_accValue@CWnd@@UEAAJUtagVARIANT@@PEA_W@Z 0000000140010146 f   mfc140:mfc140.dll
 0001:0000f14c       ?put_accName@CWnd@@UEAAJUtagVARIANT@@PEA_W@Z 000000014001014c f   mfc140:mfc140.dll
 0001:0000f152       ?accDoDefaultAction@CWnd@@UEAAJUtagVARIANT@@@Z 0000000140010152 f   mfc140:mfc140.dll
 0001:0000f158       ?accHitTest@CWnd@@UEAAJJJPEAUtagVARIANT@@@Z 0000000140010158 f   mfc140:mfc140.dll
 0001:0000f15e       ?accNavigate@CWnd@@UEAAJJUtagVARIANT@@PEAU2@@Z 000000014001015e f   mfc140:mfc140.dll
 0001:0000f164       ?accLocation@CWnd@@UEAAJPEAJ000UtagVARIANT@@@Z 0000000140010164 f   mfc140:mfc140.dll
 0001:0000f16a       ?accSelect@CWnd@@UEAAJJUtagVARIANT@@@Z 000000014001016a f   mfc140:mfc140.dll
 0001:0000f170       ?get_accDefaultAction@CWnd@@UEAAJUtagVARIANT@@PEAPEA_W@Z 0000000140010170 f   mfc140:mfc140.dll
 0001:0000f176       ?get_accSelection@CWnd@@UEAAJPEAUtagVARIANT@@@Z 0000000140010176 f   mfc140:mfc140.dll
 0001:0000f17c       ?get_accFocus@CWnd@@UEAAJPEAUtagVARIANT@@@Z 000000014001017c f   mfc140:mfc140.dll
 0001:0000f182       ?get_accKeyboardShortcut@CWnd@@UEAAJUtagVARIANT@@PEAPEA_W@Z 0000000140010182 f   mfc140:mfc140.dll
 0001:0000f188       ?get_accHelpTopic@CWnd@@UEAAJPEAPEA_WUtagVARIANT@@PEAJ@Z 0000000140010188 f   mfc140:mfc140.dll
 0001:0000f18e       ?get_accHelp@CWnd@@UEAAJUtagVARIANT@@PEAPEA_W@Z 000000014001018e f   mfc140:mfc140.dll
 0001:0000f194       ?get_accState@CWnd@@UEAAJUtagVARIANT@@PEAU2@@Z 0000000140010194 f   mfc140:mfc140.dll
 0001:0000f19a       ?get_accRole@CWnd@@UEAAJUtagVARIANT@@PEAU2@@Z 000000014001019a f   mfc140:mfc140.dll
 0001:0000f1a0       ?get_accDescription@CWnd@@UEAAJUtagVARIANT@@PEAPEA_W@Z 00000001400101a0 f   mfc140:mfc140.dll
 0001:0000f1a6       ?get_accValue@CWnd@@UEAAJUtagVARIANT@@PEAPEA_W@Z 00000001400101a6 f   mfc140:mfc140.dll
 0001:0000f1ac       ?get_accName@CWnd@@UEAAJUtagVARIANT@@PEAPEA_W@Z 00000001400101ac f   mfc140:mfc140.dll
 0001:0000f1b2       ?get_accChild@CWnd@@UEAAJUtagVARIANT@@PEAPEAUIDispatch@@@Z 00000001400101b2 f   mfc140:mfc140.dll
 0001:0000f1b8       ?get_accChildCount@CWnd@@UEAAJPEAJ@Z 00000001400101b8 f   mfc140:mfc140.dll
 0001:0000f1be       ?get_accParent@CWnd@@UEAAJPEAPEAUIDispatch@@@Z 00000001400101be f   mfc140:mfc140.dll
 0001:0000f1c4       ?EnsureStdObj@CWnd@@UEAAJXZ 00000001400101c4 f   mfc140:mfc140.dll
 0001:0000f1ca       ?OnDrawIconicThumbnailOrLivePreview@CWnd@@UEAAXAEAVCDC@@VCRect@@VCSize@@HAEAH@Z 00000001400101ca f   mfc140:mfc140.dll
 0001:0000f1d0       ?EndModalLoop@CWnd@@UEAAXH@Z 00000001400101d0 f   mfc140:mfc140.dll
 0001:0000f1d6       ?ContinueModal@CWnd@@UEAAHXZ 00000001400101d6 f   mfc140:mfc140.dll
 0001:0000f1dc       ?WinHelpInternal@CWnd@@UEAAX_KI@Z 00000001400101dc f   mfc140:mfc140.dll
 0001:0000f1e2       ?HtmlHelpA@CWnd@@UEAAX_KI@Z 00000001400101e2 f   mfc140:mfc140.dll
 0001:0000f1e8       ?WinHelpA@CWnd@@UEAAX_KI@Z 00000001400101e8 f   mfc140:mfc140.dll
 0001:0000f1ee       ?GetScrollBarCtrl@CWnd@@UEBAPEAVCScrollBar@@H@Z 00000001400101ee f   mfc140:mfc140.dll
 0001:0000f1f4       ?OnToolHitTest@CWnd@@UEBA_JVCPoint@@PEAUtagTOOLINFOA@@@Z 00000001400101f4 f   mfc140:mfc140.dll
 0001:0000f1fa       ?SetMenu@CWnd@@UEAAHPEAVCMenu@@@Z 00000001400101fa f   mfc140:mfc140.dll
 0001:0000f200       ?GetMenu@CWnd@@UEBAPEAVCMenu@@XZ 0000000140010200 f   mfc140:mfc140.dll
 0001:0000f206       ?CalcWindowRect@CWnd@@UEAAXPEAUtagRECT@@I@Z 0000000140010206 f   mfc140:mfc140.dll
 0001:0000f20c       ?PreCreateWindow@CWnd@@UEAAHAEAUtagCREATESTRUCTA@@@Z 000000014001020c f   mfc140:mfc140.dll
 0001:0000f212       ?DestroyWindow@CWnd@@UEAAHXZ 0000000140010212 f   mfc140:mfc140.dll
 0001:0000f218       ?CreateEx@CWnd@@UEAAHKPEBD0KHHHHPEAUHWND__@@PEAUHMENU__@@PEAX@Z 0000000140010218 f   mfc140:mfc140.dll
 0001:0000f21e       ?CreateEx@CWnd@@UEAAHKPEBD0KAEBUtagRECT@@PEAV1@IPEAX@Z 000000014001021e f   mfc140:mfc140.dll
 0001:0000f224       ?Create@CWnd@@UEAAHPEBD0KAEBUtagRECT@@PEAV1@IPEAUCCreateContext@@@Z 0000000140010224 f   mfc140:mfc140.dll
 0001:0000f22a       ?PreSubclassWindow@CWnd@@UEAAXXZ 000000014001022a f   mfc140:mfc140.dll
 0001:0000f230       ?GetInterfaceMap@CWnd@@MEBAPEBUAFX_INTERFACEMAP@@XZ 0000000140010230 f   mfc140:mfc140.dll
 0001:0000f236       ?GetMessageMap@CWnd@@MEBAPEBUAFX_MSGMAP@@XZ 0000000140010236 f   mfc140:mfc140.dll
 0001:0000f23c       ?OnFinalRelease@CWnd@@UEAAXXZ 000000014001023c f   mfc140:mfc140.dll
 0001:0000f242       ?GetRuntimeClass@CListBox@@UEBAPEAUCRuntimeClass@@XZ 0000000140010242 f   mfc140:mfc140.dll
 0001:0000f248       ?DeleteItem@CComboBox@@UEAAXPEAUtagDELETEITEMSTRUCT@@@Z 0000000140010248 f   mfc140:mfc140.dll
 0001:0000f24e       ?CompareItem@CComboBox@@UEAAHPEAUtagCOMPAREITEMSTRUCT@@@Z 000000014001024e f   mfc140:mfc140.dll
 0001:0000f254       ?MeasureItem@CComboBox@@UEAAXPEAUtagMEASUREITEMSTRUCT@@@Z 0000000140010254 f   mfc140:mfc140.dll
 0001:0000f25a       ?DrawItem@CComboBox@@UEAAXPEAUtagDRAWITEMSTRUCT@@@Z 000000014001025a f   mfc140:mfc140.dll
 0001:0000f260       ?Create@CComboBox@@UEAAHKAEBUtagRECT@@PEAVCWnd@@I@Z 0000000140010260 f   mfc140:mfc140.dll
 0001:0000f266       ?OnChildNotify@CComboBox@@MEAAHI_K_JPEA_J@Z 0000000140010266 f   mfc140:mfc140.dll
 0001:0000f26c       ?GetRuntimeClass@CComboBox@@UEBAPEAUCRuntimeClass@@XZ 000000014001026c f   mfc140:mfc140.dll
 0001:0000f272       ?AfxGetModuleState@@YAPEAVAFX_MODULE_STATE@@XZ 0000000140010272 f   mfc140:mfc140.dll
 0001:0000f278       ?GetThisMessageMap@CDialog@@KAPEBUAFX_MSGMAP@@XZ 0000000140010278 f   mfc140:mfc140.dll
 0001:0000f27e       ?GetRuntimeClass@CDialog@@UEBAPEAUCRuntimeClass@@XZ 000000014001027e f   mfc140:mfc140.dll
 0001:0000f284       ?OnCmdMsg@CDialog@@UEAAHIHPEAXPEAUAFX_CMDHANDLERINFO@@@Z 0000000140010284 f   mfc140:mfc140.dll
 0001:0000f28a       ?PreTranslateMessage@CDialog@@UEAAHPEAUtagMSG@@@Z 000000014001028a f   mfc140:mfc140.dll
 0001:0000f290       ?OnChildNotify@CWnd@@MEAAHI_K_JPEA_J@Z 0000000140010290 f   mfc140:mfc140.dll
 0001:0000f296       ?CheckAutoCenter@CDialog@@UEAAHXZ 0000000140010296 f   mfc140:mfc140.dll
 0001:0000f29c       ?SetOccDialogInfo@CDialog@@MEAAHPEAU_AFX_OCC_DIALOG_INFO@@@Z 000000014001029c f   mfc140:mfc140.dll
 0001:0000f2a2       ?GetOccDialogInfo@CDialog@@MEAAPEAU_AFX_OCC_DIALOG_INFO@@XZ 00000001400102a2 f   mfc140:mfc140.dll
 0001:0000f2a8       ?Create@CDialog@@UEAAHPEBDPEAVCWnd@@@Z 00000001400102a8 f   mfc140:mfc140.dll
 0001:0000f2ae       ?CreateIndirect@CDialog@@UEAAHPEAXPEAVCWnd@@@Z 00000001400102ae f   mfc140:mfc140.dll
 0001:0000f2b4       ?CreateIndirect@CDialog@@UEAAHPEBUDLGTEMPLATE@@PEAVCWnd@@PEAX@Z 00000001400102b4 f   mfc140:mfc140.dll
 0001:0000f2ba       ?OnSetFont@CDialog@@UEAAXPEAVCFont@@@Z 00000001400102ba f   mfc140:mfc140.dll
 0001:0000f2c0       ?OnOK@CDialog@@MEAAXXZ     00000001400102c0 f   mfc140:mfc140.dll
 0001:0000f2c6       ?PreInitDialog@CDialog@@MEAAXXZ 00000001400102c6 f   mfc140:mfc140.dll
 0001:0000f2e0       __security_check_cookie    00000001400102e0 f   msvcrt:_amdsecgs_.obj
 0001:0000f304       ??3@YAXPEAX_K@Z            0000000140010304 f   msvcrt:delete_scalar_size.obj
 0001:0000f30c       ??_Etype_info@@UEAAPEAXI@Z 000000014001030c f i msvcrt:std_type_info_static.obj
 0001:0000f30c       ??_Gtype_info@@UEAAPEAXI@Z 000000014001030c f i msvcrt:std_type_info_static.obj
 0001:0000f480       __scrt_acquire_startup_lock 0000000140010480 f   msvcrt:utility.obj
 0001:0000f4bc       __scrt_initialize_crt      00000001400104bc f   msvcrt:utility.obj
 0001:0000f508       __scrt_initialize_onexit_tables 0000000140010508 f   msvcrt:utility.obj
 0001:0000f5d4       __scrt_is_nonwritable_in_current_image 00000001400105d4 f   msvcrt:utility.obj
 0001:0000f670       __scrt_release_startup_lock 0000000140010670 f   msvcrt:utility.obj
 0001:0000f694       __scrt_uninitialize_crt    0000000140010694 f   msvcrt:utility.obj
 0001:0000f6c0       _onexit                    00000001400106c0 f   msvcrt:utility.obj
 0001:0000f710       atexit                     0000000140010710 f   msvcrt:utility.obj
 0001:0000f97c       WinMainCRTStartup          000000014001097c f   msvcrt:exe_winmain.obj
 0001:0000f990       __raise_securityfailure    0000000140010990 f   msvcrt:gs_report.obj
 0001:0000f9c4       __report_gsfailure         00000001400109c4 f   msvcrt:gs_report.obj
 0001:0000fb0c       _guard_check_icall         0000000140010b0c f i msvcrt:checkcfg.obj
 0001:0000fb14       __scrt_fastfail            0000000140010b14 f   msvcrt:utility_desktop.obj
 0001:0000fc5c       __scrt_get_show_window_mode 0000000140010c5c f   msvcrt:utility_desktop.obj
 0001:0000fc98       __scrt_is_managed_app      0000000140010c98 f   msvcrt:utility_desktop.obj
 0001:0000fcec       __scrt_set_unhandled_exception_filter 0000000140010cec f   msvcrt:utility_desktop.obj
 0001:0000fcfc       __scrt_unhandled_exception_filter 0000000140010cfc f   msvcrt:utility_desktop.obj
 0001:0000fd34       __isa_available_init       0000000140010d34 f   msvcrt:_cpu_disp_.obj
 0001:0000fefc       _get_startup_argv_mode     0000000140010efc f   msvcrt:argv_mode.obj
 0001:0000ff04       __scrt_is_ucrt_dll_in_use  0000000140010f04 f   msvcrt:ucrt_detection.obj
 0001:0000ff10       __security_init_cookie     0000000140010f10 f   msvcrt:gs_support.obj
 0001:0000ffbc       _get_startup_file_mode     0000000140010fbc f   msvcrt:file_mode.obj
 0001:0000ffc4       ?__scrt_initialize_type_info@@YAXXZ 0000000140010fc4 f   msvcrt:tncleanup.obj
 0001:0000ffd4       __scrt_stub_for_acrt_uninitialize 0000000140010fd4 f   msvcrt:ucrt_stubs.obj
 0001:0000ffd4       __vcrt_uninitialize        0000000140010fd4 f   msvcrt:ucrt_stubs.obj
 0001:0000ffd4       __vcrt_initialize          0000000140010fd4 f   msvcrt:ucrt_stubs.obj
 0001:0000ffd4       __acrt_initialize          0000000140010fd4 f   msvcrt:ucrt_stubs.obj
 0001:0000ffd4       __scrt_stub_for_acrt_initialize 0000000140010fd4 f   msvcrt:ucrt_stubs.obj
 0001:0000ffd4       __acrt_uninitialize        0000000140010fd4 f   msvcrt:ucrt_stubs.obj
 0001:0000ffd4       _should_initialize_environment 0000000140010fd4 f   msvcrt:env_mode.obj
 0001:0000ffd8       __local_stdio_scanf_options 0000000140010fd8 f i msvcrt:default_local_stdio_options.obj
 0001:0000ffe0       __scrt_initialize_default_local_stdio_options 0000000140010fe0 f   msvcrt:default_local_stdio_options.obj
 0001:0000fffc       __scrt_is_user_matherr_present 0000000140010ffc f   msvcrt:matherr_detection.obj
 0001:00010008       __scrt_get_dyn_tls_init_callback 0000000140011008 f   msvcrt:dyn_tls_init.obj
 0001:00010010       __scrt_get_dyn_tls_dtor_callback 0000000140011010 f   msvcrt:dyn_tls_dtor.obj
 0001:00010018       _RTC_Initialize            0000000140011018 f   msvcrt:_initsect_.obj
 0001:00010064       _RTC_Terminate             0000000140011064 f   msvcrt:_initsect_.obj
 0001:000100b0       __GSHandlerCheck           00000001400110b0 f   msvcrt:_gshandler_.obj
 0001:000100d0       __GSHandlerCheckCommon     00000001400110d0 f   msvcrt:_gshandler_.obj
 0001:00010130       IsProcessorFeaturePresent  0000000140011130 f   kernel32:KERNEL32.dll
 0001:00010138       ??0CAtlBaseModule@ATL@@QEAA@XZ 0000000140011138 f   atls:atlbase.obj
 0001:000101e0       ??1CAtlBaseModule@ATL@@QEAA@XZ 00000001400111e0 f   atls:atlbase.obj
 0001:00010214       ??_G_Fac_node@std@@QEAAPEAXI@Z 0000000140011214 f i msvcprt:locale0_implib.obj
 0001:000102a0       ?_Facet_Register@std@@YAXPEAV_Facet_base@1@@Z 00000001400112a0 f   msvcprt:locale0_implib.obj
 0001:000102d8       ?showmanyc@?$basic_streambuf@DU?$char_traits@D@std@@@std@@MEAA_JXZ 00000001400112d8 f   msvcprt:MSVCP140.dll
 0001:000102de       ?xsgetn@?$basic_streambuf@DU?$char_traits@D@std@@@std@@MEAA_JPEAD_J@Z 00000001400112de f   msvcprt:MSVCP140.dll
 0001:000102e4       ?xsputn@?$basic_streambuf@DU?$char_traits@D@std@@@std@@MEAA_JPEBD_J@Z 00000001400112e4 f   msvcprt:MSVCP140.dll
 0001:000102ea       __std_terminate            00000001400112ea f   vcruntime:VCRUNTIME140.dll
 0001:000102f0       memset                     00000001400112f0 f   vcruntime:VCRUNTIME140.dll
 0001:000102f6       __C_specific_handler       00000001400112f6 f   vcruntime:VCRUNTIME140.dll
 0001:000102fc       __CxxFrameHandler3         00000001400112fc f   vcruntime:VCRUNTIME140.dll
 0001:00010302       __vcrt_InitializeCriticalSectionEx 0000000140011302 f   vcruntime:VCRUNTIME140.dll
 0001:00010308       free                       0000000140011308 f   ucrt:api-ms-win-crt-heap-l1-1-0.dll
 0001:0001030e       exit                       000000014001130e f   ucrt:api-ms-win-crt-runtime-l1-1-0.dll
 0001:00010314       _configure_narrow_argv     0000000140011314 f   ucrt:api-ms-win-crt-runtime-l1-1-0.dll
 0001:0001031a       _initialize_narrow_environment 000000014001131a f   ucrt:api-ms-win-crt-runtime-l1-1-0.dll
 0001:00010320       _initialize_onexit_table   0000000140011320 f   ucrt:api-ms-win-crt-runtime-l1-1-0.dll
 0001:00010326       _register_onexit_function  0000000140011326 f   ucrt:api-ms-win-crt-runtime-l1-1-0.dll
 0001:0001032c       _crt_atexit                000000014001132c f   ucrt:api-ms-win-crt-runtime-l1-1-0.dll
 0001:00010332       _cexit                     0000000140011332 f   ucrt:api-ms-win-crt-runtime-l1-1-0.dll
 0001:00010338       _seh_filter_exe            0000000140011338 f   ucrt:api-ms-win-crt-runtime-l1-1-0.dll
 0001:0001033e       _set_app_type              000000014001133e f   ucrt:api-ms-win-crt-runtime-l1-1-0.dll
 0001:00010344       __setusermatherr           0000000140011344 f   ucrt:api-ms-win-crt-math-l1-1-0.dll
 0001:0001034a       _get_narrow_winmain_command_line 000000014001134a f   ucrt:api-ms-win-crt-runtime-l1-1-0.dll
 0001:00010350       _initterm                  0000000140011350 f   ucrt:api-ms-win-crt-runtime-l1-1-0.dll
 0001:00010356       _initterm_e                0000000140011356 f   ucrt:api-ms-win-crt-runtime-l1-1-0.dll
 0001:0001035c       _exit                      000000014001135c f   ucrt:api-ms-win-crt-runtime-l1-1-0.dll
 0001:00010362       _set_fmode                 0000000140011362 f   ucrt:api-ms-win-crt-stdio-l1-1-0.dll
 0001:00010368       _c_exit                    0000000140011368 f   ucrt:api-ms-win-crt-runtime-l1-1-0.dll
 0001:0001036e       _register_thread_local_exe_atexit_callback 000000014001136e f   ucrt:api-ms-win-crt-runtime-l1-1-0.dll
 0001:00010374       _configthreadlocale        0000000140011374 f   ucrt:api-ms-win-crt-locale-l1-1-0.dll
 0001:0001037a       _set_new_mode              000000014001137a f   ucrt:api-ms-win-crt-heap-l1-1-0.dll
 0001:00010380       __p__commode               0000000140011380 f   ucrt:api-ms-win-crt-stdio-l1-1-0.dll
 0001:00010386       terminate                  0000000140011386 f   ucrt:api-ms-win-crt-runtime-l1-1-0.dll
 0001:0001038c       ?AfxInitialize@@YAHHK@Z    000000014001138c f   mfcs140:appmodul.obj
 0001:000103c4       WinMain                    00000001400113c4 f   mfcs140:appmodul.obj
 0001:000103ca       ?AfxWinMain@@YAHPEAUHINSTANCE__@@0PEADH@Z 00000001400113ca f   mfc140:mfc140.dll
 0001:000103d0       __GSHandlerCheck_EH        00000001400113d0 f   msvcrt:gshandlereh.obj
 0001:00010460       __chkstk                   0000000140011460 f   msvcrt:_chkstk_.obj
 0001:00010460       _alloca_probe              0000000140011460 f   msvcrt:_chkstk_.obj
 0001:000104b2       _CxxThrowException         00000001400114b2 f   vcruntime:VCRUNTIME140.dll
 0001:000104b8       memcmp                     00000001400114b8 f   vcruntime:VCRUNTIME140.dll
 0001:000104be       memcpy                     00000001400114be f   vcruntime:VCRUNTIME140.dll
 0001:000104e0       _guard_dispatch_icall_nop  00000001400114e0 f   msvcrt:_guard_dispatch_.obj
 0002:00000000       __imp_InitCommonControlsEx 0000000140012000     comctl32:COMCTL32.dll
 0002:00000008       \177COMCTL32_NULL_THUNK_DATA 0000000140012008     comctl32:COMCTL32.dll
 0002:00000010       __imp_GetCurrentThreadId   0000000140012010     kernel32:KERNEL32.dll
 0002:00000018       __imp_InitializeCriticalSection 0000000140012018     kernel32:KERNEL32.dll
 0002:00000020       __imp_DeleteCriticalSection 0000000140012020     kernel32:KERNEL32.dll
 0002:00000028       __imp_Sleep                0000000140012028     kernel32:KERNEL32.dll
 0002:00000030       __imp_CreateWaitableTimerA 0000000140012030     kernel32:KERNEL32.dll
 0002:00000038       __imp_GetPrivateProfileIntA 0000000140012038     kernel32:KERNEL32.dll
 0002:00000040       __imp_GetPrivateProfileStringA 0000000140012040     kernel32:KERNEL32.dll
 0002:00000048       __imp_CloseHandle          0000000140012048     kernel32:KERNEL32.dll
 0002:00000050       __imp_WaitForMultipleObjects 0000000140012050     kernel32:KERNEL32.dll
 0002:00000058       __imp_CancelWaitableTimer  0000000140012058     kernel32:KERNEL32.dll
 0002:00000060       __imp_SetWaitableTimer     0000000140012060     kernel32:KERNEL32.dll
 0002:00000068       __imp_CreateSemaphoreA     0000000140012068     kernel32:KERNEL32.dll
 0002:00000070       __imp_WaitForSingleObject  0000000140012070     kernel32:KERNEL32.dll
 0002:00000078       __imp_InitializeCriticalSectionAndSpinCount 0000000140012078     kernel32:KERNEL32.dll
 0002:00000080       __imp_GetLastError         0000000140012080     kernel32:KERNEL32.dll
 0002:00000088       __imp_OutputDebugStringW   0000000140012088     kernel32:KERNEL32.dll
 0002:00000090       __imp_SetEvent             0000000140012090     kernel32:KERNEL32.dll
 0002:00000098       __imp_ReleaseSemaphore     0000000140012098     kernel32:KERNEL32.dll
 0002:000000a0       __imp_CreateFileA          00000001400120a0     kernel32:KERNEL32.dll
 0002:000000a8       __imp_SetupComm            00000001400120a8     kernel32:KERNEL32.dll
 0002:000000b0       __imp_GetCommState         00000001400120b0     kernel32:KERNEL32.dll
 0002:000000b8       __imp_BuildCommDCBAndTimeoutsA 00000001400120b8     kernel32:KERNEL32.dll
 0002:000000c0       __imp_SetCommTimeouts      00000001400120c0     kernel32:KERNEL32.dll
 0002:000000c8       __imp_SetCommState         00000001400120c8     kernel32:KERNEL32.dll
 0002:000000d0       __imp_PurgeComm            00000001400120d0     kernel32:KERNEL32.dll
 0002:000000d8       __imp_GetExitCodeThread    00000001400120d8     kernel32:KERNEL32.dll
 0002:000000e0       __imp_TerminateThread      00000001400120e0     kernel32:KERNEL32.dll
 0002:000000e8       __imp_CancelIo             00000001400120e8     kernel32:KERNEL32.dll
 0002:000000f0       __imp_GetTickCount         00000001400120f0     kernel32:KERNEL32.dll
 0002:000000f8       __imp_ReadFile             00000001400120f8     kernel32:KERNEL32.dll
 0002:00000100       __imp_WriteFile            0000000140012100     kernel32:KERNEL32.dll
 0002:00000108       __imp_GetOverlappedResult  0000000140012108     kernel32:KERNEL32.dll
 0002:00000110       __imp_LeaveCriticalSection 0000000140012110     kernel32:KERNEL32.dll
 0002:00000118       __imp_GetCurrentDirectoryA 0000000140012118     kernel32:KERNEL32.dll
 0002:00000120       __imp_GetLocalTime         0000000140012120     kernel32:KERNEL32.dll
 0002:00000128       __imp_GetStartupInfoA      0000000140012128     kernel32:KERNEL32.dll
 0002:00000130       __imp_CreateProcessA       0000000140012130     kernel32:KERNEL32.dll
 0002:00000138       __imp_SetThreadPriority    0000000140012138     kernel32:KERNEL32.dll
 0002:00000140       __imp_GetComputerNameA     0000000140012140     kernel32:KERNEL32.dll
 0002:00000148       __imp_CreateMailslotA      0000000140012148     kernel32:KERNEL32.dll
 0002:00000150       __imp_CreateEventW         0000000140012150     kernel32:KERNEL32.dll
 0002:00000158       __imp_GetModuleHandleW     0000000140012158     kernel32:KERNEL32.dll
 0002:00000160       __imp_GetProcAddress       0000000140012160     kernel32:KERNEL32.dll
 0002:00000168       __imp_RtlCaptureContext    0000000140012168     kernel32:KERNEL32.dll
 0002:00000170       __imp_RtlLookupFunctionEntry 0000000140012170     kernel32:KERNEL32.dll
 0002:00000178       __imp_RtlVirtualUnwind     0000000140012178     kernel32:KERNEL32.dll
 0002:00000180       __imp_UnhandledExceptionFilter 0000000140012180     kernel32:KERNEL32.dll
 0002:00000188       __imp_SetUnhandledExceptionFilter 0000000140012188     kernel32:KERNEL32.dll
 0002:00000190       __imp_GetCurrentProcess    0000000140012190     kernel32:KERNEL32.dll
 0002:00000198       __imp_TerminateProcess     0000000140012198     kernel32:KERNEL32.dll
 0002:000001a0       __imp_IsProcessorFeaturePresent 00000001400121a0     kernel32:KERNEL32.dll
 0002:000001a8       __imp_IsDebuggerPresent    00000001400121a8     kernel32:KERNEL32.dll
 0002:000001b0       __imp_GetStartupInfoW      00000001400121b0     kernel32:KERNEL32.dll
 0002:000001b8       __imp_QueryPerformanceCounter 00000001400121b8     kernel32:KERNEL32.dll
 0002:000001c0       __imp_GetCurrentProcessId  00000001400121c0     kernel32:KERNEL32.dll
 0002:000001c8       __imp_GetSystemTimeAsFileTime 00000001400121c8     kernel32:KERNEL32.dll
 0002:000001d0       __imp_InitializeSListHead  00000001400121d0     kernel32:KERNEL32.dll
 0002:000001d8       __imp_EnterCriticalSection 00000001400121d8     kernel32:KERNEL32.dll
 0002:000001e0       __imp_ResetEvent           00000001400121e0     kernel32:KERNEL32.dll
 0002:000001e8       __imp_CreateEventA         00000001400121e8     kernel32:KERNEL32.dll
 0002:000001f0       \177KERNEL32_NULL_THUNK_DATA 00000001400121f0     kernel32:KERNEL32.dll
 0002:000001f8       __imp_??1_Lockit@std@@QEAA@XZ 00000001400121f8     msvcprt:MSVCP140.dll
 0002:00000200       __imp_??0_Lockit@std@@QEAA@H@Z 0000000140012200     msvcprt:MSVCP140.dll
 0002:00000208       __imp_?_Xlength_error@std@@YAXPEBD@Z 0000000140012208     msvcprt:MSVCP140.dll
 0002:00000210       __imp_?_Xbad_alloc@std@@YAXXZ 0000000140012210     msvcprt:MSVCP140.dll
 0002:00000218       __imp_??Bid@locale@std@@QEAA_KXZ 0000000140012218     msvcprt:MSVCP140.dll
 0002:00000220       __imp_?_Getgloballocale@locale@std@@CAPEAV_Locimp@12@XZ 0000000140012220     msvcprt:MSVCP140.dll
 0002:00000228       __imp_?_BADOFF@std@@3_JB   0000000140012228     msvcprt:MSVCP140.dll
 0002:00000230       __imp_?always_noconv@codecvt_base@std@@QEBA_NXZ 0000000140012230     msvcprt:MSVCP140.dll
 0002:00000238       __imp_?_Fiopen@std@@YAPEAU_iobuf@@PEBDHH@Z 0000000140012238     msvcprt:MSVCP140.dll
 0002:00000240       __imp_??6?$basic_ostream@DU?$char_traits@D@std@@@std@@QEAAAEAV01@P6AAEAV01@AEAV01@@Z@Z 0000000140012240     msvcprt:MSVCP140.dll
 0002:00000248       __imp_??1?$basic_ostream@DU?$char_traits@D@std@@@std@@UEAA@XZ 0000000140012248     msvcprt:MSVCP140.dll
 0002:00000250       __imp_?xsputn@?$basic_streambuf@DU?$char_traits@D@std@@@std@@MEAA_JPEBD_J@Z 0000000140012250     msvcprt:MSVCP140.dll
 0002:00000258       __imp_?xsgetn@?$basic_streambuf@DU?$char_traits@D@std@@@std@@MEAA_JPEAD_J@Z 0000000140012258     msvcprt:MSVCP140.dll
 0002:00000260       __imp_?showmanyc@?$basic_streambuf@DU?$char_traits@D@std@@@std@@MEAA_JXZ 0000000140012260     msvcprt:MSVCP140.dll
 0002:00000268       __imp_??1?$basic_streambuf@DU?$char_traits@D@std@@@std@@UEAA@XZ 0000000140012268     msvcprt:MSVCP140.dll
 0002:00000270       __imp_??1?$basic_ios@DU?$char_traits@D@std@@@std@@UEAA@XZ 0000000140012270     msvcprt:MSVCP140.dll
 0002:00000278       __imp_?out@?$codecvt@DDU_Mbstatet@@@std@@QEBAHAEAU_Mbstatet@@PEBD1AEAPEBDPEAD3AEAPEAD@Z 0000000140012278     msvcprt:MSVCP140.dll
 0002:00000280       __imp_?in@?$codecvt@DDU_Mbstatet@@@std@@QEBAHAEAU_Mbstatet@@PEBD1AEAPEBDPEAD3AEAPEAD@Z 0000000140012280     msvcprt:MSVCP140.dll
 0002:00000288       __imp_??0?$basic_ostream@DU?$char_traits@D@std@@@std@@QEAA@PEAV?$basic_streambuf@DU?$char_traits@D@std@@@1@_N@Z 0000000140012288     msvcprt:MSVCP140.dll
 0002:00000290       __imp_?id@?$codecvt@DDU_Mbstatet@@@std@@2V0locale@2@A 0000000140012290     msvcprt:MSVCP140.dll
 0002:00000298       __imp_?uncaught_exception@std@@YA_NXZ 0000000140012298     msvcprt:MSVCP140.dll
 0002:000002a0       __imp_?_Osfx@?$basic_ostream@DU?$char_traits@D@std@@@std@@QEAAXXZ 00000001400122a0     msvcprt:MSVCP140.dll
 0002:000002a8       __imp_?sputn@?$basic_streambuf@DU?$char_traits@D@std@@@std@@QEAA_JPEBD_J@Z 00000001400122a8     msvcprt:MSVCP140.dll
 0002:000002b0       __imp_?put@?$basic_ostream@DU?$char_traits@D@std@@@std@@QEAAAEAV12@D@Z 00000001400122b0     msvcprt:MSVCP140.dll
 0002:000002b8       __imp_?flush@?$basic_ostream@DU?$char_traits@D@std@@@std@@QEAAAEAV12@XZ 00000001400122b8     msvcprt:MSVCP140.dll
 0002:000002c0       __imp_?_Getcat@?$codecvt@DDU_Mbstatet@@@std@@SA_KPEAPEBVfacet@locale@2@PEBV42@@Z 00000001400122c0     msvcprt:MSVCP140.dll
 0002:000002c8       __imp_?widen@?$basic_ios@DU?$char_traits@D@std@@@std@@QEBADD@Z 00000001400122c8     msvcprt:MSVCP140.dll
 0002:000002d0       __imp_?sputc@?$basic_streambuf@DU?$char_traits@D@std@@@std@@QEAAHD@Z 00000001400122d0     msvcprt:MSVCP140.dll
 0002:000002d8       __imp_??0?$basic_streambuf@DU?$char_traits@D@std@@@std@@IEAA@XZ 00000001400122d8     msvcprt:MSVCP140.dll
 0002:000002e0       __imp_?getloc@?$basic_streambuf@DU?$char_traits@D@std@@@std@@QEBA?AVlocale@2@XZ 00000001400122e0     msvcprt:MSVCP140.dll
 0002:000002e8       __imp_?_Init@?$basic_streambuf@DU?$char_traits@D@std@@@std@@IEAAXXZ 00000001400122e8     msvcprt:MSVCP140.dll
 0002:000002f0       __imp_?unshift@?$codecvt@DDU_Mbstatet@@@std@@QEBAHAEAU_Mbstatet@@PEAD1AEAPEAD@Z 00000001400122f0     msvcprt:MSVCP140.dll
 0002:000002f8       __imp_?clear@?$basic_ios@DU?$char_traits@D@std@@@std@@QEAAXH_N@Z 00000001400122f8     msvcprt:MSVCP140.dll
 0002:00000300       __imp_?setstate@?$basic_ios@DU?$char_traits@D@std@@@std@@QEAAXH_N@Z 0000000140012300     msvcprt:MSVCP140.dll
 0002:00000308       __imp_??0?$basic_ios@DU?$char_traits@D@std@@@std@@IEAA@XZ 0000000140012308     msvcprt:MSVCP140.dll
 0002:00000310       \177MSVCP140_NULL_THUNK_DATA 0000000140012310     msvcprt:MSVCP140.dll
 0002:00000318       __imp_SQLFetch             0000000140012318     KizuODBC:ODBC32.dll
 0002:00000320       __imp_SQLGetData           0000000140012320     KizuODBC:ODBC32.dll
 0002:00000328       __imp_SQLError             0000000140012328     KizuODBC:ODBC32.dll
 0002:00000330       __imp_SQLExecDirect        0000000140012330     KizuODBC:ODBC32.dll
 0002:00000338       __imp_SQLDisconnect        0000000140012338     KizuODBC:ODBC32.dll
 0002:00000340       __imp_SQLConnect           0000000140012340     KizuODBC:ODBC32.dll
 0002:00000348       __imp_SQLSetConnectAttr    0000000140012348     KizuODBC:ODBC32.dll
 0002:00000350       __imp_SQLGetDiagRec        0000000140012350     KizuODBC:ODBC32.dll
 0002:00000358       __imp_SQLFreeHandle        0000000140012358     KizuODBC:ODBC32.dll
 0002:00000360       __imp_SQLSetEnvAttr        0000000140012360     KizuODBC:ODBC32.dll
 0002:00000368       __imp_SQLAllocHandle       0000000140012368     KizuODBC:ODBC32.dll
 0002:00000370       __imp_SQLTransact          0000000140012370     KizuODBC:ODBC32.dll
 0002:00000378       \177ODBC32_NULL_THUNK_DATA 0000000140012378     KizuODBC:ODBC32.dll
 0002:00000380       __imp_PostThreadMessageA   0000000140012380     user32:USER32.dll
 0002:00000388       __imp_PostMessageA         0000000140012388     user32:USER32.dll
 0002:00000390       __imp_SetTimer             0000000140012390     user32:USER32.dll
 0002:00000398       __imp_KillTimer            0000000140012398     user32:USER32.dll
 0002:000003a0       __imp_DrawIcon             00000001400123a0     user32:USER32.dll
 0002:000003a8       __imp_GetClientRect        00000001400123a8     user32:USER32.dll
 0002:000003b0       __imp_GetSystemMetrics     00000001400123b0     user32:USER32.dll
 0002:000003b8       __imp_IsIconic             00000001400123b8     user32:USER32.dll
 0002:000003c0       __imp_EnableMenuItem       00000001400123c0     user32:USER32.dll
 0002:000003c8       __imp_GetSystemMenu        00000001400123c8     user32:USER32.dll
 0002:000003d0       __imp_SetWindowPos         00000001400123d0     user32:USER32.dll
 0002:000003d8       __imp_SendMessageA         00000001400123d8     user32:USER32.dll
 0002:000003e0       __imp_LoadIconW            00000001400123e0     user32:USER32.dll
 0002:000003e8       __imp_EnableWindow         00000001400123e8     user32:USER32.dll
 0002:000003f0       __imp_GetMessageA          00000001400123f0     user32:USER32.dll
 0002:000003f8       __imp_PeekMessageA         00000001400123f8     user32:USER32.dll
 0002:00000400       \177USER32_NULL_THUNK_DATA 0000000140012400     user32:USER32.dll
 0002:00000408       __imp__CxxThrowException   0000000140012408     vcruntime:VCRUNTIME140.dll
 0002:00000410       __imp___CxxFrameHandler3   0000000140012410     vcruntime:VCRUNTIME140.dll
 0002:00000418       __imp___C_specific_handler 0000000140012418     vcruntime:VCRUNTIME140.dll
 0002:00000420       __imp_memset               0000000140012420     vcruntime:VCRUNTIME140.dll
 0002:00000428       __imp_memcpy               0000000140012428     vcruntime:VCRUNTIME140.dll
 0002:00000430       __imp___std_exception_destroy 0000000140012430     vcruntime:VCRUNTIME140.dll
 0002:00000438       __imp___std_exception_copy 0000000140012438     vcruntime:VCRUNTIME140.dll
 0002:00000440       __imp_memmove              0000000140012440     vcruntime:VCRUNTIME140.dll
 0002:00000448       __imp___std_terminate      0000000140012448     vcruntime:VCRUNTIME140.dll
 0002:00000450       __imp_memcmp               0000000140012450     vcruntime:VCRUNTIME140.dll
 0002:00000458       __imp___vcrt_InitializeCriticalSectionEx 0000000140012458     vcruntime:VCRUNTIME140.dll
 0002:00000460       \177VCRUNTIME140_NULL_THUNK_DATA 0000000140012460     vcruntime:VCRUNTIME140.dll
 0002:00000468       __imp__lock_file           0000000140012468     ucrt:api-ms-win-crt-filesystem-l1-1-0.dll
 0002:00000470       __imp__mkdir               0000000140012470     ucrt:api-ms-win-crt-filesystem-l1-1-0.dll
 0002:00000478       __imp__unlock_file         0000000140012478     ucrt:api-ms-win-crt-filesystem-l1-1-0.dll
 0002:00000480       __imp_remove               0000000140012480     ucrt:api-ms-win-crt-filesystem-l1-1-0.dll
 0002:00000488       __imp_rename               0000000140012488     ucrt:api-ms-win-crt-filesystem-l1-1-0.dll
 0002:00000490       \177api-ms-win-crt-filesystem-l1-1-0_NULL_THUNK_DATA 0000000140012490     ucrt:api-ms-win-crt-filesystem-l1-1-0.dll
 0002:00000498       __imp__set_new_mode        0000000140012498     ucrt:api-ms-win-crt-heap-l1-1-0.dll
 0002:000004a0       __imp_free                 00000001400124a0     ucrt:api-ms-win-crt-heap-l1-1-0.dll
 0002:000004a8       \177api-ms-win-crt-heap-l1-1-0_NULL_THUNK_DATA 00000001400124a8     ucrt:api-ms-win-crt-heap-l1-1-0.dll
 0002:000004b0       __imp__configthreadlocale  00000001400124b0     ucrt:api-ms-win-crt-locale-l1-1-0.dll
 0002:000004b8       __imp_setlocale            00000001400124b8     ucrt:api-ms-win-crt-locale-l1-1-0.dll
 0002:000004c0       __imp__setmbcp             00000001400124c0     ucrt:api-ms-win-crt-locale-l1-1-0.dll
 0002:000004c8       \177api-ms-win-crt-locale-l1-1-0_NULL_THUNK_DATA 00000001400124c8     ucrt:api-ms-win-crt-locale-l1-1-0.dll
 0002:000004d0       __imp___setusermatherr     00000001400124d0     ucrt:api-ms-win-crt-math-l1-1-0.dll
 0002:000004d8       \177api-ms-win-crt-math-l1-1-0_NULL_THUNK_DATA 00000001400124d8     ucrt:api-ms-win-crt-math-l1-1-0.dll
 0002:000004e0       __imp__invalid_parameter_noinfo_noreturn 00000001400124e0     ucrt:api-ms-win-crt-runtime-l1-1-0.dll
 0002:000004e8       __imp_terminate            00000001400124e8     ucrt:api-ms-win-crt-runtime-l1-1-0.dll
 0002:000004f0       __imp_exit                 00000001400124f0     ucrt:api-ms-win-crt-runtime-l1-1-0.dll
 0002:000004f8       __imp__register_thread_local_exe_atexit_callback 00000001400124f8     ucrt:api-ms-win-crt-runtime-l1-1-0.dll
 0002:00000500       __imp__c_exit              0000000140012500     ucrt:api-ms-win-crt-runtime-l1-1-0.dll
 0002:00000508       __imp__invalid_parameter_noinfo 0000000140012508     ucrt:api-ms-win-crt-runtime-l1-1-0.dll
 0002:00000510       __imp__exit                0000000140012510     ucrt:api-ms-win-crt-runtime-l1-1-0.dll
 0002:00000518       __imp__initterm_e          0000000140012518     ucrt:api-ms-win-crt-runtime-l1-1-0.dll
 0002:00000520       __imp__initterm            0000000140012520     ucrt:api-ms-win-crt-runtime-l1-1-0.dll
 0002:00000528       __imp__get_narrow_winmain_command_line 0000000140012528     ucrt:api-ms-win-crt-runtime-l1-1-0.dll
 0002:00000530       __imp__set_app_type        0000000140012530     ucrt:api-ms-win-crt-runtime-l1-1-0.dll
 0002:00000538       __imp__seh_filter_exe      0000000140012538     ucrt:api-ms-win-crt-runtime-l1-1-0.dll
 0002:00000540       __imp__cexit               0000000140012540     ucrt:api-ms-win-crt-runtime-l1-1-0.dll
 0002:00000548       __imp__crt_atexit          0000000140012548     ucrt:api-ms-win-crt-runtime-l1-1-0.dll
 0002:00000550       __imp__register_onexit_function 0000000140012550     ucrt:api-ms-win-crt-runtime-l1-1-0.dll
 0002:00000558       __imp__initialize_onexit_table 0000000140012558     ucrt:api-ms-win-crt-runtime-l1-1-0.dll
 0002:00000560       __imp__initialize_narrow_environment 0000000140012560     ucrt:api-ms-win-crt-runtime-l1-1-0.dll
 0002:00000568       __imp__configure_narrow_argv 0000000140012568     ucrt:api-ms-win-crt-runtime-l1-1-0.dll
 0002:00000570       __imp__errno               0000000140012570     ucrt:api-ms-win-crt-runtime-l1-1-0.dll
 0002:00000578       __imp__beginthreadex       0000000140012578     ucrt:api-ms-win-crt-runtime-l1-1-0.dll
 0002:00000580       \177api-ms-win-crt-runtime-l1-1-0_NULL_THUNK_DATA 0000000140012580     ucrt:api-ms-win-crt-runtime-l1-1-0.dll
 0002:00000588       __imp_fclose               0000000140012588     ucrt:api-ms-win-crt-stdio-l1-1-0.dll
 0002:00000590       __imp__get_stream_buffer_pointers 0000000140012590     ucrt:api-ms-win-crt-stdio-l1-1-0.dll
 0002:00000598       __imp_fwrite               0000000140012598     ucrt:api-ms-win-crt-stdio-l1-1-0.dll
 0002:000005a0       __imp_fgetpos              00000001400125a0     ucrt:api-ms-win-crt-stdio-l1-1-0.dll
 0002:000005a8       __imp__fseeki64            00000001400125a8     ucrt:api-ms-win-crt-stdio-l1-1-0.dll
 0002:000005b0       __imp_fsetpos              00000001400125b0     ucrt:api-ms-win-crt-stdio-l1-1-0.dll
 0002:000005b8       __imp_setvbuf              00000001400125b8     ucrt:api-ms-win-crt-stdio-l1-1-0.dll
 0002:000005c0       __imp_fflush               00000001400125c0     ucrt:api-ms-win-crt-stdio-l1-1-0.dll
 0002:000005c8       __imp_ungetc               00000001400125c8     ucrt:api-ms-win-crt-stdio-l1-1-0.dll
 0002:000005d0       __imp_fputc                00000001400125d0     ucrt:api-ms-win-crt-stdio-l1-1-0.dll
 0002:000005d8       __imp_fgetc                00000001400125d8     ucrt:api-ms-win-crt-stdio-l1-1-0.dll
 0002:000005e0       __imp__set_fmode           00000001400125e0     ucrt:api-ms-win-crt-stdio-l1-1-0.dll
 0002:000005e8       __imp___p__commode         00000001400125e8     ucrt:api-ms-win-crt-stdio-l1-1-0.dll
 0002:000005f0       __imp___stdio_common_vsprintf 00000001400125f0     ucrt:api-ms-win-crt-stdio-l1-1-0.dll
 0002:000005f8       \177api-ms-win-crt-stdio-l1-1-0_NULL_THUNK_DATA 00000001400125f8     ucrt:api-ms-win-crt-stdio-l1-1-0.dll
 0002:00000600       __imp_?HtmlHelpA@CWnd@@UEAAX_KI@Z 0000000140012600     mfc140:mfc140.dll
 0002:00000608       __imp_?WinHelpInternal@CWnd@@UEAAX_KI@Z 0000000140012608     mfc140:mfc140.dll
 0002:00000610       __imp_?ContinueModal@CWnd@@UEAAHXZ 0000000140012610     mfc140:mfc140.dll
 0002:00000618       __imp_?EndModalLoop@CWnd@@UEAAXH@Z 0000000140012618     mfc140:mfc140.dll
 0002:00000620       __imp_?OnDrawIconicThumbnailOrLivePreview@CWnd@@UEAAXAEAVCDC@@VCRect@@VCSize@@HAEAH@Z 0000000140012620     mfc140:mfc140.dll
 0002:00000628       __imp_?EnsureStdObj@CWnd@@UEAAJXZ 0000000140012628     mfc140:mfc140.dll
 0002:00000630       __imp_?get_accParent@CWnd@@UEAAJPEAPEAUIDispatch@@@Z 0000000140012630     mfc140:mfc140.dll
 0002:00000638       __imp_?get_accChildCount@CWnd@@UEAAJPEAJ@Z 0000000140012638     mfc140:mfc140.dll
 0002:00000640       __imp_?get_accChild@CWnd@@UEAAJUtagVARIANT@@PEAPEAUIDispatch@@@Z 0000000140012640     mfc140:mfc140.dll
 0002:00000648       __imp_?get_accName@CWnd@@UEAAJUtagVARIANT@@PEAPEA_W@Z 0000000140012648     mfc140:mfc140.dll
 0002:00000650       __imp_?get_accValue@CWnd@@UEAAJUtagVARIANT@@PEAPEA_W@Z 0000000140012650     mfc140:mfc140.dll
 0002:00000658       __imp_?get_accDescription@CWnd@@UEAAJUtagVARIANT@@PEAPEA_W@Z 0000000140012658     mfc140:mfc140.dll
 0002:00000660       __imp_?get_accRole@CWnd@@UEAAJUtagVARIANT@@PEAU2@@Z 0000000140012660     mfc140:mfc140.dll
 0002:00000668       __imp_?get_accState@CWnd@@UEAAJUtagVARIANT@@PEAU2@@Z 0000000140012668     mfc140:mfc140.dll
 0002:00000670       __imp_?get_accHelp@CWnd@@UEAAJUtagVARIANT@@PEAPEA_W@Z 0000000140012670     mfc140:mfc140.dll
 0002:00000678       __imp_?get_accHelpTopic@CWnd@@UEAAJPEAPEA_WUtagVARIANT@@PEAJ@Z 0000000140012678     mfc140:mfc140.dll
 0002:00000680       __imp_?get_accKeyboardShortcut@CWnd@@UEAAJUtagVARIANT@@PEAPEA_W@Z 0000000140012680     mfc140:mfc140.dll
 0002:00000688       __imp_?get_accFocus@CWnd@@UEAAJPEAUtagVARIANT@@@Z 0000000140012688     mfc140:mfc140.dll
 0002:00000690       __imp_?get_accSelection@CWnd@@UEAAJPEAUtagVARIANT@@@Z 0000000140012690     mfc140:mfc140.dll
 0002:00000698       __imp_?get_accDefaultAction@CWnd@@UEAAJUtagVARIANT@@PEAPEA_W@Z 0000000140012698     mfc140:mfc140.dll
 0002:000006a0       __imp_?accSelect@CWnd@@UEAAJJUtagVARIANT@@@Z 00000001400126a0     mfc140:mfc140.dll
 0002:000006a8       __imp_?accLocation@CWnd@@UEAAJPEAJ000UtagVARIANT@@@Z 00000001400126a8     mfc140:mfc140.dll
 0002:000006b0       __imp_?accNavigate@CWnd@@UEAAJJUtagVARIANT@@PEAU2@@Z 00000001400126b0     mfc140:mfc140.dll
 0002:000006b8       __imp_?accHitTest@CWnd@@UEAAJJJPEAUtagVARIANT@@@Z 00000001400126b8     mfc140:mfc140.dll
 0002:000006c0       __imp_?accDoDefaultAction@CWnd@@UEAAJUtagVARIANT@@@Z 00000001400126c0     mfc140:mfc140.dll
 0002:000006c8       __imp_?put_accName@CWnd@@UEAAJUtagVARIANT@@PEA_W@Z 00000001400126c8     mfc140:mfc140.dll
 0002:000006d0       __imp_?put_accValue@CWnd@@UEAAJUtagVARIANT@@PEA_W@Z 00000001400126d0     mfc140:mfc140.dll
 0002:000006d8       __imp_?SetProxy@CWnd@@UEAAJPEAUIAccessibleProxy@@@Z 00000001400126d8     mfc140:mfc140.dll
 0002:000006e0       __imp_?CreateAccessibleProxy@CWnd@@UEAAJ_K_JPEA_J@Z 00000001400126e0     mfc140:mfc140.dll
 0002:000006e8       __imp_?OnCommand@CWnd@@MEAAH_K_J@Z 00000001400126e8     mfc140:mfc140.dll
 0002:000006f0       __imp_?OnNotify@CWnd@@MEAAH_K_JPEA_J@Z 00000001400126f0     mfc140:mfc140.dll
 0002:000006f8       __imp_?GetSuperWndProcAddr@CWnd@@MEAAPEAP6A_JPEAUHWND__@@I_K_J@ZXZ 00000001400126f8     mfc140:mfc140.dll
 0002:00000700       __imp_?PreTranslateMessage@CWnd@@UEAAHPEAUtagMSG@@@Z 0000000140012700     mfc140:mfc140.dll
 0002:00000708       __imp_?OnAmbientProperty@CWnd@@UEAAHPEAVCOleControlSite@@JPEAUtagVARIANT@@@Z 0000000140012708     mfc140:mfc140.dll
 0002:00000710       __imp_?WindowProc@CWnd@@MEAA_JI_K_J@Z 0000000140012710     mfc140:mfc140.dll
 0002:00000718       __imp_?OnWndMsg@CWnd@@MEAAHI_K_JPEA_J@Z 0000000140012718     mfc140:mfc140.dll
 0002:00000720       __imp_?DefWindowProcA@CWnd@@MEAA_JI_K_J@Z 0000000140012720     mfc140:mfc140.dll
 0002:00000728       __imp_?PostNcDestroy@CWnd@@MEAAXXZ 0000000140012728     mfc140:mfc140.dll
 0002:00000730       __imp_?OnChildNotify@CListBox@@MEAAHI_K_JPEA_J@Z 0000000140012730     mfc140:mfc140.dll
 0002:00000738       __imp_?OnTouchInputs@CWnd@@MEAAHIPEAUtagTOUCHINPUT@@@Z 0000000140012738     mfc140:mfc140.dll
 0002:00000740       __imp_?OnTouchInput@CWnd@@MEAAHVCPoint@@HHPEAUtagTOUCHINPUT@@@Z 0000000140012740     mfc140:mfc140.dll
 0002:00000748       __imp_?GetGestureStatus@CWnd@@MEAAKVCPoint@@@Z 0000000140012748     mfc140:mfc140.dll
 0002:00000750       __imp_?OnGestureZoom@CWnd@@MEAAHVCPoint@@J@Z 0000000140012750     mfc140:mfc140.dll
 0002:00000758       __imp_?OnGesturePan@CWnd@@MEAAHVCPoint@@0@Z 0000000140012758     mfc140:mfc140.dll
 0002:00000760       __imp_?OnGestureRotate@CWnd@@MEAAHVCPoint@@N@Z 0000000140012760     mfc140:mfc140.dll
 0002:00000768       __imp_?OnGestureTwoFingerTap@CWnd@@MEAAHVCPoint@@@Z 0000000140012768     mfc140:mfc140.dll
 0002:00000770       __imp_?OnGesturePressAndTap@CWnd@@MEAAHVCPoint@@J@Z 0000000140012770     mfc140:mfc140.dll
 0002:00000778       __imp_?ResizeDynamicLayout@CWnd@@MEAAXXZ 0000000140012778     mfc140:mfc140.dll
 0002:00000780       __imp_?CheckAutoCenter@CWnd@@UEAAHXZ 0000000140012780     mfc140:mfc140.dll
 0002:00000788       __imp_?IsFrameWnd@CWnd@@UEBAHXZ 0000000140012788     mfc140:mfc140.dll
 0002:00000790       __imp_?CreateControlContainer@CWnd@@MEAAHPEAPEAVCOleControlContainer@@@Z 0000000140012790     mfc140:mfc140.dll
 0002:00000798       __imp_?CreateControlSite@CWnd@@MEAAHPEAVCOleControlContainer@@PEAPEAVCOleControlSite@@IAEBU_GUID@@@Z 0000000140012798     mfc140:mfc140.dll
 0002:000007a0       __imp_?SetOccDialogInfo@CWnd@@MEAAHPEAU_AFX_OCC_DIALOG_INFO@@@Z 00000001400127a0     mfc140:mfc140.dll
 0002:000007a8       __imp_?GetOccDialogInfo@CWnd@@MEAAPEAU_AFX_OCC_DIALOG_INFO@@XZ 00000001400127a8     mfc140:mfc140.dll
 0002:000007b0       __imp_?Create@CListBox@@UEAAHKAEBUtagRECT@@PEAVCWnd@@I@Z 00000001400127b0     mfc140:mfc140.dll
 0002:000007b8       __imp_?DrawItem@CListBox@@UEAAXPEAUtagDRAWITEMSTRUCT@@@Z 00000001400127b8     mfc140:mfc140.dll
 0002:000007c0       __imp_?MeasureItem@CListBox@@UEAAXPEAUtagMEASUREITEMSTRUCT@@@Z 00000001400127c0     mfc140:mfc140.dll
 0002:000007c8       __imp_?CompareItem@CListBox@@UEAAHPEAUtagCOMPAREITEMSTRUCT@@@Z 00000001400127c8     mfc140:mfc140.dll
 0002:000007d0       __imp_?DeleteItem@CListBox@@UEAAXPEAUtagDELETEITEMSTRUCT@@@Z 00000001400127d0     mfc140:mfc140.dll
 0002:000007d8       __imp_?VKeyToItem@CListBox@@UEAAHII@Z 00000001400127d8     mfc140:mfc140.dll
 0002:000007e0       __imp_?CharToItem@CListBox@@UEAAHII@Z 00000001400127e0     mfc140:mfc140.dll
 0002:000007e8       __imp_??0CDialog@@QEAA@IPEAVCWnd@@@Z 00000001400127e8     mfc140:mfc140.dll
 0002:000007f0       __imp_?LoadSysPolicies@CWinApp@@UEAAHXZ 00000001400127f0     mfc140:mfc140.dll
 0002:000007f8       __imp_?LoadAppLangResourceDLL@CWinApp@@UEAAPEAUHINSTANCE__@@XZ 00000001400127f8     mfc140:mfc140.dll
 0002:00000800       __imp_?RestartInstance@CWinApp@@UEAAHXZ 0000000140012800     mfc140:mfc140.dll
 0002:00000808       __imp_?IsTaskbarInteractionEnabled@CWinApp@@UEAAHXZ 0000000140012808     mfc140:mfc140.dll
 0002:00000810       __imp_?GetDataRecoveryHandler@CWinApp@@UEAAPEAVCDataRecoveryHandler@@XZ 0000000140012810     mfc140:mfc140.dll
 0002:00000818       __imp_?ApplicationRecoveryCallback@CWinApp@@UEAAKPEAX@Z 0000000140012818     mfc140:mfc140.dll
 0002:00000820       __imp_?CreateIndirect@CDialog@@UEAAHPEAXPEAVCWnd@@@Z 0000000140012820     mfc140:mfc140.dll
 0002:00000828       __imp_?FromHandle@CMenu@@SAPEAV1@PEAUHMENU__@@@Z 0000000140012828     mfc140:mfc140.dll
 0002:00000830       __imp_?WinHelpInternal@CWinApp@@UEAAX_KI@Z 0000000140012830     mfc140:mfc140.dll
 0002:00000838       __imp_?HtmlHelpA@CWinApp@@UEAAX_KI@Z 0000000140012838     mfc140:mfc140.dll
 0002:00000840       __imp_?WinHelpA@CWinApp@@UEAAX_KI@Z 0000000140012840     mfc140:mfc140.dll
 0002:00000848       __imp_?OnDDECommand@CWinApp@@UEAAHPEAD@Z 0000000140012848     mfc140:mfc140.dll
 0002:00000850       __imp_?WinHelpA@CWnd@@UEAAX_KI@Z 0000000140012850     mfc140:mfc140.dll
 0002:00000858       __imp_?DoMessageBox@CWinApp@@UEAAHPEBDII@Z 0000000140012858     mfc140:mfc140.dll
 0002:00000860       __imp_?SaveAllModified@CWinApp@@UEAAHXZ 0000000140012860     mfc140:mfc140.dll
 0002:00000868       __imp_?InitApplication@CWinApp@@UEAAHXZ 0000000140012868     mfc140:mfc140.dll
 0002:00000870       __imp_?AddToRecentFileList@CWinApp@@UEAAXPEBD@Z 0000000140012870     mfc140:mfc140.dll
 0002:00000878       __imp_?OpenDocumentFile@CWinApp@@UEAAPEAVCDocument@@PEBD@Z 0000000140012878     mfc140:mfc140.dll
 0002:00000880       __imp_?OpenDocumentFile@CWinApp@@UEAAPEAVCDocument@@PEBDH@Z 0000000140012880     mfc140:mfc140.dll
 0002:00000888       __imp_?Unregister@CWinApp@@UEAAHXZ 0000000140012888     mfc140:mfc140.dll
 0002:00000890       __imp_?Register@CWinApp@@UEAAHXZ 0000000140012890     mfc140:mfc140.dll
 0002:00000898       __imp_?InitLibId@CWinApp@@UEAAXXZ 0000000140012898     mfc140:mfc140.dll
 0002:000008a0       __imp_?WriteProfileBinary@CWinApp@@UEAAHPEBD0PEAEI@Z 00000001400128a0     mfc140:mfc140.dll
 0002:000008a8       __imp_?GetProfileBinary@CWinApp@@UEAAHPEBD0PEAPEAEPEAI@Z 00000001400128a8     mfc140:mfc140.dll
 0002:000008b0       __imp_?WriteProfileStringA@CWinApp@@UEAAHPEBD00@Z 00000001400128b0     mfc140:mfc140.dll
 0002:000008b8       __imp_?GetProfileStringA@CWinApp@@UEAA?AV?$CStringT@DV?$StrTraitMFC_DLL@DV?$ChTraitsCRT@D@ATL@@@@@ATL@@PEBD00@Z 00000001400128b8     mfc140:mfc140.dll
 0002:000008c0       __imp_?WriteProfileInt@CWinApp@@UEAAHPEBD0H@Z 00000001400128c0     mfc140:mfc140.dll
 0002:000008c8       __imp_?GetProfileIntA@CWinApp@@UEAAIPEBD0H@Z 00000001400128c8     mfc140:mfc140.dll
 0002:000008d0       __imp_?Delete@CWinThread@@UEAAXXZ 00000001400128d0     mfc140:mfc140.dll
 0002:000008d8       __imp_?GetMainWnd@CWinThread@@UEAAPEAVCWnd@@XZ 00000001400128d8     mfc140:mfc140.dll
 0002:000008e0       __imp_?ProcessMessageFilter@CWinThread@@UEAAHHPEAUtagMSG@@@Z 00000001400128e0     mfc140:mfc140.dll
 0002:000008e8       __imp_?ProcessWndProcException@CWinApp@@UEAA_JPEAVCException@@PEBUtagMSG@@@Z 00000001400128e8     mfc140:mfc140.dll
 0002:000008f0       __imp_?ExitInstance@CWinApp@@UEAAHXZ 00000001400128f0     mfc140:mfc140.dll
 0002:000008f8       __imp_?IsIdleMessage@CWinThread@@UEAAHPEAUtagMSG@@@Z 00000001400128f8     mfc140:mfc140.dll
 0002:00000900       __imp_?OnIdle@CWinApp@@UEAAHJ@Z 0000000140012900     mfc140:mfc140.dll
 0002:00000908       __imp_?PumpMessage@CWinThread@@UEAAHXZ 0000000140012908     mfc140:mfc140.dll
 0002:00000910       __imp_?PreTranslateMessage@CWinThread@@UEAAHPEAUtagMSG@@@Z 0000000140012910     mfc140:mfc140.dll
 0002:00000918       __imp_?Run@CWinApp@@UEAAHXZ 0000000140012918     mfc140:mfc140.dll
 0002:00000920       __imp_?GetConnectionHook@CCmdTarget@@MEAAPEAUIConnectionPoint@@AEBU_GUID@@@Z 0000000140012920     mfc140:mfc140.dll
 0002:00000928       __imp_?GetExtraConnectionPoints@CCmdTarget@@MEAAHPEAVCPtrArray@@@Z 0000000140012928     mfc140:mfc140.dll
 0002:00000930       __imp_?GetInterfaceHook@CCmdTarget@@UEAAPEAUIUnknown@@PEBX@Z 0000000140012930     mfc140:mfc140.dll
 0002:00000938       __imp_?OnCreateAggregates@CCmdTarget@@UEAAHXZ 0000000140012938     mfc140:mfc140.dll
 0002:00000940       __imp_?GetEventSinkMap@CCmdTarget@@MEBAPEBUAFX_EVENTSINKMAP@@XZ 0000000140012940     mfc140:mfc140.dll
 0002:00000948       __imp_?GetInterfaceMap@CCmdTarget@@MEBAPEBUAFX_INTERFACEMAP@@XZ 0000000140012948     mfc140:mfc140.dll
 0002:00000950       __imp_?GetConnectionMap@CCmdTarget@@MEBAPEBUAFX_CONNECTIONMAP@@XZ 0000000140012950     mfc140:mfc140.dll
 0002:00000958       __imp_?GetDispatchMap@CCmdTarget@@MEBAPEBUAFX_DISPMAP@@XZ 0000000140012958     mfc140:mfc140.dll
 0002:00000960       __imp_?GetCommandMap@CCmdTarget@@MEBAPEBUAFX_OLECMDMAP@@XZ 0000000140012960     mfc140:mfc140.dll
 0002:00000968       __imp_?GetTypeLib@CCmdTarget@@UEAAJKPEAPEAUITypeLib@@@Z 0000000140012968     mfc140:mfc140.dll
 0002:00000970       __imp_?GetTypeLibCache@CCmdTarget@@UEAAPEAVCTypeLibCache@@XZ 0000000140012970     mfc140:mfc140.dll
 0002:00000978       __imp_?GetTypeInfoCount@CCmdTarget@@UEAAIXZ 0000000140012978     mfc140:mfc140.dll
 0002:00000980       __imp_?GetDispatchIID@CCmdTarget@@UEAAHPEAU_GUID@@@Z 0000000140012980     mfc140:mfc140.dll
 0002:00000988       __imp_?IsInvokeAllowed@CCmdTarget@@UEAAHJ@Z 0000000140012988     mfc140:mfc140.dll
 0002:00000990       __imp_?OnFinalRelease@CCmdTarget@@UEAAXXZ 0000000140012990     mfc140:mfc140.dll
 0002:00000998       __imp_?OnCmdMsg@CCmdTarget@@UEAAHIHPEAXPEAUAFX_CMDHANDLERINFO@@@Z 0000000140012998     mfc140:mfc140.dll
 0002:000009a0       __imp_?GetRuntimeClass@CWinApp@@UEBAPEAUCRuntimeClass@@XZ 00000001400129a0     mfc140:mfc140.dll
 0002:000009a8       __imp_??1CComboBox@@UEAA@XZ 00000001400129a8     mfc140:mfc140.dll
 0002:000009b0       __imp_??1CListBox@@UEAA@XZ 00000001400129b0     mfc140:mfc140.dll
 0002:000009b8       __imp_??1CDialog@@UEAA@XZ  00000001400129b8     mfc140:mfc140.dll
 0002:000009c0       __imp_?DoModal@CDialog@@UEAA_JXZ 00000001400129c0     mfc140:mfc140.dll
 0002:000009c8       __imp_?SetRegistryKey@CWinApp@@IEAAXPEBD@Z 00000001400129c8     mfc140:mfc140.dll
 0002:000009d0       __imp_?AfxEnableControlContainer@@YAXPEAVCOccManager@@@Z 00000001400129d0     mfc140:mfc140.dll
 0002:000009d8       __imp_?InitInstance@CWinApp@@UEAAHXZ 00000001400129d8     mfc140:mfc140.dll
 0002:000009e0       __imp_??1CWinApp@@UEAA@XZ  00000001400129e0     mfc140:mfc140.dll
 0002:000009e8       __imp_??0CWinApp@@QEAA@PEBD@Z 00000001400129e8     mfc140:mfc140.dll
 0002:000009f0       __imp_?GetThisMessageMap@CWinApp@@KAPEBUAFX_MSGMAP@@XZ 00000001400129f0     mfc140:mfc140.dll
 0002:000009f8       __imp_?OnHelp@CWinApp@@IEAAXXZ 00000001400129f8     mfc140:mfc140.dll
 0002:00000a00       __imp_??Y?$CStringT@DV?$StrTraitMFC_DLL@DV?$ChTraitsCRT@D@ATL@@@@@ATL@@QEAAAEAV01@PEBD@Z 0000000140012a00     mfc140:mfc140.dll
 0002:00000a08       __imp_??Y?$CStringT@DV?$StrTraitMFC_DLL@DV?$ChTraitsCRT@D@ATL@@@@@ATL@@QEAAAEAV01@AEBV?$CSimpleStringT@D$00@1@@Z 0000000140012a08     mfc140:mfc140.dll
 0002:00000a10       __imp_?AppendFormat@?$CStringT@DV?$StrTraitMFC_DLL@DV?$ChTraitsCRT@D@ATL@@@@@ATL@@QEAAXPEBDZZ 0000000140012a10     mfc140:mfc140.dll
 0002:00000a18       __imp_??0?$CStringT@DV?$StrTraitMFC_DLL@DV?$ChTraitsCRT@D@ATL@@@@@ATL@@QEAA@PEBD@Z 0000000140012a18     mfc140:mfc140.dll
 0002:00000a20       __imp_?Format@?$CStringT@DV?$StrTraitMFC_DLL@DV?$ChTraitsCRT@D@ATL@@@@@ATL@@QEAAXPEBDZZ 0000000140012a20     mfc140:mfc140.dll
 0002:00000a28       __imp_??4?$CStringT@DV?$StrTraitMFC_DLL@DV?$ChTraitsCRT@D@ATL@@@@@ATL@@QEAAAEAV01@PEBD@Z 0000000140012a28     mfc140:mfc140.dll
 0002:00000a30       __imp_??0?$CStringT@DV?$StrTraitMFC_DLL@DV?$ChTraitsCRT@D@ATL@@@@@ATL@@QEAA@XZ 0000000140012a30     mfc140:mfc140.dll
 0002:00000a38       __imp_??1?$CStringT@DV?$StrTraitMFC_DLL@DV?$ChTraitsCRT@D@ATL@@@@@ATL@@QEAA@XZ 0000000140012a38     mfc140:mfc140.dll
 0002:00000a40       __imp_??0?$CStringT@DV?$StrTraitMFC_DLL@DV?$ChTraitsCRT@D@ATL@@@@@ATL@@QEAA@AEBV01@@Z 0000000140012a40     mfc140:mfc140.dll
 0002:00000a48       __imp_?GetScrollBarCtrl@CWnd@@UEBAPEAVCScrollBar@@H@Z 0000000140012a48     mfc140:mfc140.dll
 0002:00000a50       __imp_?OnToolHitTest@CWnd@@UEBA_JVCPoint@@PEAUtagTOOLINFOA@@@Z 0000000140012a50     mfc140:mfc140.dll
 0002:00000a58       __imp_?Create@CDialog@@UEAAHPEBDPEAVCWnd@@@Z 0000000140012a58     mfc140:mfc140.dll
 0002:00000a60       __imp_?SetMenu@CWnd@@UEAAHPEAVCMenu@@@Z 0000000140012a60     mfc140:mfc140.dll
 0002:00000a68       __imp_?GetMenu@CWnd@@UEBAPEAVCMenu@@XZ 0000000140012a68     mfc140:mfc140.dll
 0002:00000a70       __imp_?GetOccDialogInfo@CDialog@@MEAAPEAU_AFX_OCC_DIALOG_INFO@@XZ 0000000140012a70     mfc140:mfc140.dll
 0002:00000a78       __imp_?CalcWindowRect@CWnd@@UEAAXPEAUtagRECT@@I@Z 0000000140012a78     mfc140:mfc140.dll
 0002:00000a80       __imp_?PreCreateWindow@CWnd@@UEAAHAEAUtagCREATESTRUCTA@@@Z 0000000140012a80     mfc140:mfc140.dll
 0002:00000a88       __imp_?DestroyWindow@CWnd@@UEAAHXZ 0000000140012a88     mfc140:mfc140.dll
 0002:00000a90       __imp_?CreateEx@CWnd@@UEAAHKPEBD0KHHHHPEAUHWND__@@PEAUHMENU__@@PEAX@Z 0000000140012a90     mfc140:mfc140.dll
 0002:00000a98       __imp_?CreateEx@CWnd@@UEAAHKPEBD0KAEBUtagRECT@@PEAV1@IPEAX@Z 0000000140012a98     mfc140:mfc140.dll
 0002:00000aa0       __imp_?SetOccDialogInfo@CDialog@@MEAAHPEAU_AFX_OCC_DIALOG_INFO@@@Z 0000000140012aa0     mfc140:mfc140.dll
 0002:00000aa8       __imp_?CheckAutoCenter@CDialog@@UEAAHXZ 0000000140012aa8     mfc140:mfc140.dll
 0002:00000ab0       __imp_?OnChildNotify@CWnd@@MEAAHI_K_JPEA_J@Z 0000000140012ab0     mfc140:mfc140.dll
 0002:00000ab8       __imp_?Create@CWnd@@UEAAHPEBD0KAEBUtagRECT@@PEAV1@IPEAUCCreateContext@@@Z 0000000140012ab8     mfc140:mfc140.dll
 0002:00000ac0       __imp_?PreSubclassWindow@CWnd@@UEAAXXZ 0000000140012ac0     mfc140:mfc140.dll
 0002:00000ac8       __imp_?GetInterfaceMap@CWnd@@MEBAPEBUAFX_INTERFACEMAP@@XZ 0000000140012ac8     mfc140:mfc140.dll
 0002:00000ad0       __imp_?GetMessageMap@CWnd@@MEBAPEBUAFX_MSGMAP@@XZ 0000000140012ad0     mfc140:mfc140.dll
 0002:00000ad8       __imp_?OnFinalRelease@CWnd@@UEAAXXZ 0000000140012ad8     mfc140:mfc140.dll
 0002:00000ae0       __imp_?GetRuntimeClass@CListBox@@UEBAPEAUCRuntimeClass@@XZ 0000000140012ae0     mfc140:mfc140.dll
 0002:00000ae8       __imp_?PreTranslateMessage@CDialog@@UEAAHPEAUtagMSG@@@Z 0000000140012ae8     mfc140:mfc140.dll
 0002:00000af0       __imp_?OnCmdMsg@CDialog@@UEAAHIHPEAXPEAUAFX_CMDHANDLERINFO@@@Z 0000000140012af0     mfc140:mfc140.dll
 0002:00000af8       __imp_??0CWnd@@QEAA@XZ     0000000140012af8     mfc140:mfc140.dll
 0002:00000b00       __imp_?DeleteItem@CComboBox@@UEAAXPEAUtagDELETEITEMSTRUCT@@@Z 0000000140012b00     mfc140:mfc140.dll
 0002:00000b08       __imp_?GetRuntimeClass@CDialog@@UEBAPEAUCRuntimeClass@@XZ 0000000140012b08     mfc140:mfc140.dll
 0002:00000b10       __imp_?CompareItem@CComboBox@@UEAAHPEAUtagCOMPAREITEMSTRUCT@@@Z 0000000140012b10     mfc140:mfc140.dll
 0002:00000b18       __imp_?MeasureItem@CComboBox@@UEAAXPEAUtagMEASUREITEMSTRUCT@@@Z 0000000140012b18     mfc140:mfc140.dll
 0002:00000b20       __imp_?DrawItem@CComboBox@@UEAAXPEAUtagDRAWITEMSTRUCT@@@Z 0000000140012b20     mfc140:mfc140.dll
 0002:00000b28       __imp_?Create@CComboBox@@UEAAHKAEBUtagRECT@@PEAVCWnd@@I@Z 0000000140012b28     mfc140:mfc140.dll
 0002:00000b30       __imp_?OnChildNotify@CComboBox@@MEAAHI_K_JPEA_J@Z 0000000140012b30     mfc140:mfc140.dll
 0002:00000b38       __imp_?GetRuntimeClass@CComboBox@@UEBAPEAUCRuntimeClass@@XZ 0000000140012b38     mfc140:mfc140.dll
 0002:00000b40       __imp_?AfxFindResourceHandle@@YAPEAUHINSTANCE__@@PEBD0@Z 0000000140012b40     mfc140:mfc140.dll
 0002:00000b48       __imp_?AfxGetModuleState@@YAPEAVAFX_MODULE_STATE@@XZ 0000000140012b48     mfc140:mfc140.dll
 0002:00000b50       __imp_?DDX_Control@@YAXPEAVCDataExchange@@HAEAVCWnd@@@Z 0000000140012b50     mfc140:mfc140.dll
 0002:00000b58       __imp_?GetThisMessageMap@CDialog@@KAPEBUAFX_MSGMAP@@XZ 0000000140012b58     mfc140:mfc140.dll
 0002:00000b60       __imp_?OnInitDialog@CDialog@@UEAAHXZ 0000000140012b60     mfc140:mfc140.dll
 0002:00000b68       __imp_?CheckRadioButton@CWnd@@QEAAXHHH@Z 0000000140012b68     mfc140:mfc140.dll
 0002:00000b70       __imp_?SetDlgItemInt@CWnd@@QEAAXHIH@Z 0000000140012b70     mfc140:mfc140.dll
 0002:00000b78       __imp_?GetWindowTextA@CWnd@@QEBAXAEAV?$CStringT@DV?$StrTraitMFC_DLL@DV?$ChTraitsCRT@D@ATL@@@@@ATL@@@Z 0000000140012b78     mfc140:mfc140.dll
 0002:00000b80       __imp_??4?$CStringT@DV?$StrTraitMFC_DLL@DV?$ChTraitsCRT@D@ATL@@@@@ATL@@QEAAAEAV01@AEBV01@@Z 0000000140012b80     mfc140:mfc140.dll
 0002:00000b88       __imp_?GetDlgItemTextA@CWnd@@QEBAHHPEADH@Z 0000000140012b88     mfc140:mfc140.dll
 0002:00000b90       __imp_??_U@YAPEAX_K@Z      0000000140012b90     mfc140:mfc140.dll
 0002:00000b98       __imp_??_V@YAXPEAX@Z       0000000140012b98     mfc140:mfc140.dll
 0002:00000ba0       __imp_?GetManager@?$CStringT@DV?$StrTraitMFC_DLL@DV?$ChTraitsCRT@D@ATL@@@@@ATL@@QEBAPEAUIAtlStringMgr@2@XZ 0000000140012ba0     mfc140:mfc140.dll
 0002:00000ba8       __imp_??0?$CStringT@DV?$StrTraitMFC_DLL@DV?$ChTraitsCRT@D@ATL@@@@@ATL@@QEAA@PEAUIAtlStringMgr@1@@Z 0000000140012ba8     mfc140:mfc140.dll
 0002:00000bb0       __imp_?Concatenate@?$CSimpleStringT@D$00@ATL@@KAXAEAV12@PEBDH1H@Z 0000000140012bb0     mfc140:mfc140.dll
 0002:00000bb8       __imp_?GetDlgItemInt@CWnd@@QEBAIHPEAHH@Z 0000000140012bb8     mfc140:mfc140.dll
 0002:00000bc0       __imp_?IsDlgButtonChecked@CWnd@@QEBAIH@Z 0000000140012bc0     mfc140:mfc140.dll
 0002:00000bc8       __imp_?PreInitDialog@CDialog@@MEAAXXZ 0000000140012bc8     mfc140:mfc140.dll
 0002:00000bd0       __imp_?OnOK@CDialog@@MEAAXXZ 0000000140012bd0     mfc140:mfc140.dll
 0002:00000bd8       __imp_?Default@CWnd@@IEAA_JXZ 0000000140012bd8     mfc140:mfc140.dll
 0002:00000be0       __imp_?OnSetFont@CDialog@@UEAAXPEAVCFont@@@Z 0000000140012be0     mfc140:mfc140.dll
 0002:00000be8       __imp_?DoWaitCursor@CWinApp@@UEAAXH@Z 0000000140012be8     mfc140:mfc140.dll
 0002:00000bf0       __imp_?SetDlgItemTextA@CWnd@@QEAAXHPEBD@Z 0000000140012bf0     mfc140:mfc140.dll
 0002:00000bf8       __imp_?MessageBoxA@CWnd@@QEAAHPEBD0I@Z 0000000140012bf8     mfc140:mfc140.dll
 0002:00000c00       __imp_?OnPaint@CDialog@@IEAAXXZ 0000000140012c00     mfc140:mfc140.dll
 0002:00000c08       __imp_??1CPaintDC@@UEAA@XZ 0000000140012c08     mfc140:mfc140.dll
 0002:00000c10       __imp_?CreateIndirect@CDialog@@UEAAHPEBUDLGTEMPLATE@@PEAVCWnd@@PEAX@Z 0000000140012c10     mfc140:mfc140.dll
 0002:00000c18       __imp_?RegisterWithRestartManager@CWinApp@@UEAAJHAEBV?$CStringT@DV?$StrTraitMFC_DLL@DV?$ChTraitsCRT@D@ATL@@@@@ATL@@@Z 0000000140012c18     mfc140:mfc140.dll
 0002:00000c20       __imp_??2@YAPEAX_K@Z       0000000140012c20     mfc140:mfc140.dll
 0002:00000c28       __imp_??0CPaintDC@@QEAA@PEAVCWnd@@@Z 0000000140012c28     mfc140:mfc140.dll
 0002:00000c30       __imp_?AfxWinMain@@YAHPEAUHINSTANCE__@@0PEADH@Z 0000000140012c30     mfc140:mfc140.dll
 0002:00000c38       __imp_??3@YAXPEAX@Z        0000000140012c38     mfc140:mfc140.dll
 0002:00000c40       __imp_?RegisterWithRestartManager@CWinApp@@UEAAJPEB_WKP6AKPEAX@Z1KK@Z 0000000140012c40     mfc140:mfc140.dll
 0002:00000c48       __imp_?SetWindowTextA@CWnd@@QEAAXPEBD@Z 0000000140012c48     mfc140:mfc140.dll
 0002:00000c50       \177mfc140_NULL_THUNK_DATA 0000000140012c50     mfc140:mfc140.dll
 0002:00000c58       __guard_check_icall_fptr   0000000140012c58     msvcrt:guard_support.obj
 0002:00000c60       __guard_dispatch_icall_fptr 0000000140012c60     msvcrt:guard_support.obj
 0002:00000c68       __xc_a                     0000000140012c68     msvcrt:initializers.obj
 0002:00000ca0       __xc_z                     0000000140012ca0     msvcrt:initializers.obj
 0002:00000ca8       __xi_a                     0000000140012ca8     msvcrt:initializers.obj
 0002:00000cc8       __xi_z                     0000000140012cc8     msvcrt:initializers.obj
 0002:00000cd0       __xl_a                     0000000140012cd0     msvcrt:tlssup.obj
 0002:00000cd8       __xl_z                     0000000140012cd8     msvcrt:tlssup.obj
 0002:00000ce0       __xp_a                     0000000140012ce0     msvcrt:initializers.obj
 0002:00000ce8       __xp_z                     0000000140012ce8     msvcrt:initializers.obj
 0002:00000cf0       __xt_a                     0000000140012cf0     msvcrt:initializers.obj
 0002:00000cf8       __xt_z                     0000000140012cf8     msvcrt:initializers.obj
 0002:00000d08       ??_7type_info@@6B@         0000000140012d08     msvcrt:std_type_info_static.obj
 0002:00000d10       ??_C@_1BK@MGMFAEKH@?$AAk?$AAe?$AAr?$AAn?$AAe?$AAl?$AA3?$AA2?$AA?4?$AAd?$AAl?$AAl?$AA?$AA@ 0000000140012d10     msvcrt:thread_safe_statics.obj
 0002:00000d30       ??_C@_0BM@HLJJNPAH@InitializeConditionVariable?$AA@ 0000000140012d30     msvcrt:thread_safe_statics.obj
 0002:00000d50       ??_C@_0BJ@JEBJOJFJ@SleepConditionVariableCS?$AA@ 0000000140012d50     msvcrt:thread_safe_statics.obj
 0002:00000d70       ??_C@_0BJ@PGPPEPCC@WakeAllConditionVariable?$AA@ 0000000140012d70     msvcrt:thread_safe_statics.obj
 0002:00000da0       GUID_ATLVer110             0000000140012da0     atls:atlbase.obj
 0002:00000db0       ??_C@_1IC@ONKHOIDK@?$AAE?$AAR?$AAR?$AAO?$AAR?$AA?5?$AA?3?$AA?5?$AAU?$AAn?$AAa?$AAb?$AAl?$AAe?$AA?5?$AAt?$AAo?$AA?5?$AAi?$AAn?$AAi?$AAt?$AAi?$AAa?$AAl?$AAi?$AAz?$AAe?$AA?5?$AAc?$AAr?$AAi@ 0000000140012db0     atls:atlbase.obj
 0002:00000e60       ??_C@_09BKLDJKEH@TO_CAMERA?$AA@ 0000000140012e60     CameraManager.obj
 0002:00000e70       ??_C@_0N@PHHKBLOB@PARAM_COMMON?$AA@ 0000000140012e70     CameraManager.obj
 0002:00000e80       ??_C@_0P@OBNDCGCB@?4?2KizuTask?4ini?$AA@ 0000000140012e80     CameraManager.obj
 0002:00000e90       ??_C@_06EKKPGGCG@FILTER?$AA@ 0000000140012e90     CameraManager.obj
 0002:00000e98       ??_C@_09JHGGHIHC@COMMAND_H?$AA@ 0000000140012e98     CameraManager.obj
 0002:00000ea4       ??_C@_05EMPDFPKE@CMD?$CFd?$AA@ 0000000140012ea4     CameraManager.obj
 0002:00000eb0       ??_C@_09HGEIKGAP@CamMgr_?$CFd?$AA@ 0000000140012eb0     CameraManager.obj
 0002:00000ec0       ??_C@_0BD@CFAKLMIC@PARAM_CNT_TBL_NAME?$AA@ 0000000140012ec0     CameraManager.obj
 0002:00000ed8       ??_C@_09LJPLDJIF@CAMID_NUM?$AA@ 0000000140012ed8     CameraManager.obj
 0002:00000ee8       ??_C@_0M@GAOALIDO@CAMID_START?$AA@ 0000000140012ee8     CameraManager.obj
 0002:00000ef8       ??_C@_0DK@PPHBICEJ@?$FL?$CFs?$FN?5?$IDp?$ID?$IJ?$ID?$IB?$IB?$FL?$ID?$FO?$JD?G?$IN?$JO?$IO?$LI?$JEs?$CIDB?$JA?Z?$JB?$LB?$II?Y@ 0000000140012ef8     CameraManager.obj
 0002:00000f38       ??_C@_0M@CCIEIGOO@CAMID_?$CFd_?$CFd?$AA@ 0000000140012f38     CameraManager.obj
 0002:00000f48       ??_C@_0M@ELJKAPMA@INPCH_?$CFd_?$CFd?$AA@ 0000000140012f48     CameraManager.obj
 0002:00000f58       ??_C@_0BJ@HNOPLOOI@?$FL?$CFs?$FN?5?$IDX?$ID?$IM?$IDb?$IDh?$IKJ?$IOn?5?$FL0x?$CFX?$FN?$AA@ 0000000140012f58     CameraManager.obj
 0002:00000f78       ??_C@_0BJ@NHHDCJCL@?$FL?$CFs?$FN?5?$IDX?$ID?$IM?$IDb?$IDh?$IPI?$JH?$LJ?5?$FL0x?$CFX?$FN?$AA@ 0000000140012f78     CameraManager.obj
 0002:00000f98       ??_C@_0CC@NJBNDPCD@?$FL?$CFs?$FN?5?$IJ?$JO?$JD?$JK?$JD?$GA?$JF?$LG?$ID?$FO?$IDC?$ID?$IA?$IDA?$IDE?$IDg?5send?$DN?$CF@ 0000000140012f98     CameraManager.obj
 0002:00000fc0       ??_C@_0CH@CNFHBEGA@?$FL?$IJ?$JO?$JD?$JK?$JD?$GA?$JF?$LG?$ID?$FO?$IDC?$ID?$IA?$IDA?$IDE?$IDg?3Unit?$DN?$CFd?3se@ 0000000140012fc0     CameraManager.obj
 0002:00000fe8       ??_C@_0CC@GGANPBCH@?$FL?$CFs?$FN?5?$IJ?q?$JA?$PM?$JA?X?$JCf?$IP?s?$JB?T?$IC?E?$IBA?$IDR?$ID?$HN?$ID?$JD?$IDh?$IO?s?$JA@ 0000000140012fe8     CameraManager.obj
 0002:00001010       ??_C@_0BO@FPIFGAMH@?$FL?$CFs?$FN?5?$IDp?$ID?$IL?$IDX?$IPo?$JH?M?$JC?$IG?$IC?M?$JG?$LD?$IM?x?$IC?E?$IC?$LH?$IBB?$AA@ 0000000140013010     CameraManager.obj
 0002:00001030       ??_C@_0CJ@LMCNNBFO@?$FLCameraManager?$FN?5?$IDp?$ID?$IL?$IDX?$IPo?$JH?M?$JC?$IG?$IC?M?$JG?$LD@ 0000000140013030     CameraManager.obj
 0002:00001060       ??_C@_0CN@FMKAAGIA@?$FL?$CFs?$FN?5AGC?$JHv?$IL?$IB?$IC?L?$IDJ?$ID?$IB?$ID?$IJ?$JE?T?$IN?$IG?$IC?$KK?$JFs?$JA?$LD?5?$FL@ 0000000140013060     CameraManager.obj
 0002:00001090       ??_C@_0BA@KMALNKCB@?$FLUnit?$DN?$CFd?5ID?$DN?$CFd?$FN?$AA@ 0000000140013090     CameraManager.obj
 0002:000010a0       ??_C@_0CI@NJAHMGPP@?$FL?$CFs?$FN?5?$JII?$IM?u?$IO?$JO?$IK?T?5?$IJ?$LK?$IM?$MA?$JCl?$JD?$JO?$JCB?5?$FLID?$DN?$CFd?$FN@ 00000001400130a0     CameraManager.obj
 0002:000010c8       ??_C@_0CI@IMGDKEGA@?$FL?$CFs?$FN?5?$JII?$IM?u?$IO?$JO?$IK?T?5?$IP?c?$IM?$MA?$JCl?$JD?$JO?$JCB?5?$FLID?$DN?$CFd?$FN@ 00000001400130c8     CameraManager.obj
 0002:000010f0       ??_C@_01LFCBOECM@?4?$AA@   00000001400130f0     CameraManager.obj
 0002:000010f8       ??_C@_09BJAEPIJN@TO_DEFECT?$AA@ 00000001400130f8     CameraManager.obj
 0002:00001108       ??_C@_0CA@EIJGNPKN@?$FL?$CFs?$FN?5?$DM?$CFd?$DO?5?$IDI?$IB?$FL?$IDv?$ID?$JD?$ID?$GA?$IDF?$IDb?$IDN?5?$IKJ?$IOn?$AA@ 0000000140013108     CameraManager.obj
 0002:00001128       ??_C@_03KKEONHKL@?$CFs?$AN?$AA@ 0000000140013128     CameraManager.obj
 0002:00001130       ??_C@_0BG@LKIODDBE@?$FL?$CFs?$FN?5?$DM?$CFd?$DO?5?$IP?$IJ?$IK?z?$IJ?$LL?5?$IKJ?$IOn?$AA@ 0000000140013130     CameraManager.obj
 0002:00001148       ??_C@_04JCCCEJEA@?$CFsS?$AN?$AA@ 0000000140013148     CameraManager.obj
 0002:00001150       ??_C@_06ICDPLOCA@?$CFsL?$CFd?$AN?$AA@ 0000000140013150     CameraManager.obj
 0002:00001158       ??_C@_06LPFPJHJA@?$CFsM?$CFd?$AN?$AA@ 0000000140013158     CameraManager.obj
 0002:00001160       ??_C@_06LCEPPFOB@?$CFsD?$CFd?$AN?$AA@ 0000000140013160     CameraManager.obj
 0002:00001168       ??_C@_05LPEKDMMI@?$CFsC0?$AN?$AA@ 0000000140013168     CameraManager.obj
 0002:00001170       ??_C@_07CPEBAODN@?$CFsI1?$CFd?$AN?$AA@ 0000000140013170     CameraManager.obj
 0002:00001178       ??_C@_07GIOBHEON@?$CFsI2?$CFd?$AN?$AA@ 0000000140013178     CameraManager.obj
 0002:00001180       ??_C@_07FFIBFNFN@?$CFsI3?$CFd?$AN?$AA@ 0000000140013180     CameraManager.obj
 0002:00001188       ??_C@_07BCCBCHIN@?$CFsI0?$CFd?$AN?$AA@ 0000000140013188     CameraManager.obj
 0002:00001190       ??_C@_06PIPPONEA@?$CFsN?$CFd?$AN?$AA@ 0000000140013190     CameraManager.obj
 0002:00001198       ??_C@_06OPMPELND@?$CFsU?$CFd?$AN?$AA@ 0000000140013198     CameraManager.obj
 0002:000011a0       ??_C@_06FNOPJHMD@?$CFsR?$CFd?$AN?$AA@ 00000001400131a0     CameraManager.obj
 0002:000011a8       ??_C@_08PFFMBPKG@?$CFsA?$CFc?$CFd?$AN?$AA@ 00000001400131a8     CameraManager.obj
 0002:000011b4       ??_C@_05HCIEFDOO@?$CFsT0?$AN?$AA@ 00000001400131b4     CameraManager.obj
 0002:000011bc       ??_C@_05HDEGDJNJ@?$CFsT1?$AN?$AA@ 00000001400131bc     CameraManager.obj
 0002:000011c4       ??_C@_05HBAAIHIA@?$CFsT2?$AN?$AA@ 00000001400131c4     CameraManager.obj
 0002:000011cc       ??_C@_05HAMCONLH@?$CFsT3?$AN?$AA@ 00000001400131cc     CameraManager.obj
 0002:000011d4       ??_C@_05HFINPLDC@?$CFsT4?$AN?$AA@ 00000001400131d4     CameraManager.obj
 0002:000011e0       ??_C@_08BPFBMDKM@?$CFsF?$CF05d?$AN?$AA@ 00000001400131e0     CameraManager.obj
 0002:000011f0       ??_C@_08MAAMCPKG@?$CFsH?$CF01d?$AN?$AA@ 00000001400131f0     CameraManager.obj
 0002:00001200       ??_C@_0DI@EIGEJNAK@?$FL?$CFs?$FN?5?$DM?$CFd?$DO?5?$IDT?$IDu?$ID?$IC?$IB?$FL?$IDh?$II?Y?$IP?m?5?$FLmode?5?$DN@ 0000000140013200     CameraManager.obj
 0002:00001238       ??_C@_0CL@GKFFMDMB@Unit?$DN?$CFd?5?$FL?$DM?$CFd?$DO?5mode?5?$DN?5?$IP?$IJ?$IK?z?$IJ?$LL?5sub_@ 0000000140013238     CameraManager.obj
 0002:00001268       ??_C@_0CF@EELHHAGC@?$FLCameraManager?$FN?5?$DM?$CFd?$DO?5?$INZ?$JA?$LD?$IP?$IJ?$IK?z?$IJ?$LL?5@ 0000000140013268     CameraManager.obj
 0002:00001290       ??_C@_0EH@EIDIOJMG@?$FLCameraManager?$FN?5?$DM?$CFd?$DO?5?$IDT?$IDu?$ID?$IC?$IB?$FL?$IDh?$II@ 0000000140013290     CameraManager.obj
 0002:000012d8       ??_C@_0CH@GOBDOABO@?$FL?$DM?$CFd?$DO?5mode?5?$DN?5?$INZ?$JA?$LD?$IP?$IJ?$IK?z?$IJ?$LL?5sub_mode@ 00000001400132d8     CameraManager.obj
 0002:00001300       ??_C@_0BF@OGPLPAON@?$FL?$CFs?$FN?5?$IDp?$ID?$IL?$IDX?$IPo?$JH?M?5?$IKJ?$IOn?$AA@ 0000000140013300     CameraManager.obj
 0002:00001318       ??_C@_05JLODAJCD@?$CFsE1?$AN?$AA@ 0000000140013318     CameraManager.obj
 0002:00001320       ??_C@_0EA@KGBKAFBI@?$FL?$CFs?$FN?5?$DM?$CFd?$DO?5?$IDT?$IDu?$ID?$IC?$IB?$FL?$IDh?$II?Y?$IP?m?5?$FLmode?5?$DN@ 0000000140013320     CameraManager.obj
 0002:00001360       ??_C@_0DD@EJNDEBCH@Unit?$DN?$CFd?5?$FL?$DM?$CFd?$DO?5mode?5?$DN?5?$IDp?$ID?$IL?$IDX?$IPo?$JH?M?$IK@ 0000000140013360     CameraManager.obj
 0002:00001398       ??_C@_0BF@NBNIGCJA@?$FL?$CFs?$FN?5?$IDp?$ID?$IL?$IDX?$JC?b?$IO?$HO?5?$IKJ?$IOn?$AA@ 0000000140013398     CameraManager.obj
 0002:000013b0       ??_C@_05JKCBGDBE@?$CFsE0?$AN?$AA@ 00000001400133b0     CameraManager.obj
 0002:000013c0       ??_C@_0EA@KHJIEAP@?$FL?$CFs?$FN?5?$DM?$CFd?$DO?5?$IDT?$IDu?$ID?$IC?$IB?$FL?$IDh?$II?Y?$IP?m?5?$FLmode?5?$DN@ 00000001400133c0     CameraManager.obj
 0002:00001400       ??_C@_0DD@JGKLBGAM@Unit?$DN?$CFd?5?$FL?$DM?$CFd?$DO?5mode?5?$DN?5?$IDp?$ID?$IL?$IDX?$IPo?$JH?M?$JC@ 0000000140013400     CameraManager.obj
 0002:00001438       ??_C@_0BM@IFFCLBFM@?$FL?$CFs?$FN?5?$DM?$CFd?$DO?5?$JII?$IM?u?$IO?$JO?$IK?T?$JF?O?$INX?5?$IKJ?$IOn?$AA@ 0000000140013438     CameraManager.obj
 0002:00001460       ??_C@_0EA@HGCJLKEO@?$FL?$CFs?$FN?5?$DM?$CFd?$DO?5?$IDT?$IDu?$ID?$IC?$IB?$FL?$IDh?$II?Y?$IP?m?5?$FLmode?5?$DN@ 0000000140013460     CameraManager.obj
 0002:000014a0       ??_C@_0DD@BKHKOAMC@Unit?$DN?$CFd?5?$FL?$DM?$CFd?$DO?5mode?5?$DN?5?$JII?$IM?u?$IO?$JO?$IK?T?$JA?$NN?$JC@ 00000001400134a0     CameraManager.obj
 0002:000014d8       ??_C@_0CF@DAOHGFKO@?$FL?$CFs?$FN?5?$DM?$CFd?$DO?5?$ID?$IC?$IB?$FL?$IDh?$II?Y?$IP?m?5?$FLMainMode?5?$DN@ 00000001400134d8     CameraManager.obj
 0002:00001500       ??_C@_0BJ@IBOABMPO@Unit?$DN?$CFd?5?$FL?$DM?$CFd?$DO?5mode?5?$DN?5?$CFd?$FN?$AA@ 0000000140013500     CameraManager.obj
 0002:0000151c       ??_C@_02JKCHPKAN@?$DP?$AN?$AA@ 000000014001351c     CameraManager.obj
 0002:00001520       ??_C@_0CG@LEOMCHEN@?$FL?$CFs?$FN?5?$IO?s?$JAM?$JD?$GA?$JF?$LG?5?$II?Y?$IP?m?5?$FL?$IJ?p?$IO?$NP?$IO?$LI?$JEs?3sen@ 0000000140013520     CameraManager.obj
 0002:00001548       ??_C@_0BL@JDLKKKHM@Unit?$DN?$CFd?5?$FL?$IJ?p?$IO?$NP?$IO?$LI?$JEs?3send?$DN?$CFs?$FN?$AA@ 0000000140013548     CameraManager.obj
 0002:00001564       ??_C@_02JLOFJADK@?$DO?$AN?$AA@ 0000000140013564     CameraManager.obj
 0002:00001568       ??_C@_0CJ@JDGLABOP@?$FL?$CFs?$FN?5?$IDJ?$ID?$IB?$ID?$IJ?$IDR?$ID?$JD?$IDg?$ID?$IN?$IB?$FL?$ID?$IL?$IJ?q?$JIH?5?$JA?Z?$JB?$LB@ 0000000140013568     CameraManager.obj
 0002:00001598       ??_C@_07ECGNPIMF@Unit?$DN?$CFd?$AA@ 0000000140013598     CameraManager.obj
 0002:000015a0       ??_C@_0BB@GAHEGPK@CAMCONTROL_ID_?$CFd?$AA@ 00000001400135a0     CameraManager.obj
 0002:000015b4       ??_C@_06DNKMJCIK@STATUS?$AA@ 00000001400135b4     CameraManager.obj
 0002:000015c0       ??_C@_0O@JFBLHKJN@CAMCONTROL_ID?$AA@ 00000001400135c0     CameraManager.obj
 0002:000015d0       ??_C@_01LIIJDEN@?$AN?$AA@  00000001400135d0     CameraManager.obj
 0002:000015d8       ??_C@_0CK@GIEIBDMP@?$FL?$CFs?$FN?5?$IO?s?$JAM?$JD?$GA?$JF?$LG?5?$II?Y?$IP?m?5?$FL?$IDR?$ID?$HN?$ID?$JD?$IDh?$JG?$LD?$IC?$LF@ 00000001400135d8     CameraManager.obj
 0002:00001608       ??_C@_0BP@IANJELGB@Unit?$DN?$CFd?5?$FL?$IDR?$ID?$HN?$ID?$JD?$IDh?$JG?$LD?$IC?$LF?3send?$DN?$CFs?$FN?$AA@ 0000000140013608     CameraManager.obj
 0002:00001628       ??_C@_02IPBLKABJ@?$CD?$AN?$AA@ 0000000140013628     CameraManager.obj
 0002:00001630       ??_C@_0CC@BOPAMMMK@?$FL?$CFs?$FN?5?$IO?s?$JAM?$JD?$GA?$JF?$LG?5?$II?Y?$IP?m?5?$FL?$JFs?$JG?$LO?3recv?$DN?$CFs@ 0000000140013630     CameraManager.obj
 0002:00001658       ??_C@_0BH@BOHNDLAA@Unit?$DN?$CFd?5?$FL?$JFs?$JG?$LO?3recv?$DN?$CFs?$FN?$AA@ 0000000140013658     CameraManager.obj
 0002:00001670       ??_C@_0CH@LDOGABLC@?$FL?$CFs?$FN?5232C?$IDI?$IB?$FL?$IDv?$ID?$JD?$IDG?$ID?$IJ?$IB?$FL?$CIerr_code@ 0000000140013670     CameraManager.obj
 0002:00001698       ??_C@_0BI@CKEBGGLK@Unit?$DN?$CFd?5?$FLerr_code?5?$DN?5?$CFd?$FN?$AA@ 0000000140013698     CameraManager.obj
 0002:000016b0       ??_C@_0BC@DMLODEI@?$FL?$CFs?$FN?5232C?$IDN?$ID?$IN?$IB?$FL?$IDY?$AA@ 00000001400136b0     CameraManager.obj
 0002:000016c8       ??_C@_0CD@KPEPHCJI@?$FL?$CFs?$FN?5232C?$IO?s?$JAM?$IDG?$ID?$IJ?$IB?$FL?$CIerr_code?5?$DN?5?$CF@ 00000001400136c8     CameraManager.obj
 0002:000016f0       ??_C@_0BH@NICPKMLH@?$FL?$CFs?$FN?5?$IDR?$ID?$HN?$ID?$JD?$IDh?$JB?$JH?$JAM?5?$FL?$CFs?$FN?$AA@ 00000001400136f0     CameraManager.obj
 0002:00001708       ??_C@_0CD@HIEJOAKE@?$FL?$CFs?$FN?5232C?$JB?$JH?$JAM?$IDG?$ID?$IJ?$IB?$FL?$CIerr_code?5?$DN?5?$CF@ 0000000140013708     CameraManager.obj
 0002:00001730       ??_C@_0BM@FIGMIBMD@?$FL?$CFs?$FN?5?$JD?$KO?$JDI?$IDp?$ID?$IJ?$ID?$IB?$IB?$FL?$ID?$FO?$IO?f?$JD?$LO?$IK?$KO?$JH?$LJ?$AA@ 0000000140013730     CameraManager.obj
 0002:00001750       ??_C@_07HACNMPDP@PARAM_O?$AA@ 0000000140013750     CameraManager.obj
 0002:00001758       ??_C@_07MAAADFOE@PARAM_U?$AA@ 0000000140013758     CameraManager.obj
 0002:00001760       ??_C@_07NJBLAEKF@PARAM_T?$AA@ 0000000140013760     CameraManager.obj
 0002:00001768       ??_C@_0BC@OBLLOIHN@?$FL?$CFs?$FN?5DB?$JA?Z?$JB?$LB?$IDG?$ID?$IJ?$IB?$FL?$AA@ 0000000140013768     CameraManager.obj
 0002:0000177c       ??_C@_06LCPJPOPK@SELECT?$AA@ 000000014001377c     CameraManager.obj
 0002:00001790       ??_C@_0FH@EIDBFEGM@?5?$IDJ?$ID?$IB?$ID?$IJPLG?$JC?$PM?$JE?$HL?$JH?$KG?0?5?$IDJ?$ID?$IB?$ID?$IJPLG?$JF?$KK?$IO?$PM?$JH@ 0000000140013790     CameraManager.obj
 0002:000017e8       ??_C@_0DD@NAPEIOOE@?5DummyIntval?0?5ExSyncIntval?0?5ExSy@ 00000001400137e8     CameraManager.obj
 0002:00001820       ??_C@_0GA@EENOPGEB@?0?5?$IDJ?$ID?$IB?$ID?$IJPLG?$JC?$PM?$JE?$HL?$JH?$KG_O?0?5?$IDJ?$ID?$IB?$ID?$IJPLG?$JF?$KK@ 0000000140013820     CameraManager.obj
 0002:00001880       ??_C@_0GA@MKNOFOIA@?0?5?$IDJ?$ID?$IB?$ID?$IJPLG?$JC?$PM?$JE?$HL?$JH?$KG_U?0?5?$IDJ?$ID?$IB?$ID?$IJPLG?$JF?$KK@ 0000000140013880     CameraManager.obj
 0002:000018e0       ??_C@_0GA@FFHIACGJ@?0?5?$IDJ?$ID?$IB?$ID?$IJPLG?$JC?$PM?$JE?$HL?$JH?$KG_T?0?5?$IDJ?$ID?$IB?$ID?$IJPLG?$JF?$KK@ 00000001400138e0     CameraManager.obj
 0002:00001940       ??_C@_06BIENBOJN@?5FROM?5?$AA@ 0000000140013940     CameraManager.obj
 0002:00001948       ??_C@_0N@GGEGHNOH@Unit?$DN?$CFd?5?$FL?$CFs?$FN?$AA@ 0000000140013948     CameraManager.obj
 0002:00001958       ??_C@_09FGGIBFIH@?5?$ID?$HL?$IB?$FL?$IDhID?$AA@ 0000000140013958     CameraManager.obj
 0002:00001968       ??_C@_0BE@FGHIENPG@M_CAMERA_LINKSWITCH?$AA@ 0000000140013968     CameraManager.obj
 0002:00001980       ??_C@_07HEBAGGGB@?5WHERE?5?$AA@ 0000000140013980     CameraManager.obj
 0002:00001988       ??_C@_0BA@GONOKMDO@?5?$IDX?$IDe?$IB?$FL?$ID?$FO?$IDX?5?$DN?51?$AA@ 0000000140013988     CameraManager.obj
 0002:00001998       ??_C@_0N@DOADGKLM@?5AND?5ID?5?$DN?5?$CFd?$AA@ 0000000140013998     CameraManager.obj
 0002:000019a8       ??_C@_0BB@JPAGEPII@?5ORDER?5BY?5ID?5ASC?$AA@ 00000001400139a8     CameraManager.obj
 0002:000019c0       ??_C@_0DF@JENNKOCI@?$FL?$CFs?$FN?5?$IDX?$IDC?$IDb?$ID?$GA?$ID?$HN?$IDX?$ID?$FO?5FPGA?$ID?$HL?$IB?$FL?$IDhID@ 00000001400139c0     CameraManager.obj
 0002:000019f8       ??_C@_0CO@ICNJDOAB@?$FL?$CFs?$FN?5?$IDX?$IDC?$IDb?$ID?$GA?$ID?$HN?$IDX?$ID?$FO?5FPGA?$ID?$HL?$IB?$FL?$IDhID@ 00000001400139f8     CameraManager.obj
 0002:00001a28       ??_C@_05ONOCOKEH@?$EA?$CF02X?$AA@ 0000000140013a28     CameraManager.obj
 0002:00001a30       ??_C@_0BM@JOJCNIDK@?$FL?$CFs?$FN?5?$JA?C?$JDI?$IDp?$ID?$IJ?$ID?$IB?$IB?$FL?$ID?$FO?$IO?f?$JD?$LO?$IK?$KO?$JH?$LJ?$AA@ 0000000140013a30     CameraManager.obj
 0002:00001a50       ??_C@_0BD@OLBABOEK@vector?$DMT?$DO?5too?5long?$AA@ 0000000140013a50     CameraManager.obj
 0002:00001a70       ??_7?$ThreadQueue@UCOMMON_QUE@@@KizuLib@@6B@ 0000000140013a70     CameraManager.obj
 0002:00001a80       ??_7CameraManager@@6B@     0000000140013a80     CameraManager.obj
 0002:00001a90       ??_C@_00CNPNBAHC@?$AA@     0000000140013a90     CameraManager.obj
 0002:00001a98       ??_C@_0CK@HLLKPGPJ@?$FLMainInctance?$FN?5?$IDX?$ID?$IM?$IDb?$IDhID?$IK?$IE?$IC?h?$JD?$JG?$IC@ 0000000140013a98     MainInctance.obj
 0002:00001ac8       ??_C@_07JJGJELFE@?$CFs_MAIN?$AA@ 0000000140013ac8     MainInctance.obj
 0002:00001ad0       ??_C@_07MLBKHFFD@NAME_?$CFd?$AA@ 0000000140013ad0     MainInctance.obj
 0002:00001ae0       ??_C@_0ED@FNHEDPGA@?$FLMainInctance?$FN?5?$JB?$LM?$ID?$IP?$IB?$FL?$IDN?$IDX?$ID?$IM?$IDb?$IDh?$IC@ 0000000140013ae0     MainInctance.obj
 0002:00001b28       ??_C@_0CD@LIDLHPDO@?$FLMainInctance?$FN?5?$IDX?$ID?$IM?$IDb?$IDh?$IKJ?$IOn?5?$FL0x?$CF@ 0000000140013b28     MainInctance.obj
 0002:00001b50       ??_C@_0CD@BCKHOIPN@?$FLMainInctance?$FN?5?$IDX?$ID?$IM?$IDb?$IDh?$IPI?$JH?$LJ?5?$FL0x?$CF@ 0000000140013b50     MainInctance.obj
 0002:00001b78       ??_C@_0DA@CBIECEKJ@?$FLMainInctance?$FN?5?$ID?$IB?$IDC?$ID?$JD?$ID?$IL?$IB?$FL?$IDv?$IC?$KJ?$IC?g?$JE@ 0000000140013b78     MainInctance.obj
 0002:00001bb0       ??_7MainInctance@@6B@      0000000140013bb0     MainInctance.obj
 0002:00001bc8       ??_7CTO_CAMERAApp@@6B@     0000000140013bc8     TO_CAMERA.obj
 0002:00001e50       ??_C@_0EB@BJBCCBO@?$IDA?$IDv?$ID?$IK?$IDP?$IB?$FL?$IDV?$ID?$IH?$ID?$JD?5?$IDE?$IDB?$IDU?$IB?$FL?$IDh?$IC?E?$JA?$LG?$JA@ 0000000140013e50     TO_CAMERA.obj
 0002:00001e98       ??_C@_0BB@LHGNNNMH@?$DM?$LG?R?W?X?$NN?$LI?$LN?$LC?$KP?A?$JD?$KO?$IN?l?$DO?$AA@ 0000000140013e98     TO_CAMERADlg.obj
 0002:00001eac       ??_C@_04MNFLMFEA@?5x64?$AA@ 0000000140013eac     TO_CAMERADlg.obj
 0002:00001eb8       ??_C@_0P@OLNAEDIL@?$IPd?$JHv?$IC?H?$IC?$KI?$JCm?$IC?g?$IC?$LJ?$AA@ 0000000140013eb8     TO_CAMERADlg.obj
 0002:00001ec8       ??_C@_0P@DIICHPAH@?$IPI?$JH?$LJ?$IC?$LF?$IC?$NM?$IC?$LH?$IC?$KJ?$IBH?$AA@ 0000000140013ec8     TO_CAMERADlg.obj
 0002:00001ed8       ??_C@_0N@IBJPGNDB@?$JF?B?$IC?$LG?$IC?i?$ID?$HL?$ID?$FO?$ID?$JD?$AA@ 0000000140013ed8     TO_CAMERADlg.obj
 0002:00001ee8       ??_C@_04LIFAFMCE@?$FL?$CFs?$FN?$AA@ 0000000140013ee8     TO_CAMERADlg.obj
 0002:00001ef0       ??_C@_08FAMEJMP@Japanese?$AA@ 0000000140013ef0     TO_CAMERADlg.obj
 0002:00001f00       ??_C@_0L@PKDNNNLP@?$ID?$FO?$IDX?$IDN?$ILN?$JD?$KO?$AA@ 0000000140013f00     TO_CAMERADlg.obj
 0002:00001f10       ??_C@_0CA@LDEDNKNJ@?$IKe?$IDv?$ID?$IN?$IDZ?$IDX?$IKJ?$IOn?$IP?$II?$JH?$JN?5?$IO?$MA?$INs?$JC?$IG?$IBE?$IBE?$IBE?$AA@ 0000000140013f10     TO_CAMERADlg.obj
 0002:00001f30       ??_C@_0L@KKHJJMDL@?$JBS?$ID?$IG?$IDj?$IDb?$IDg?$AA@ 0000000140013f30     TO_CAMERADlg.obj
 0002:00001f40       ??_C@_0BI@OPELDACC@?$IKe?$IDv?$ID?$IN?$IDZ?$IDX?$IKJ?$IOn?$IP?$II?$JH?$JN?5?$IK?$KO?$JH?$LJ?$AA@ 0000000140013f40     TO_CAMERADlg.obj
 0002:00001f58       ??_C@_0L@JAOAGPIM@?$ID?$FO?$IDX?$IDN?$IPI?$JH?$LJ?$AA@ 0000000140013f58     TO_CAMERADlg.obj
 0002:00001f70       ??_C@_0EO@NGNOKILM@?$FLmailslot?$FN?5?$IDp?$ID?$IJ?$ID?$IB?$IB?$FL?$ID?$FO?$JF?O?$INX?$JHv?$IL?$IB?5?$CIF@ 0000000140013f70     TO_CAMERADlg.obj
 0002:00001fc0       ??_C@_0EJ@EENKKKPP@?$FLmailslot?$FN?5?$IM?$JP?$IN?$LI?$JHp?$JA?$NN?$JC?h?$IDR?$ID?$HN?$ID?$JD?$IDh?5?$CIF@ 0000000140013fc0     TO_CAMERADlg.obj
 0002:0000200c       ??_C@_02BFICIOJL@ON?$AA@   000000014001400c     TO_CAMERADlg.obj
 0002:00002010       ??_C@_03MPPIHBHJ@OFF?$AA@  0000000140014010     TO_CAMERADlg.obj
 0002:00002018       ??_C@_0DN@KANLJAOJ@?$FLmailslot?$FN?5?$IDp?$ID?$IL?$IDX?$IPo?$JH?M?$JA?$NN?$JC?h?5?$CIFACT_@ 0000000140014018     TO_CAMERADlg.obj
 0002:00002060       ??_C@_0HM@MJGDIIAH@?$FLmailslot?$FN?5AGC?$JA?$NN?$JC?h?5?$CIFACT_TO_CAME@ 0000000140014060     TO_CAMERADlg.obj
 0002:000020e0       ??_C@_0FC@OMNCBNHA@?$FLmailslot?$FN?5?$IDR?$IDC?$ID?$IL?$JA?X?$JB?V?5?$CIFACT_TO_C@ 00000001400140e0     TO_CAMERADlg.obj
 0002:00002138       ??_C@_0DO@MPEDONMO@?$FLmailslot?$FN?5?$IM?$LL?$JII?$IM?u?$IO?$JO?$IK?T?$JG?b?$IC?$KC?$IN?$IH?$IC?m?$IC?$LJ?5@ 0000000140014138     TO_CAMERADlg.obj
 0002:00002180       ??_C@_0FO@EHNHOLO@?$FLmailslot?$FN?5?$INZ?$JA?$LD?$JHp?$JA?$NN?$JC?h?$IDR?$ID?$HN?$ID?$JD?$IDh?5?$CIF@ 0000000140014180     TO_CAMERADlg.obj
 0002:000021e0       ??_C@_0DO@IFFNCIAE@?$FLmailslot?$FN?5?$JEC?$II?S?$IDR?$ID?$HN?$ID?$JD?$IDh?$JB?$JH?$JAM?5?$CIFAC@ 00000001400141e0     TO_CAMERADlg.obj
 0002:00002220       ??_C@_0N@EIOKLDOC@?$FLEventNo?$DN?$CFd?$FN?$AA@ 0000000140014220     TO_CAMERADlg.obj
 0002:00002230       ??_C@_04DPNPJNCM@?$IN?$LH?$JD?$KO?$AA@ 0000000140014230     TO_CAMERADlg.obj
 0002:00002238       ??_C@_03KNKNDOHD@TTL?$AA@  0000000140014238     TO_CAMERADlg.obj
 0002:0000223c       ??_C@_04KMBMIGOG@?$JD?q?$JB?$IK?$AA@ 000000014001423c     TO_CAMERADlg.obj
 0002:00002244       ??_C@_04GEKLNBDG@?$JCP?$JB?$IK?$AA@ 0000000140014244     TO_CAMERADlg.obj
 0002:00002250       ??_C@_08GHNGDJED@?$LB?$KP?L?$NP?$LG?$LD?$NN?D?$AA@ 0000000140014250     TO_CAMERADlg.obj
 0002:00002260       ??_C@_08LHBMHOBC@?$MA?$NO?$LD?$NN?$LG?$LD?$NN?D?$AA@ 0000000140014260     TO_CAMERADlg.obj
 0002:0000226c       ??_C@_02HCPMAEIL@?$IB?$JL?$AA@ 000000014001426c     TO_CAMERADlg.obj
 0002:00002270       ??_C@_02FBPFADCC@?$IB?$HO?$AA@ 0000000140014270     TO_CAMERADlg.obj
 0002:00002278       ??_C@_09HANBOHDA@?$ID?$IJ?$IDC?$ID?$JDPLG?$AA@ 0000000140014278     TO_CAMERADlg.obj
 0002:00002284       ??_C@_06HLBCGPPI@?$JF?2?$INZ?$JA?$LD?$AA@ 0000000140014284     TO_CAMERADlg.obj
 0002:0000228c       ??_C@_06IONNKHLD@?$JH?$KA?$INZ?$JA?$LD?$AA@ 000000014001428c     TO_CAMERADlg.obj
 0002:00002298       ??_C@_0N@HDDPJPOF@?$IDe?$IDX?$IDg?$IDp?$ID?$IL?$IDX?$AA@ 0000000140014298     TO_CAMERADlg.obj
 0002:000022a8       ??_C@_0BC@KBDMBKEH@deque?$DMT?$DO?5too?5long?$AA@ 00000001400142a8     TO_CAMERADlg.obj
 0002:00002cd8       ??_7CComboBox@@6B@         0000000140014cd8     TO_CAMERADlg.obj
 0002:00002fe0       ??_7CListBox@@6B@          0000000140014fe0     TO_CAMERADlg.obj
 0002:000032f8       ??_7CTO_CAMERADlg@@6B@     00000001400152f8     TO_CAMERADlg.obj
 0002:00003620       ??_C@_03GEPAOBPJ@com?$AA@  0000000140015620     Kizu232C:Rs232cBase.obj
 0002:00003624       ??_C@_04KBOLILB@baud?$AA@  0000000140015624     Kizu232C:Rs232cBase.obj
 0002:0000362c       ??_C@_06CFGKCFEA@parity?$AA@ 000000014001562c     Kizu232C:Rs232cBase.obj
 0002:00003634       ??_C@_04PJOLNDGD@data?$AA@ 0000000140015634     Kizu232C:Rs232cBase.obj
 0002:0000363c       ??_C@_04PEGFANN@stop?$AA@  000000014001563c     Kizu232C:Rs232cBase.obj
 0002:00003644       ??_C@_02LBCDJBAJ@to?$AA@   0000000140015644     Kizu232C:Rs232cBase.obj
 0002:00003648       ??_C@_03CEAOJLEP@dtr?$AA@  0000000140015648     Kizu232C:Rs232cBase.obj
 0002:0000364c       ??_C@_03EIGHKCEN@rts?$AA@  000000014001564c     Kizu232C:Rs232cBase.obj
 0002:00003650       ??_C@_04FCAFLAPH@idsr?$AA@ 0000000140015650     Kizu232C:Rs232cBase.obj
 0002:00003658       ??_C@_04FMMGFKCK@octs?$AA@ 0000000140015658     Kizu232C:Rs232cBase.obj
 0002:00003660       ??_C@_0EG@OHOPFNJN@baud?$DN?$CFs?5parity?$DN?$CFs?5data?$DN?$CFs?5stop?$DN?$CF@ 0000000140015660     Kizu232C:Rs232cBase.obj
 0002:000036b0       ??_7Rs232cBase@Kizu232C@@6B@ 00000001400156b0     Kizu232C:Rs232cBase.obj
 0002:000036b8       ??_C@_0BC@EOODALEL@Unknown?5exception?$AA@ 00000001400156b8     KizuLibMFC:LogFileManager.obj
 0002:000036d0       ??_C@_08EPJLHIJG@bad?5cast?$AA@ 00000001400156d0     KizuLibMFC:LogFileManager.obj
 0002:000036dc       ??_C@_03GGEOLGBL@Log?$AA@  00000001400156dc     KizuLibMFC:LogFileManager.obj
 0002:000036e0       ??_C@_05JAKBALDA@?2Log?2?$AA@ 00000001400156e0     KizuLibMFC:LogFileManager.obj
 0002:000036e8       ??_C@_0BD@JKDABCKH@?$CFsbk_?$CFs_?$EA?$CFd_?$CFd?4log?$AA@ 00000001400156e8     KizuLibMFC:LogFileManager.obj
 0002:00003700       ??_C@_0M@OHPCIELA@?$CFs?$CFs_?$CFd?4log?$AA@ 0000000140015700     KizuLibMFC:LogFileManager.obj
 0002:00003710       ??_C@_0BC@HFKBPMM@?$CFsbk_?$CFs_?$EA0_?$CFd?4log?$AA@ 0000000140015710     KizuLibMFC:LogFileManager.obj
 0002:00003724       ??_C@_03OKNDJEIL@?$IB?$JM?5?$AA@ 0000000140015724     KizuLibMFC:LogFileManager.obj
 0002:00003728       ??_C@_0CI@PAHLFECP@?$CF04d?1?$CF02d?1?$CF02d?5?$CF02d?3?$CF02d?3?$CF02d?4?$CF0@ 0000000140015728     KizuLibMFC:LogFileManager.obj
 0002:00003750       ??_C@_0BP@NGGCGNCD@?$ID?$IN?$IDO?$IDL?$ID?$IF?$IB?$FL?$IDt?$ID?$IL?$CB?$CB?5?$ID?$IN?$IDO?$IN?m?$IP?$JM?$IM?$IP?$JA?$JE?$DN?$AA@ 0000000140015750     KizuLibMFC:LogFileManager.obj
 0002:00003770       ??_C@_0CK@EBANHHFD@?$CF04d?1?$CF02d?1?$CF02d?5?$CF02d?3?$CF02d?3?$CF02d?4?$CF0@ 0000000140015770     KizuLibMFC:LogFileManager.obj
 0002:000037a0       ??_C@_0P@EPGLBPPJ@notepad?4exe?5?$CFs?$AA@ 00000001400157a0     KizuLibMFC:LogFileManager.obj
 0002:000037b0       ??_C@_0BA@JFNIOLAK@string?5too?5long?$AA@ 00000001400157b0     KizuLibMFC:LogFileManager.obj
 0002:000037c8       ??_7?$ThreadQueue@D@KizuLib@@6B@ 00000001400157c8     KizuLibMFC:LogFileManager.obj
 0002:000037d8       ??_7?$basic_filebuf@DU?$char_traits@D@std@@@std@@6B@ 00000001400157d8     KizuLibMFC:LogFileManager.obj
 0002:00003850       ??_8?$basic_ofstream@DU?$char_traits@D@std@@@std@@7B@ 0000000140015850     KizuLibMFC:LogFileManager.obj
 0002:00003860       ??_7?$basic_ofstream@DU?$char_traits@D@std@@@std@@6B@ 0000000140015860     KizuLibMFC:LogFileManager.obj
 0002:00003870       ??_7LogFileManager@KizuLib@@6B@ 0000000140015870     KizuLibMFC:LogFileManager.obj
 0002:00003888       ??_7AutoLock@KizuLib@@6B@  0000000140015888     KizuLibMFC:LogFileManager.obj
 0002:00003898       ??_7bad_cast@std@@6B@      0000000140015898     KizuLibMFC:LogFileManager.obj
 0002:000038b0       ??_7exception@std@@6B@     00000001400158b0     KizuLibMFC:LogFileManager.obj
 0002:000038c8       ??_7WorkThread@KizuLib@@6B@ 00000001400158c8     KizuLib:WorkThread.obj
 0002:000038d8       ??_C@_0N@LKNIAFHA@?4?2KizuPc?4ini?$AA@ 00000001400158d8     KizuLib:KizuLib.obj
 0002:000038e8       ??_C@_04GDDBAMLE@PCID?$AA@ 00000001400158e8     KizuLib:KizuLib.obj
 0002:000038f0       ??_C@_06DFFPEDLC@COMMON?$AA@ 00000001400158f0     KizuLib:KizuLib.obj
 0002:000038f8       ??_C@_09OOMFBMLD@KS_SYSLOG?$AA@ 00000001400158f8     KizuLib:KizuLib.obj
 0002:00003908       ??_C@_0N@HGGMEBBH@M_STATUS_INF?$AA@ 0000000140015908     KizuLib:KizuFunction.obj
 0002:00003918       ??_C@_0BO@GMMDEJJG@?$FL?$CFs?$IP?$JB?$IN?$JO?$IC?$NN?$IO?$LI?$JEs?5ID?$DN?$CFd?5State?$DN?$CFd?$FN?$AA@ 0000000140015918     KizuLib:KizuFunction.obj
 0002:00003938       ??_C@_0CK@CFMCOJMF@UPDATE?5?$CFs?5SET?5?$IL?$EA?$IK?m?$IP?s?$JB?T?$DN?$CFd?5WHERE?5@ 0000000140015938     KizuLib:KizuFunction.obj
 0002:00003968       ??_C@_0CF@CCJAFHPH@?$FL?$CFs?$IP?$JB?$IN?$JO?$IC?$NN?$IO?$LI?$JEs?$CI2?$IJ?q?$JG?Z?$CJ?5ID?$DN?$CFd?5State@ 0000000140015968     KizuLib:KizuFunction.obj
 0002:00003990       ??_C@_08JAEMHIPK@M_PC_INF?$AA@ 0000000140015990     KizuLib:KizuPcInfManager.obj
 0002:000039a0       ??_C@_0M@DHHFGOOP@M_PC_MASTER?$AA@ 00000001400159a0     KizuLib:KizuPcInfManager.obj
 0002:000039b0       ??_C@_0HH@GJHMDKGF@SELECT?5i?4PCKIND?0?5m?4PC?$JG?$LM?0?5m?4PCID?0@ 00000001400159b0     KizuLib:KizuPcInfManager.obj
 0002:00003a30       ??_7KizuPcInfManager@KizuLib@@6B@ 0000000140015a30     KizuLib:KizuPcInfManager.obj
 0002:00003a38       ??_C@_0BB@KIGMDFGF@?2?2?$CFs?2mailslot?2?$CFs?$AA@ 0000000140015a38     KizuLib:MailSlotManager.obj
 0002:00003a50       ??_C@_0BA@LCOIGNFA@?2?2?4?2mailslot?2?$CFs?$AA@ 0000000140015a50     KizuLib:MailSlotManager.obj
 0002:00003a68       ??_7MailSlotManager@KizuLib@@6BICommunityAsync@1@@ 0000000140015a68     KizuLib:MailSlotManager.obj
 0002:00003a90       ??_7MailSlotManager@KizuLib@@6BICommunity@1@@ 0000000140015a90     KizuLib:MailSlotManager.obj
 0002:00003aa8       ??_C@_08NOHFILKB@ODBCNAME?$AA@ 0000000140015aa8     KizuODBC:OdbcBase.obj
 0002:00003ab4       ??_C@_06IDCNLAJG@USERID?$AA@ 0000000140015ab4     KizuODBC:OdbcBase.obj
 0002:00003ac0       ??_C@_08KENNMKEI@PASSWORD?$AA@ 0000000140015ac0     KizuODBC:OdbcBase.obj
 0002:00003ad8       ??_7OdbcBase@KizuODBC@@6B@ 0000000140015ad8     KizuODBC:OdbcBase.obj
 0002:00003ae8       ??_7OdbcEnv@KizuODBC@@6B@  0000000140015ae8     KizuODBC:OdbcEnv.obj
 0002:00003af0       ??_C@_02LFGCCOHG@DB?$AA@   0000000140015af0     KizuODBC:OdbcManager.obj
 0002:00003b00       ??_7OdbcManager@KizuODBC@@6B@ 0000000140015b00     KizuODBC:OdbcManager.obj
 0002:00003cc0       __real@3feccccccccccccd    0000000140015cc0     CameraManager.obj
 0002:00003cc8       __real@3ff0000000000000    0000000140015cc8     CameraManager.obj
 0002:00003cd0       __real@4059000000000000    0000000140015cd0     TO_CAMERADlg.obj
 0002:00003ce0       __xmm@000003fa000003f7000003f4000003f1 0000000140015ce0     TO_CAMERADlg.obj
 0002:00003cf0       __xmm@00000404000004030000040200000401 0000000140015cf0     TO_CAMERADlg.obj
 0002:00003d00       __xmm@00000408000004070000040600000405 0000000140015d00     TO_CAMERADlg.obj
 0002:00003d10       __xmm@0000040c0000040b0000040a00000409 0000000140015d10     TO_CAMERADlg.obj
 0002:00003d20       __xmm@000004100000040f0000040e0000040d 0000000140015d20     TO_CAMERADlg.obj
 0002:00003d30       __xmm@00000458000004560000045300000452 0000000140015d30     TO_CAMERADlg.obj
 0002:00003d40       __xmm@00000459000004570000045500000454 0000000140015d40     TO_CAMERADlg.obj
 0002:00003d50       __xmm@000004620000045f0000045c0000045a 0000000140015d50     TO_CAMERADlg.obj
 0002:00003d60       __xmm@000004630000046000000400000003fd 0000000140015d60     TO_CAMERADlg.obj
 0002:00003d70       __xmm@00000464000004610000045e0000045b 0000000140015d70     TO_CAMERADlg.obj
 0002:00003d80       __xmm@0000046e0000046b0000046800000465 0000000140015d80     TO_CAMERADlg.obj
 0002:00003d90       __xmm@0000046f0000046c0000046900000466 0000000140015d90     TO_CAMERADlg.obj
 0002:00003da0       __xmm@000004700000046d0000046a00000467 0000000140015da0     TO_CAMERADlg.obj
 0002:00003db0       __xmm@0000047a000004770000047400000471 0000000140015db0     TO_CAMERADlg.obj
 0002:00003dc0       __xmm@0000047b000004780000047500000472 0000000140015dc0     TO_CAMERADlg.obj
 0002:00003dd0       __xmm@0000047c000004790000047600000473 0000000140015dd0     TO_CAMERADlg.obj
 0002:00003de0       __xmm@000004920000048b000004840000047d 0000000140015de0     TO_CAMERADlg.obj
 0002:00003df0       __xmm@000004960000048f0000048800000481 0000000140015df0     TO_CAMERADlg.obj
 0002:00003e00       __xmm@00000497000004900000048900000482 0000000140015e00     TO_CAMERADlg.obj
 0002:00003e10       __xmm@00000498000004910000048a00000483 0000000140015e10     TO_CAMERADlg.obj
 0002:00003e20       __xmm@000004ae000004a7000004a000000499 0000000140015e20     TO_CAMERADlg.obj
 0002:00003e30       __xmm@000004b2000004ab000004a40000049d 0000000140015e30     TO_CAMERADlg.obj
 0002:00003e40       __xmm@000004b3000004ac000004a50000049e 0000000140015e40     TO_CAMERADlg.obj
 0002:00003e50       __xmm@000004b4000004ad000004a60000049f 0000000140015e50     TO_CAMERADlg.obj
 0002:00003e60       __xmm@000004ca000004c3000004bc000004b5 0000000140015e60     TO_CAMERADlg.obj
 0002:00003e70       __xmm@000004ce000004c7000004c0000004b9 0000000140015e70     TO_CAMERADlg.obj
 0002:00003e80       __xmm@000004d0000004c9000004c2000004bb 0000000140015e80     TO_CAMERADlg.obj
 0002:00003e90       __xmm@000004e6000004df000004d8000004d1 0000000140015e90     TO_CAMERADlg.obj
 0002:00003ea0       __xmm@000004ea000004e3000004dc000004d5 0000000140015ea0     TO_CAMERADlg.obj
 0002:00003eb0       __xmm@000004ec000004e5000004de000004d7 0000000140015eb0     TO_CAMERADlg.obj
 0002:00004370       _load_config_used          0000000140016370     msvcrt:loadcfg.obj
 0002:00004408       _tls_used                  0000000140016408     msvcrt:tlssup.obj
 0002:00004430       ??_R4type_info@@6B@        0000000140016430     msvcrt:std_type_info_static.obj
 0002:00004458       ??_R3type_info@@8          0000000140016458     msvcrt:std_type_info_static.obj
 0002:00004470       ??_R2type_info@@8          0000000140016470     msvcrt:std_type_info_static.obj
 0002:00004480       ??_R1A@?0A@EA@type_info@@8 0000000140016480     msvcrt:std_type_info_static.obj
 0002:000044a8       ??_R2?$ThreadQueue@UCOMMON_QUE@@@KizuLib@@8 00000001400164a8     CameraManager.obj
 0002:000044b8       ??_R2CameraManager@@8      00000001400164b8     CameraManager.obj
 0002:000044d0       ??_R2WorkThread@KizuLib@@8 00000001400164d0     CameraManager.obj
 0002:000044e0       ??_R1A@?0A@EA@?$ThreadQueue@UCOMMON_QUE@@@KizuLib@@8 00000001400164e0     CameraManager.obj
 0002:00004508       ??_R1A@?0A@EA@CameraManager@@8 0000000140016508     CameraManager.obj
 0002:00004530       ??_R1A@?0A@EA@WorkThread@KizuLib@@8 0000000140016530     CameraManager.obj
 0002:00004558       ??_R3?$ThreadQueue@UCOMMON_QUE@@@KizuLib@@8 0000000140016558     CameraManager.obj
 0002:00004570       ??_R3WorkThread@KizuLib@@8 0000000140016570     CameraManager.obj
 0002:00004588       ??_R3CameraManager@@8      0000000140016588     CameraManager.obj
 0002:000045a0       ??_R4?$ThreadQueue@UCOMMON_QUE@@@KizuLib@@6B@ 00000001400165a0     CameraManager.obj
 0002:000045c8       ??_R4CameraManager@@6B@    00000001400165c8     CameraManager.obj
 0002:000045f0       ??_R2MainInctance@@8       00000001400165f0     MainInctance.obj
 0002:00004608       ??_R1A@?0A@EA@MainInctance@@8 0000000140016608     MainInctance.obj
 0002:00004630       ??_R3MainInctance@@8       0000000140016630     MainInctance.obj
 0002:00004648       ??_R4MainInctance@@6B@     0000000140016648     MainInctance.obj
 0002:00004670       ??_R2CTO_CAMERAApp@@8      0000000140016670     TO_CAMERA.obj
 0002:000046a0       ??_R2CWinApp@@8            00000001400166a0     TO_CAMERA.obj
 0002:000046c8       ??_R2CWinThread@@8         00000001400166c8     TO_CAMERA.obj
 0002:000046e8       ??_R1A@?0A@EA@CTO_CAMERAApp@@8 00000001400166e8     TO_CAMERA.obj
 0002:00004710       ??_R1A@?0A@EA@CWinApp@@8   0000000140016710     TO_CAMERA.obj
 0002:00004738       ??_R2CObject@@8            0000000140016738     TO_CAMERA.obj
 0002:00004748       ??_R3CObject@@8            0000000140016748     TO_CAMERA.obj
 0002:00004760       ??_R1A@?0A@EA@CObject@@8   0000000140016760     TO_CAMERA.obj
 0002:00004788       ??_R2CCmdTarget@@8         0000000140016788     TO_CAMERA.obj
 0002:000047a0       ??_R3CCmdTarget@@8         00000001400167a0     TO_CAMERA.obj
 0002:000047b8       ??_R1A@?0A@EA@CCmdTarget@@8 00000001400167b8     TO_CAMERA.obj
 0002:000047e0       ??_R1A@?0A@EA@CWinThread@@8 00000001400167e0     TO_CAMERA.obj
 0002:00004808       ??_R3CWinApp@@8            0000000140016808     TO_CAMERA.obj
 0002:00004820       ??_R3CWinThread@@8         0000000140016820     TO_CAMERA.obj
 0002:00004838       ??_R3CTO_CAMERAApp@@8      0000000140016838     TO_CAMERA.obj
 0002:00004850       ??_R4CTO_CAMERAApp@@6B@    0000000140016850     TO_CAMERA.obj
 0002:00004878       ??_R2CTO_CAMERADlg@@8      0000000140016878     TO_CAMERADlg.obj
 0002:000048a8       ??_R2CDialog@@8            00000001400168a8     TO_CAMERADlg.obj
 0002:000048d0       ??_R3CDialog@@8            00000001400168d0     TO_CAMERADlg.obj
 0002:000048e8       ??_R1A@?0A@EA@CDialog@@8   00000001400168e8     TO_CAMERADlg.obj
 0002:00004910       ??_R1A@?0A@EA@CTO_CAMERADlg@@8 0000000140016910     TO_CAMERADlg.obj
 0002:00004938       ??_R3CTO_CAMERADlg@@8      0000000140016938     TO_CAMERADlg.obj
 0002:00004950       ??_R4CTO_CAMERADlg@@6B@    0000000140016950     TO_CAMERADlg.obj
 0002:00004978       ??_R1A@?0A@EA@CComboBox@@8 0000000140016978     TO_CAMERADlg.obj
 0002:000049a0       ??_R2CComboBox@@8          00000001400169a0     TO_CAMERADlg.obj
 0002:000049c8       ??_R3CComboBox@@8          00000001400169c8     TO_CAMERADlg.obj
 0002:000049e0       ??_R4CComboBox@@6B@        00000001400169e0     TO_CAMERADlg.obj
 0002:00004a08       ??_R1A@?0A@EA@CListBox@@8  0000000140016a08     TO_CAMERADlg.obj
 0002:00004a30       ??_R2CWnd@@8               0000000140016a30     TO_CAMERADlg.obj
 0002:00004a50       ??_R3CWnd@@8               0000000140016a50     TO_CAMERADlg.obj
 0002:00004a68       ??_R1A@?0A@EA@CWnd@@8      0000000140016a68     TO_CAMERADlg.obj
 0002:00004a90       ??_R2CListBox@@8           0000000140016a90     TO_CAMERADlg.obj
 0002:00004ab8       ??_R3CListBox@@8           0000000140016ab8     TO_CAMERADlg.obj
 0002:00004ad0       ??_R4CListBox@@6B@         0000000140016ad0     TO_CAMERADlg.obj
 0002:00004af8       ??_R2Rs232cBase@Kizu232C@@8 0000000140016af8     Kizu232C:Rs232cBase.obj
 0002:00004b08       ??_R1A@?0A@EA@Rs232cBase@Kizu232C@@8 0000000140016b08     Kizu232C:Rs232cBase.obj
 0002:00004b30       ??_R3Rs232cBase@Kizu232C@@8 0000000140016b30     Kizu232C:Rs232cBase.obj
 0002:00004b48       ??_R4Rs232cBase@Kizu232C@@6B@ 0000000140016b48     Kizu232C:Rs232cBase.obj
 0002:00004b70       ??_R2?$ThreadQueue@D@KizuLib@@8 0000000140016b70     KizuLibMFC:LogFileManager.obj
 0002:00004b80       ??_R2LogFileManager@KizuLib@@8 0000000140016b80     KizuLibMFC:LogFileManager.obj
 0002:00004b98       ??_R2AutoLock@KizuLib@@8   0000000140016b98     KizuLibMFC:LogFileManager.obj
 0002:00004ba8       ??_R2bad_cast@std@@8       0000000140016ba8     KizuLibMFC:LogFileManager.obj
 0002:00004bc0       ??_R2?$basic_ofstream@DU?$char_traits@D@std@@@std@@8 0000000140016bc0     KizuLibMFC:LogFileManager.obj
 0002:00004bf0       ??_R2?$basic_ostream@DU?$char_traits@D@std@@@std@@8 0000000140016bf0     KizuLibMFC:LogFileManager.obj
 0002:00004c18       ??_R2?$basic_ios@DU?$char_traits@D@std@@@std@@8 0000000140016c18     KizuLibMFC:LogFileManager.obj
 0002:00004c38       ??_R2ios_base@std@@8       0000000140016c38     KizuLibMFC:LogFileManager.obj
 0002:00004c50       ??_R2?$_Iosb@H@std@@8      0000000140016c50     KizuLibMFC:LogFileManager.obj
 0002:00004c60       ??_R2?$basic_filebuf@DU?$char_traits@D@std@@@std@@8 0000000140016c60     KizuLibMFC:LogFileManager.obj
 0002:00004c78       ??_R2?$basic_streambuf@DU?$char_traits@D@std@@@std@@8 0000000140016c78     KizuLibMFC:LogFileManager.obj
 0002:00004c88       ??_R2exception@std@@8      0000000140016c88     KizuLibMFC:LogFileManager.obj
 0002:00004c98       ??_R1A@?0A@EA@?$ThreadQueue@D@KizuLib@@8 0000000140016c98     KizuLibMFC:LogFileManager.obj
 0002:00004cc0       ??_R1A@?0A@EA@LogFileManager@KizuLib@@8 0000000140016cc0     KizuLibMFC:LogFileManager.obj
 0002:00004ce8       ??_R1A@?0A@EA@AutoLock@KizuLib@@8 0000000140016ce8     KizuLibMFC:LogFileManager.obj
 0002:00004d10       ??_R1A@?0A@EA@bad_cast@std@@8 0000000140016d10     KizuLibMFC:LogFileManager.obj
 0002:00004d38       ??_R1A@?0A@EA@?$basic_ofstream@DU?$char_traits@D@std@@@std@@8 0000000140016d38     KizuLibMFC:LogFileManager.obj
 0002:00004d60       ??_R17A@3EA@?$_Iosb@H@std@@8 0000000140016d60     KizuLibMFC:LogFileManager.obj
 0002:00004d88       ??_R1A@A@3EA@ios_base@std@@8 0000000140016d88     KizuLibMFC:LogFileManager.obj
 0002:00004db0       ??_R1A@A@3FA@?$basic_ios@DU?$char_traits@D@std@@@std@@8 0000000140016db0     KizuLibMFC:LogFileManager.obj
 0002:00004dd8       ??_R1A@?0A@EA@?$basic_ostream@DU?$char_traits@D@std@@@std@@8 0000000140016dd8     KizuLibMFC:LogFileManager.obj
 0002:00004e00       ??_R1A@?0A@EA@?$basic_ios@DU?$char_traits@D@std@@@std@@8 0000000140016e00     KizuLibMFC:LogFileManager.obj
 0002:00004e28       ??_R17?0A@EA@?$_Iosb@H@std@@8 0000000140016e28     KizuLibMFC:LogFileManager.obj
 0002:00004e50       ??_R1A@?0A@EA@ios_base@std@@8 0000000140016e50     KizuLibMFC:LogFileManager.obj
 0002:00004e78       ??_R1A@?0A@EA@?$_Iosb@H@std@@8 0000000140016e78     KizuLibMFC:LogFileManager.obj
 0002:00004ea0       ??_R1A@?0A@EA@?$basic_filebuf@DU?$char_traits@D@std@@@std@@8 0000000140016ea0     KizuLibMFC:LogFileManager.obj
 0002:00004ec8       ??_R1A@?0A@EA@?$basic_streambuf@DU?$char_traits@D@std@@@std@@8 0000000140016ec8     KizuLibMFC:LogFileManager.obj
 0002:00004ef0       ??_R1A@?0A@EA@exception@std@@8 0000000140016ef0     KizuLibMFC:LogFileManager.obj
 0002:00004f18       ??_R3?$ThreadQueue@D@KizuLib@@8 0000000140016f18     KizuLibMFC:LogFileManager.obj
 0002:00004f30       ??_R3LogFileManager@KizuLib@@8 0000000140016f30     KizuLibMFC:LogFileManager.obj
 0002:00004f48       ??_R3AutoLock@KizuLib@@8   0000000140016f48     KizuLibMFC:LogFileManager.obj
 0002:00004f60       ??_R3bad_cast@std@@8       0000000140016f60     KizuLibMFC:LogFileManager.obj
 0002:00004f78       ??_R3?$basic_ostream@DU?$char_traits@D@std@@@std@@8 0000000140016f78     KizuLibMFC:LogFileManager.obj
 0002:00004f90       ??_R3ios_base@std@@8       0000000140016f90     KizuLibMFC:LogFileManager.obj
 0002:00004fa8       ??_R3?$_Iosb@H@std@@8      0000000140016fa8     KizuLibMFC:LogFileManager.obj
 0002:00004fc0       ??_R3?$basic_ios@DU?$char_traits@D@std@@@std@@8 0000000140016fc0     KizuLibMFC:LogFileManager.obj
 0002:00004fd8       ??_R3?$basic_ofstream@DU?$char_traits@D@std@@@std@@8 0000000140016fd8     KizuLibMFC:LogFileManager.obj
 0002:00004ff0       ??_R3?$basic_streambuf@DU?$char_traits@D@std@@@std@@8 0000000140016ff0     KizuLibMFC:LogFileManager.obj
 0002:00005008       ??_R3?$basic_filebuf@DU?$char_traits@D@std@@@std@@8 0000000140017008     KizuLibMFC:LogFileManager.obj
 0002:00005020       ??_R3exception@std@@8      0000000140017020     KizuLibMFC:LogFileManager.obj
 0002:00005038       ??_R4?$ThreadQueue@D@KizuLib@@6B@ 0000000140017038     KizuLibMFC:LogFileManager.obj
 0002:00005060       ??_R4LogFileManager@KizuLib@@6B@ 0000000140017060     KizuLibMFC:LogFileManager.obj
 0002:00005088       ??_R4AutoLock@KizuLib@@6B@ 0000000140017088     KizuLibMFC:LogFileManager.obj
 0002:000050b0       ??_R4bad_cast@std@@6B@     00000001400170b0     KizuLibMFC:LogFileManager.obj
 0002:000050d8       ??_R4?$basic_ofstream@DU?$char_traits@D@std@@@std@@6B@ 00000001400170d8     KizuLibMFC:LogFileManager.obj
 0002:00005100       ??_R4?$basic_filebuf@DU?$char_traits@D@std@@@std@@6B@ 0000000140017100     KizuLibMFC:LogFileManager.obj
 0002:00005128       ??_R4exception@std@@6B@    0000000140017128     KizuLibMFC:LogFileManager.obj
 0002:00005150       ??_R4WorkThread@KizuLib@@6B@ 0000000140017150     KizuLib:WorkThread.obj
 0002:00005178       ??_R2KizuPcInfManager@KizuLib@@8 0000000140017178     KizuLib:KizuPcInfManager.obj
 0002:00005188       ??_R1A@?0A@EA@KizuPcInfManager@KizuLib@@8 0000000140017188     KizuLib:KizuPcInfManager.obj
 0002:000051b0       ??_R3KizuPcInfManager@KizuLib@@8 00000001400171b0     KizuLib:KizuPcInfManager.obj
 0002:000051c8       ??_R4KizuPcInfManager@KizuLib@@6B@ 00000001400171c8     KizuLib:KizuPcInfManager.obj
 0002:000051f0       ??_R2MailSlotManager@KizuLib@@8 00000001400171f0     KizuLib:MailSlotManager.obj
 0002:00005210       ??_R2ICommunityAsync@KizuLib@@8 0000000140017210     KizuLib:MailSlotManager.obj
 0002:00005220       ??_R2ICommunity@KizuLib@@8 0000000140017220     KizuLib:MailSlotManager.obj
 0002:00005230       ??_R17?0A@EA@ICommunityAsync@KizuLib@@8 0000000140017230     KizuLib:MailSlotManager.obj
 0002:00005258       ??_R1A@?0A@EA@MailSlotManager@KizuLib@@8 0000000140017258     KizuLib:MailSlotManager.obj
 0002:00005280       ??_R1A@?0A@EA@ICommunityAsync@KizuLib@@8 0000000140017280     KizuLib:MailSlotManager.obj
 0002:000052a8       ??_R1A@?0A@EA@ICommunity@KizuLib@@8 00000001400172a8     KizuLib:MailSlotManager.obj
 0002:000052d0       ??_R3MailSlotManager@KizuLib@@8 00000001400172d0     KizuLib:MailSlotManager.obj
 0002:000052e8       ??_R3ICommunityAsync@KizuLib@@8 00000001400172e8     KizuLib:MailSlotManager.obj
 0002:00005300       ??_R3ICommunity@KizuLib@@8 0000000140017300     KizuLib:MailSlotManager.obj
 0002:00005318       ??_R4MailSlotManager@KizuLib@@6BICommunityAsync@1@@ 0000000140017318     KizuLib:MailSlotManager.obj
 0002:00005340       ??_R4MailSlotManager@KizuLib@@6BICommunity@1@@ 0000000140017340     KizuLib:MailSlotManager.obj
 0002:00005368       ??_R2OdbcBase@KizuODBC@@8  0000000140017368     KizuODBC:OdbcBase.obj
 0002:00005378       ??_R1A@?0A@EA@OdbcBase@KizuODBC@@8 0000000140017378     KizuODBC:OdbcBase.obj
 0002:000053a0       ??_R3OdbcBase@KizuODBC@@8  00000001400173a0     KizuODBC:OdbcBase.obj
 0002:000053b8       ??_R4OdbcBase@KizuODBC@@6B@ 00000001400173b8     KizuODBC:OdbcBase.obj
 0002:000053e0       ??_R2OdbcEnv@KizuODBC@@8   00000001400173e0     KizuODBC:OdbcEnv.obj
 0002:000053f0       ??_R1A@?0A@EA@OdbcEnv@KizuODBC@@8 00000001400173f0     KizuODBC:OdbcEnv.obj
 0002:00005418       ??_R3OdbcEnv@KizuODBC@@8   0000000140017418     KizuODBC:OdbcEnv.obj
 0002:00005430       ??_R4OdbcEnv@KizuODBC@@6B@ 0000000140017430     KizuODBC:OdbcEnv.obj
 0002:00005458       ??_R2OdbcManager@KizuODBC@@8 0000000140017458     KizuODBC:OdbcManager.obj
 0002:00005468       ??_R1A@?0A@EA@OdbcManager@KizuODBC@@8 0000000140017468     KizuODBC:OdbcManager.obj
 0002:00005490       ??_R3OdbcManager@KizuODBC@@8 0000000140017490     KizuODBC:OdbcManager.obj
 0002:000054a8       ??_R4OdbcManager@KizuODBC@@6B@ 00000001400174a8     KizuODBC:OdbcManager.obj
 0002:000058d8       __rtc_iaa                  00000001400178d8     msvcrt:_initsect_.obj
 0002:000058e0       __rtc_izz                  00000001400178e0     msvcrt:_initsect_.obj
 0002:000058e8       __rtc_taa                  00000001400178e8     msvcrt:_initsect_.obj
 0002:000058f0       __rtc_tzz                  00000001400178f0     msvcrt:_initsect_.obj
 0002:000076a0       _CTA1H                     00000001400196a0     Kizu232C:Rs232cBase.obj
 0002:000076b0       _CT??_R0H@84               00000001400196b0     Kizu232C:Rs232cBase.obj
 0002:000076d8       _TI1H                      00000001400196d8     Kizu232C:Rs232cBase.obj
 0002:000076f8       _CTA2?AVbad_cast@std@@     00000001400196f8     KizuLibMFC:LogFileManager.obj
 0002:00007710       _CT??_R0?AVbad_cast@std@@@8??0bad_cast@std@@QEAA@AEBV01@@Z24 0000000140019710     KizuLibMFC:LogFileManager.obj
 0002:00007738       _TI2?AVbad_cast@std@@      0000000140019738     KizuLibMFC:LogFileManager.obj
 0002:00007758       _CT??_R0?AVexception@std@@@8??0exception@std@@QEAA@AEBV01@@Z24 0000000140019758     KizuLibMFC:LogFileManager.obj
 0002:00007780       __IMPORT_DESCRIPTOR_ODBC32 0000000140019780     KizuODBC:ODBC32.dll
 0002:00007794       __IMPORT_DESCRIPTOR_mfc140 0000000140019794     mfc140:mfc140.dll
 0002:000077a8       __IMPORT_DESCRIPTOR_KERNEL32 00000001400197a8     kernel32:KERNEL32.dll
 0002:000077bc       __IMPORT_DESCRIPTOR_USER32 00000001400197bc     user32:USER32.dll
 0002:000077d0       __IMPORT_DESCRIPTOR_COMCTL32 00000001400197d0     comctl32:COMCTL32.dll
 0002:000077e4       __IMPORT_DESCRIPTOR_MSVCP140 00000001400197e4     msvcprt:MSVCP140.dll
 0002:000077f8       __IMPORT_DESCRIPTOR_VCRUNTIME140 00000001400197f8     vcruntime:VCRUNTIME140.dll
 0002:0000780c       __IMPORT_DESCRIPTOR_api-ms-win-crt-runtime-l1-1-0 000000014001980c     ucrt:api-ms-win-crt-runtime-l1-1-0.dll
 0002:00007820       __IMPORT_DESCRIPTOR_api-ms-win-crt-stdio-l1-1-0 0000000140019820     ucrt:api-ms-win-crt-stdio-l1-1-0.dll
 0002:00007834       __IMPORT_DESCRIPTOR_api-ms-win-crt-heap-l1-1-0 0000000140019834     ucrt:api-ms-win-crt-heap-l1-1-0.dll
 0002:00007848       __IMPORT_DESCRIPTOR_api-ms-win-crt-locale-l1-1-0 0000000140019848     ucrt:api-ms-win-crt-locale-l1-1-0.dll
 0002:0000785c       __IMPORT_DESCRIPTOR_api-ms-win-crt-filesystem-l1-1-0 000000014001985c     ucrt:api-ms-win-crt-filesystem-l1-1-0.dll
 0002:00007870       __IMPORT_DESCRIPTOR_api-ms-win-crt-math-l1-1-0 0000000140019870     ucrt:api-ms-win-crt-math-l1-1-0.dll
 0002:00007884       __NULL_IMPORT_DESCRIPTOR   0000000140019884     KizuLib:WS2_32.dll
 0003:00000000       _Init_global_epoch         000000014001c000     msvcrt:thread_safe_statics.obj
 0003:00000004       __scrt_native_dllmain_reason 000000014001c004     msvcrt:utility.obj
 0003:00000008       __security_cookie          000000014001c008     msvcrt:gs_cookie.obj
 0003:00000010       __security_cookie_complement 000000014001c010     msvcrt:gs_cookie.obj
 0003:00000018       __isa_available            000000014001c018     msvcrt:_cpu_disp_.obj
 0003:0000001c       __isa_enabled              000000014001c01c     msvcrt:_cpu_disp_.obj
 0003:00000020       __memcpy_nt_iters          000000014001c020     msvcrt:_cpu_disp_.obj
 0003:00000028       __scrt_default_matherr     000000014001c028     msvcrt:matherr.obj
 0003:00000030       __scrt_ucrt_dll_is_in_use  000000014001c030     msvcrt:ucrt_stubs.obj
 0003:00000040       _fltused                   000000014001c040     msvcrt:dllsupp.obj
 0003:00000050       ??_R0?AVtype_info@@@8      000000014001c050     msvcrt:std_type_info_static.obj
 0003:00000070       ??_R0?AV?$ThreadQueue@UCOMMON_QUE@@@KizuLib@@@8 000000014001c070     CameraManager.obj
 0003:000000b0       ??_R0?AVWorkThread@KizuLib@@@8 000000014001c0b0     CameraManager.obj
 0003:000000e0       ??_R0?AVCameraManager@@@8  000000014001c0e0     CameraManager.obj
 0003:00000108       ??_R0H@8                   000000014001c108     CameraManager.obj
 0003:00000120       ??_R0?AVMainInctance@@@8   000000014001c120     MainInctance.obj
 0003:00000148       ??_R0?AVCCmdTarget@@@8     000000014001c148     TO_CAMERA.obj
 0003:00000170       ??_R0?AVCObject@@@8        000000014001c170     TO_CAMERA.obj
 0003:00000190       ??_R0?AVCWinApp@@@8        000000014001c190     TO_CAMERA.obj
 0003:000001b0       ??_R0?AVCWinThread@@@8     000000014001c1b0     TO_CAMERA.obj
 0003:000001d8       ??_R0?AVCTO_CAMERAApp@@@8  000000014001c1d8     TO_CAMERA.obj
 0003:00000200       ??_R0?AVCDialog@@@8        000000014001c200     TO_CAMERADlg.obj
 0003:00000220       ??_R0?AVCTO_CAMERADlg@@@8  000000014001c220     TO_CAMERADlg.obj
 0003:00000248       ??_R0?AVCComboBox@@@8      000000014001c248     TO_CAMERADlg.obj
 0003:00000268       ??_R0?AVCListBox@@@8       000000014001c268     TO_CAMERADlg.obj
 0003:00000288       ??_R0?AVCWnd@@@8           000000014001c288     TO_CAMERADlg.obj
 0003:000002a8       ??_R0?AVRs232cBase@Kizu232C@@@8 000000014001c2a8     Kizu232C:Rs232cBase.obj
 0003:000002d8       ??_R0?AV?$ThreadQueue@D@KizuLib@@@8 000000014001c2d8     KizuLibMFC:LogFileManager.obj
 0003:00000308       ??_R0?AVLogFileManager@KizuLib@@@8 000000014001c308     KizuLibMFC:LogFileManager.obj
 0003:00000338       ??_R0?AVAutoLock@KizuLib@@@8 000000014001c338     KizuLibMFC:LogFileManager.obj
 0003:00000360       ??_R0?AV?$basic_ostream@DU?$char_traits@D@std@@@std@@@8 000000014001c360     KizuLibMFC:LogFileManager.obj
 0003:000003a8       ??_R0?AVios_base@std@@@8   000000014001c3a8     KizuLibMFC:LogFileManager.obj
 0003:000003d0       ??_R0?AV?$_Iosb@H@std@@@8  000000014001c3d0     KizuLibMFC:LogFileManager.obj
 0003:000003f8       ??_R0?AV?$basic_ios@DU?$char_traits@D@std@@@std@@@8 000000014001c3f8     KizuLibMFC:LogFileManager.obj
 0003:00000440       ??_R0?AV?$basic_ofstream@DU?$char_traits@D@std@@@std@@@8 000000014001c440     KizuLibMFC:LogFileManager.obj
 0003:00000490       ??_R0?AV?$basic_streambuf@DU?$char_traits@D@std@@@std@@@8 000000014001c490     KizuLibMFC:LogFileManager.obj
 0003:000004e0       ??_R0?AV?$basic_filebuf@DU?$char_traits@D@std@@@std@@@8 000000014001c4e0     KizuLibMFC:LogFileManager.obj
 0003:00000528       ??_R0?AVbad_cast@std@@@8   000000014001c528     KizuLibMFC:LogFileManager.obj
 0003:00000550       ??_R0?AVexception@std@@@8  000000014001c550     KizuLibMFC:LogFileManager.obj
 0003:00000578       ??_R0?AVKizuPcInfManager@KizuLib@@@8 000000014001c578     KizuLib:KizuPcInfManager.obj
 0003:000005a8       ??_R0?AVMailSlotManager@KizuLib@@@8 000000014001c5a8     KizuLib:MailSlotManager.obj
 0003:000005d8       ??_R0?AUICommunityAsync@KizuLib@@@8 000000014001c5d8     KizuLib:MailSlotManager.obj
 0003:00000608       ??_R0?AUICommunity@KizuLib@@@8 000000014001c608     KizuLib:MailSlotManager.obj
 0003:00000638       ??_R0?AVOdbcBase@KizuODBC@@@8 000000014001c638     KizuODBC:OdbcBase.obj
 0003:00000660       ??_R0?AVOdbcEnv@KizuODBC@@@8 000000014001c660     KizuODBC:OdbcEnv.obj
 0003:00000688       ??_R0?AVOdbcManager@KizuODBC@@@8 000000014001c688     KizuODBC:OdbcManager.obj
 0003:000006c0       __afxForceEXCLUDE          000000014001c6c0     mfcs140:nolib.obj
 0003:000006c4       __afxForceSTDAFX           000000014001c6c4     mfcs140:stdafx.obj
 0003:00000710       __scrt_current_native_startup_state 000000014001c710     msvcrt:utility.obj
 0003:00000718       __scrt_native_startup_lock 000000014001c718     msvcrt:utility.obj
 0003:00000cd0       _tls_index                 000000014001ccd0     msvcrt:tlssup.obj
 0003:00000cd4       __scrt_debugger_hook_flag  000000014001ccd4     msvcrt:utility_desktop.obj
 0003:00000cd8       __favor                    000000014001ccd8     msvcrt:_cpu_disp_.obj
 0003:00000ce0       ?__type_info_root_node@@3U__type_info_node@@A 000000014001cce0     msvcrt:tncleanup.obj
 0003:00000cf0       ?_OptionsStorage@?1??__local_stdio_scanf_options@@9@4_KA 000000014001ccf0     msvcrt:default_local_stdio_options.obj
 0003:00000d00       ?_AtlBaseModule@ATL@@3VCAtlBaseModule@1@A 000000014001cd00     atls:atlbase.obj
 0003:00000d60       __@@_PchSym_@00@UwwUexgllohUexHoryhUhsrkUzgonuxUhixUzgoUzgohUlyqBiUznwGEUhgwzucOlyq@CB7A8FA0488D52BF 000000014001cd60     atls:stdafx.obj
 0003:00000d71       ?_afxInitAppState@@3DA     000000014001cd71     mfcs140:appmodul.obj
 0003:00000d78       ?_OptionsStorage@?1??__local_stdio_printf_options@@9@4_KA 000000014001cd78     CameraManager.obj
 0003:00000d80       __@@_PchSym_@00@UmFxtoPgrmbUhixPoryUglPxznvizUcGEUivovzhvUhgwzucOlyq@ED9DAA6249B6DB9F 000000014001cd80     stdafx.obj
 0003:00000d84       ?m_bInitFailed@CAtlBaseModule@ATL@@2_NA 000000014001cd84     stdafx.obj
 0003:00000d88       __@@_PchSym_@00@UmFxtoPgrmbUoryizibUprafCDCxUcGEUivovzhvUhgwzucOlyq@4F21345E598A5ADE 000000014001cd88     Kizu232C:stdafx.obj
 0003:00000d90       ?_Psave@?$_Facetptr@V?$codecvt@DDU_Mbstatet@@@std@@@std@@2PEBVfacet@locale@2@EB 000000014001cd90     KizuLibMFC:LogFileManager.obj
 0003:00000d98       ?_Stinit@?1??_Init@?$basic_filebuf@DU?$char_traits@D@std@@@std@@IEAAXPEAU_iobuf@@W4_Initfl@23@@Z@4U_Mbstatet@@A 000000014001cd98     KizuLibMFC:LogFileManager.obj
 0003:00000da0       __@@_PchSym_@00@UmFxtoPgrmbUoryizibUpraforynuxUcGEUivovzhvUhgwzucOlyq@3810160A3EB1AF0A 000000014001cda0     KizuLibMFC:stdafx.obj
 0003:00000dd0       ?PCNAME@@3PAY0BA@DA        000000014001cdd0     KizuLib:KizuLib.obj
 0003:000011d0       ?theApp@@3VCTO_CAMERAApp@@A 000000014001d1d0     TO_CAMERA.obj
 0003:00001350       ?m_inst@OdbcEnv@KizuODBC@@0V12@A 000000014001d350     KizuODBC:OdbcEnv.obj
 0003:000015a0       __@@_PchSym_@00@UmFxtoPgrmbUoryizibUpraforyUcGEUivovzhvUhgwzucOlyq@E00AA93763076EC5 000000014001d5a0     KizuLib:stdafx.obj
 0003:000015a4       __@@_PchSym_@00@UmFxtoPgrmbUoryizibUpraflwyxUcGEUivovzhvUhgwzucOlyq@33C4FA68462A4CC8 000000014001d5a4     KizuODBC:stdafx.obj
 0003:000015a8       __dyn_tls_dtor_callback    000000014001d5a8     <common>
 0003:000015b0       __dyn_tls_init_callback    000000014001d5b0     <common>
 0006:00000000       _tls_start                 0000000140021000     msvcrt:tlssup.obj
 0006:00000004       _Init_thread_epoch         0000000140021004     msvcrt:thread_safe_statics.obj
 0006:00000008       _tls_end                   0000000140021008     msvcrt:tlssup.obj

 entry point at        0001:0000f97c

 Static symbols

 0002:fffee000       .idata$6                   0000000140000000     ucrt:api-ms-win-crt-convert-l1-1-0.dll
 0000:fffd5000       .debug$S                   0000000140000000     ucrt:api-ms-win-crt-convert-l1-1-0.dll
 0000:fffd5000       .debug$S                   0000000140000000     ucrt:api-ms-win-crt-convert-l1-1-0.dll
 0000:fffd5000       .debug$S                   0000000140000000     ucrt:api-ms-win-crt-filesystem-l1-1-0.dll
 0000:fffd5000       .debug$S                   0000000140000000     ucrt:api-ms-win-crt-filesystem-l1-1-0.dll
 0000:fffd5000       .debug$S                   0000000140000000     ucrt:api-ms-win-crt-filesystem-l1-1-0.dll
 0000:fffd5000       .debug$S                   0000000140000000     ucrt:api-ms-win-crt-filesystem-l1-1-0.dll
 0002:fffee000       .idata$6                   0000000140000000     KizuLib:WS2_32.dll
 0000:fffd5000       .debug$S                   0000000140000000     KizuLib:WS2_32.dll
 0000:fffd5000       .debug$S                   0000000140000000     KizuODBC:ODBC32.dll
 0000:fffd5000       .debug$S                   0000000140000000     KizuODBC:ODBC32.dll
 0000:fffd5000       .debug$S                   0000000140000000     KizuODBC:ODBC32.dll
 0000:fffd5000       .debug$S                   0000000140000000     KizuODBC:ODBC32.dll
 0000:fffd5000       .debug$S                   0000000140000000     KizuODBC:ODBC32.dll
 0000:fffd5000       .debug$S                   0000000140000000     KizuODBC:ODBC32.dll
 0000:fffd5000       .debug$S                   0000000140000000     KizuODBC:ODBC32.dll
 0000:fffd5000       .debug$S                   0000000140000000     KizuODBC:ODBC32.dll
 0000:fffd5000       .debug$S                   0000000140000000     KizuODBC:ODBC32.dll
 0000:fffd5000       .debug$S                   0000000140000000     KizuODBC:ODBC32.dll
 0000:fffd5000       .debug$S                   0000000140000000     KizuODBC:ODBC32.dll
 0000:fffd5000       .debug$S                   0000000140000000     KizuODBC:ODBC32.dll
 0000:fffd5000       .debug$S                   0000000140000000     KizuODBC:ODBC32.dll
 0000:fffd5000       .debug$S                   0000000140000000     KizuODBC:ODBC32.dll
 0000:fffd5000       .debug$S                   0000000140000000     KizuODBC:ODBC32.dll
 0000:fffd5000       .debug$S                   0000000140000000     KizuODBC:ODBC32.dll
 0000:fffd5000       .debug$S                   0000000140000000     KizuODBC:ODBC32.dll
 0000:fffd5000       .debug$S                   0000000140000000     KizuODBC:ODBC32.dll
 0000:fffd5000       .debug$S                   0000000140000000     KizuODBC:ODBC32.dll
 0000:fffd5000       .debug$S                   0000000140000000     KizuODBC:ODBC32.dll
 0000:fffd5000       .debug$S                   0000000140000000     mfc140:mfc140.dll
 0000:fffd5000       .debug$S                   0000000140000000     mfc140:mfc140.dll
 0000:fffd5000       .debug$S                   0000000140000000     mfc140:mfc140.dll
 0000:fffd5000       .debug$S                   0000000140000000     mfc140:mfc140.dll
 0000:fffd5000       .debug$S                   0000000140000000     mfc140:mfc140.dll
 0000:fffd5000       .debug$S                   0000000140000000     mfc140:mfc140.dll
 0000:fffd5000       .debug$S                   0000000140000000     ucrt:api-ms-win-crt-filesystem-l1-1-0.dll
 0000:fffd5000       .debug$S                   0000000140000000     ucrt:api-ms-win-crt-heap-l1-1-0.dll
 0000:fffd5000       .debug$S                   0000000140000000     ucrt:api-ms-win-crt-heap-l1-1-0.dll
 0000:fffd5000       .debug$S                   0000000140000000     ucrt:api-ms-win-crt-heap-l1-1-0.dll
 0000:fffd5000       .debug$S                   0000000140000000     ucrt:api-ms-win-crt-locale-l1-1-0.dll
 0000:fffd5000       .debug$S                   0000000140000000     ucrt:api-ms-win-crt-locale-l1-1-0.dll
 0000:fffd5000       .debug$S                   0000000140000000     ucrt:api-ms-win-crt-locale-l1-1-0.dll
 0000:fffd5000       .debug$S                   0000000140000000     ucrt:api-ms-win-crt-math-l1-1-0.dll
 0000:fffd5000       .debug$S                   0000000140000000     ucrt:api-ms-win-crt-runtime-l1-1-0.dll
 0000:fffd5000       .debug$S                   0000000140000000     ucrt:api-ms-win-crt-runtime-l1-1-0.dll
 0000:fffd5000       .debug$S                   0000000140000000     ucrt:api-ms-win-crt-runtime-l1-1-0.dll
 0000:fffd5000       .debug$S                   0000000140000000     ucrt:api-ms-win-crt-runtime-l1-1-0.dll
 0000:fffd5000       .debug$S                   0000000140000000     ucrt:api-ms-win-crt-runtime-l1-1-0.dll
 0000:fffd5000       .debug$S                   0000000140000000     ucrt:api-ms-win-crt-runtime-l1-1-0.dll
 0000:fffd5000       .debug$S                   0000000140000000     ucrt:api-ms-win-crt-runtime-l1-1-0.dll
 0000:fffd5000       .debug$S                   0000000140000000     ucrt:api-ms-win-crt-runtime-l1-1-0.dll
 0000:fffd5000       .debug$S                   0000000140000000     ucrt:api-ms-win-crt-runtime-l1-1-0.dll
 0000:fffd5000       .debug$S                   0000000140000000     ucrt:api-ms-win-crt-runtime-l1-1-0.dll
 0000:fffd5000       .debug$S                   0000000140000000     ucrt:api-ms-win-crt-runtime-l1-1-0.dll
 0000:fffd5000       .debug$S                   0000000140000000     ucrt:api-ms-win-crt-runtime-l1-1-0.dll
 0000:fffd5000       .debug$S                   0000000140000000     ucrt:api-ms-win-crt-runtime-l1-1-0.dll
 0000:fffd5000       .debug$S                   0000000140000000     ucrt:api-ms-win-crt-runtime-l1-1-0.dll
 0000:fffd5000       .debug$S                   0000000140000000     ucrt:api-ms-win-crt-runtime-l1-1-0.dll
 0000:fffd5000       .debug$S                   0000000140000000     ucrt:api-ms-win-crt-runtime-l1-1-0.dll
 0000:fffd5000       .debug$S                   0000000140000000     ucrt:api-ms-win-crt-runtime-l1-1-0.dll
 0000:fffd5000       .debug$S                   0000000140000000     ucrt:api-ms-win-crt-runtime-l1-1-0.dll
 0000:fffd5000       .debug$S                   0000000140000000     ucrt:api-ms-win-crt-runtime-l1-1-0.dll
 0000:fffd5000       .debug$S                   0000000140000000     ucrt:api-ms-win-crt-runtime-l1-1-0.dll
 0000:fffd5000       .debug$S                   0000000140000000     ucrt:api-ms-win-crt-runtime-l1-1-0.dll
 0000:fffd5000       .debug$S                   0000000140000000     ucrt:api-ms-win-crt-runtime-l1-1-0.dll
 0000:fffd5000       .debug$S                   0000000140000000     ucrt:api-ms-win-crt-runtime-l1-1-0.dll
 0000:fffd5000       .debug$S                   0000000140000000     ucrt:api-ms-win-crt-stdio-l1-1-0.dll
 0000:fffd5000       .debug$S                   0000000140000000     ucrt:api-ms-win-crt-stdio-l1-1-0.dll
 0000:fffd5000       .debug$S                   0000000140000000     ucrt:api-ms-win-crt-stdio-l1-1-0.dll
 0000:fffd5000       .debug$S                   0000000140000000     ucrt:api-ms-win-crt-stdio-l1-1-0.dll
 0000:fffd5000       .debug$S                   0000000140000000     ucrt:api-ms-win-crt-stdio-l1-1-0.dll
 0000:fffd5000       .debug$S                   0000000140000000     ucrt:api-ms-win-crt-stdio-l1-1-0.dll
 0000:fffd5000       .debug$S                   0000000140000000     ucrt:api-ms-win-crt-stdio-l1-1-0.dll
 0000:fffd5000       .debug$S                   0000000140000000     ucrt:api-ms-win-crt-stdio-l1-1-0.dll
 0000:fffd5000       .debug$S                   0000000140000000     ucrt:api-ms-win-crt-stdio-l1-1-0.dll
 0000:fffd5000       .debug$S                   0000000140000000     ucrt:api-ms-win-crt-stdio-l1-1-0.dll
 0000:fffd5000       .debug$S                   0000000140000000     ucrt:api-ms-win-crt-stdio-l1-1-0.dll
 0000:fffd5000       .debug$S                   0000000140000000     ucrt:api-ms-win-crt-stdio-l1-1-0.dll
 0000:fffd5000       .debug$S                   0000000140000000     ucrt:api-ms-win-crt-stdio-l1-1-0.dll
 0000:fffd5000       .debug$S                   0000000140000000     ucrt:api-ms-win-crt-stdio-l1-1-0.dll
 0000:fffd5000       .debug$S                   0000000140000000     ucrt:api-ms-win-crt-stdio-l1-1-0.dll
 0000:fffd5000       .debug$S                   0000000140000000     ucrt:api-ms-win-crt-stdio-l1-1-0.dll
 0000:fffd5000       .debug$S                   0000000140000000     ucrt:api-ms-win-crt-stdio-l1-1-0.dll
 0000:fffd5000       .debug$S                   0000000140000000     ucrt:api-ms-win-crt-stdio-l1-1-0.dll
 0002:fffee000       .idata$6                   0000000140000000     ucrt:api-ms-win-crt-string-l1-1-0.dll
 0000:fffd5000       .debug$S                   0000000140000000     ucrt:api-ms-win-crt-string-l1-1-0.dll
 0000:fffd5000       .debug$S                   0000000140000000     vcruntime:VCRUNTIME140.dll
 0000:fffd5000       .debug$S                   0000000140000000     vcruntime:VCRUNTIME140.dll
 0000:fffd5000       .debug$S                   0000000140000000     vcruntime:VCRUNTIME140.dll
 0000:fffd5000       .debug$S                   0000000140000000     vcruntime:VCRUNTIME140.dll
 0000:fffd5000       .debug$S                   0000000140000000     vcruntime:VCRUNTIME140.dll
 0000:fffd5000       .debug$S                   0000000140000000     vcruntime:VCRUNTIME140.dll
 0000:fffd5000       .debug$S                   0000000140000000     vcruntime:VCRUNTIME140.dll
 0000:fffd5000       .debug$S                   0000000140000000     vcruntime:VCRUNTIME140.dll
 0000:fffd5000       .debug$S                   0000000140000000     vcruntime:VCRUNTIME140.dll
 0000:fffd5000       .debug$S                   0000000140000000     vcruntime:VCRUNTIME140.dll
 0000:fffd5000       .debug$S                   0000000140000000     vcruntime:VCRUNTIME140.dll
 0000:fffd5000       .debug$S                   0000000140000000     vcruntime:VCRUNTIME140.dll
 0000:fffd5000       .debug$S                   0000000140000000     vcruntime:VCRUNTIME140.dll
 0000:fffd5000       .debug$S                   0000000140000000     msvcprt:MSVCP140.dll
 0000:fffd5000       .debug$S                   0000000140000000     msvcprt:MSVCP140.dll
 0000:fffd5000       .debug$S                   0000000140000000     msvcprt:MSVCP140.dll
 0000:fffd5000       .debug$S                   0000000140000000     msvcprt:MSVCP140.dll
 0000:fffd5000       .debug$S                   0000000140000000     msvcprt:MSVCP140.dll
 0000:fffd5000       .debug$S                   0000000140000000     msvcprt:MSVCP140.dll
 0000:fffd5000       .debug$S                   0000000140000000     msvcprt:MSVCP140.dll
 0000:fffd5000       .debug$S                   0000000140000000     msvcprt:MSVCP140.dll
 0000:fffd5000       .debug$S                   0000000140000000     msvcprt:MSVCP140.dll
 0000:fffd5000       .debug$S                   0000000140000000     msvcprt:MSVCP140.dll
 0000:fffd5000       .debug$S                   0000000140000000     msvcprt:MSVCP140.dll
 0000:fffd5000       .debug$S                   0000000140000000     msvcprt:MSVCP140.dll
 0000:fffd5000       .debug$S                   0000000140000000     msvcprt:MSVCP140.dll
 0000:fffd5000       .debug$S                   0000000140000000     msvcprt:MSVCP140.dll
 0000:fffd5000       .debug$S                   0000000140000000     msvcprt:MSVCP140.dll
 0000:fffd5000       .debug$S                   0000000140000000     msvcprt:MSVCP140.dll
 0000:fffd5000       .debug$S                   0000000140000000     msvcprt:MSVCP140.dll
 0000:fffd5000       .debug$S                   0000000140000000     msvcprt:MSVCP140.dll
 0000:fffd5000       .debug$S                   0000000140000000     msvcprt:MSVCP140.dll
 0000:fffd5000       .debug$S                   0000000140000000     msvcprt:MSVCP140.dll
 0000:fffd5000       .debug$S                   0000000140000000     msvcprt:MSVCP140.dll
 0000:fffd5000       .debug$S                   0000000140000000     msvcprt:MSVCP140.dll
 0000:fffd5000       .debug$S                   0000000140000000     msvcprt:MSVCP140.dll
 0000:fffd5000       .debug$S                   0000000140000000     msvcprt:MSVCP140.dll
 0000:fffd5000       .debug$S                   0000000140000000     msvcprt:MSVCP140.dll
 0000:fffd5000       .debug$S                   0000000140000000     msvcprt:MSVCP140.dll
 0000:fffd5000       .debug$S                   0000000140000000     msvcprt:MSVCP140.dll
 0000:fffd5000       .debug$S                   0000000140000000     msvcprt:MSVCP140.dll
 0000:fffd5000       .debug$S                   0000000140000000     msvcprt:MSVCP140.dll
 0000:fffd5000       .debug$S                   0000000140000000     msvcprt:MSVCP140.dll
 0000:fffd5000       .debug$S                   0000000140000000     msvcprt:MSVCP140.dll
 0000:fffd5000       .debug$S                   0000000140000000     msvcprt:MSVCP140.dll
 0000:fffd5000       .debug$S                   0000000140000000     msvcprt:MSVCP140.dll
 0000:fffd5000       .debug$S                   0000000140000000     msvcprt:MSVCP140.dll
 0000:fffd5000       .debug$S                   0000000140000000     msvcprt:MSVCP140.dll
 0000:fffd5000       .debug$S                   0000000140000000     msvcprt:MSVCP140.dll
 0000:fffd5000       .debug$S                   0000000140000000     msvcprt:MSVCP140.dll
 0000:fffd5000       .debug$S                   0000000140000000     msvcprt:MSVCP140.dll
 0000:fffd5000       .debug$S                   0000000140000000     msvcprt:MSVCP140.dll
 0000:fffd5000       .debug$S                   0000000140000000     msvcprt:MSVCP140.dll
 0000:fffd5000       .debug$S                   0000000140000000     msvcprt:MSVCP140.dll
 0000:fffd5000       .debug$S                   0000000140000000     msvcprt:MSVCP140.dll
 0000:fffd5000       .debug$S                   0000000140000000     msvcprt:MSVCP140.dll
 0000:fffd5000       .debug$S                   0000000140000000     msvcprt:MSVCP140.dll
 0000:fffd5000       .debug$S                   0000000140000000     msvcprt:MSVCP140.dll
 0000:fffd5000       .debug$S                   0000000140000000     msvcprt:MSVCP140.dll
 0000:fffd5000       .debug$S                   0000000140000000     msvcprt:MSVCP140.dll
 0000:fffd5000       .debug$S                   0000000140000000     msvcprt:MSVCP140.dll
 0000:fffd5000       .debug$S                   0000000140000000     msvcprt:MSVCP140.dll
 0000:fffd5000       .debug$S                   0000000140000000     msvcprt:MSVCP140.dll
 0000:fffd5000       .debug$S                   0000000140000000     msvcprt:MSVCP140.dll
 0000:fffd5000       .debug$S                   0000000140000000     msvcprt:MSVCP140.dll
 0000:fffd5000       .debug$S                   0000000140000000     msvcprt:MSVCP140.dll
 0000:fffd5000       .debug$S                   0000000140000000     msvcprt:MSVCP140.dll
 0000:fffd5000       .debug$S                   0000000140000000     msvcprt:MSVCP140.dll
 0000:fffd5000       .debug$S                   0000000140000000     mfc140:mfc140.dll
 0000:fffd5000       .debug$S                   0000000140000000     mfc140:mfc140.dll
 0000:fffd5000       .debug$S                   0000000140000000     mfc140:mfc140.dll
 0000:fffd5000       .debug$S                   0000000140000000     mfc140:mfc140.dll
 0002:fffee000       .idata$6                   0000000140000000     oleaut32:OLEAUT32.dll
 0000:fffd5000       .debug$S                   0000000140000000     oleaut32:OLEAUT32.dll
 0000:fffd5000       .debug$S                   0000000140000000     mfc140:mfc140.dll
 0000:fffd5000       .debug$S                   0000000140000000     mfc140:mfc140.dll
 0000:fffd5000       .debug$S                   0000000140000000     mfc140:mfc140.dll
 0000:fffd5000       .debug$S                   0000000140000000     comctl32:COMCTL32.dll
 0000:fffd5000       .debug$S                   0000000140000000     user32:USER32.dll
 0000:fffd5000       .debug$S                   0000000140000000     user32:USER32.dll
 0000:fffd5000       .debug$S                   0000000140000000     user32:USER32.dll
 0000:fffd5000       .debug$S                   0000000140000000     user32:USER32.dll
 0000:fffd5000       .debug$S                   0000000140000000     user32:USER32.dll
 0000:fffd5000       .debug$S                   0000000140000000     user32:USER32.dll
 0000:fffd5000       .debug$S                   0000000140000000     user32:USER32.dll
 0000:fffd5000       .debug$S                   0000000140000000     user32:USER32.dll
 0000:fffd5000       .debug$S                   0000000140000000     user32:USER32.dll
 0000:fffd5000       .debug$S                   0000000140000000     user32:USER32.dll
 0000:fffd5000       .debug$S                   0000000140000000     user32:USER32.dll
 0000:fffd5000       .debug$S                   0000000140000000     user32:USER32.dll
 0000:fffd5000       .debug$S                   0000000140000000     user32:USER32.dll
 0000:fffd5000       .debug$S                   0000000140000000     user32:USER32.dll
 0000:fffd5000       .debug$S                   0000000140000000     user32:USER32.dll
 0000:fffd5000       .debug$S                   0000000140000000     user32:USER32.dll
 0000:fffd5000       .debug$S                   0000000140000000     user32:USER32.dll
 0000:fffd5000       .debug$S                   0000000140000000     kernel32:KERNEL32.dll
 0000:fffd5000       .debug$S                   0000000140000000     kernel32:KERNEL32.dll
 0000:fffd5000       .debug$S                   0000000140000000     kernel32:KERNEL32.dll
 0000:fffd5000       .debug$S                   0000000140000000     kernel32:KERNEL32.dll
 0000:fffd5000       .debug$S                   0000000140000000     kernel32:KERNEL32.dll
 0000:fffd5000       .debug$S                   0000000140000000     kernel32:KERNEL32.dll
 0000:fffd5000       .debug$S                   0000000140000000     kernel32:KERNEL32.dll
 0000:fffd5000       .debug$S                   0000000140000000     kernel32:KERNEL32.dll
 0000:fffd5000       .debug$S                   0000000140000000     kernel32:KERNEL32.dll
 0000:fffd5000       .debug$S                   0000000140000000     kernel32:KERNEL32.dll
 0000:fffd5000       .debug$S                   0000000140000000     mfc140:mfc140.dll
 0000:fffd5000       .debug$S                   0000000140000000     mfc140:mfc140.dll
 0000:fffd5000       .debug$S                   0000000140000000     mfc140:mfc140.dll
 0000:fffd5000       .debug$S                   0000000140000000     kernel32:KERNEL32.dll
 0000:fffd5000       .debug$S                   0000000140000000     kernel32:KERNEL32.dll
 0000:fffd5000       .debug$S                   0000000140000000     kernel32:KERNEL32.dll
 0000:fffd5000       .debug$S                   0000000140000000     kernel32:KERNEL32.dll
 0000:fffd5000       .debug$S                   0000000140000000     kernel32:KERNEL32.dll
 0000:fffd5000       .debug$S                   0000000140000000     kernel32:KERNEL32.dll
 0000:fffd5000       .debug$S                   0000000140000000     kernel32:KERNEL32.dll
 0000:fffd5000       .debug$S                   0000000140000000     kernel32:KERNEL32.dll
 0000:fffd5000       .debug$S                   0000000140000000     kernel32:KERNEL32.dll
 0000:fffd5000       .debug$S                   0000000140000000     kernel32:KERNEL32.dll
 0000:fffd5000       .debug$S                   0000000140000000     kernel32:KERNEL32.dll
 0000:fffd5000       .debug$S                   0000000140000000     kernel32:KERNEL32.dll
 0000:fffd5000       .debug$S                   0000000140000000     kernel32:KERNEL32.dll
 0000:fffd5000       .debug$S                   0000000140000000     kernel32:KERNEL32.dll
 0000:fffd5000       .debug$S                   0000000140000000     kernel32:KERNEL32.dll
 0000:fffd5000       .debug$S                   0000000140000000     kernel32:KERNEL32.dll
 0000:fffd5000       .debug$S                   0000000140000000     kernel32:KERNEL32.dll
 0000:fffd5000       .debug$S                   0000000140000000     mfc140:mfc140.dll
 0000:fffd5000       .debug$S                   0000000140000000     mfc140:mfc140.dll
 0000:fffd5000       .debug$S                   0000000140000000     mfc140:mfc140.dll
 0000:fffd5000       .debug$S                   0000000140000000     kernel32:KERNEL32.dll
 0000:fffd5000       .debug$S                   0000000140000000     kernel32:KERNEL32.dll
 0000:fffd5000       .debug$S                   0000000140000000     kernel32:KERNEL32.dll
 0000:fffd5000       .debug$S                   0000000140000000     kernel32:KERNEL32.dll
 0000:fffd5000       .debug$S                   0000000140000000     kernel32:KERNEL32.dll
 0000:fffd5000       .debug$S                   0000000140000000     kernel32:KERNEL32.dll
 0000:fffd5000       .debug$S                   0000000140000000     kernel32:KERNEL32.dll
 0000:fffd5000       .debug$S                   0000000140000000     kernel32:KERNEL32.dll
 0000:fffd5000       .debug$S                   0000000140000000     kernel32:KERNEL32.dll
 0000:fffd5000       .debug$S                   0000000140000000     kernel32:KERNEL32.dll
 0000:fffd5000       .debug$S                   0000000140000000     kernel32:KERNEL32.dll
 0000:fffd5000       .debug$S                   0000000140000000     mfc140:mfc140.dll
 0000:fffd5000       .debug$S                   0000000140000000     mfc140:mfc140.dll
 0000:fffd5000       .debug$S                   0000000140000000     mfc140:mfc140.dll
 0000:fffd5000       .debug$S                   0000000140000000     mfc140:mfc140.dll
 0000:fffd5000       .debug$S                   0000000140000000     mfc140:mfc140.dll
 0000:fffd5000       .debug$S                   0000000140000000     mfc140:mfc140.dll
 0000:fffd5000       .debug$S                   0000000140000000     mfc140:mfc140.dll
 0000:fffd5000       .debug$S                   0000000140000000     mfc140:mfc140.dll
 0000:fffd5000       .debug$S                   0000000140000000     mfc140:mfc140.dll
 0000:fffd5000       .debug$S                   0000000140000000     mfc140:mfc140.dll
 0000:fffd5000       .debug$S                   0000000140000000     mfc140:mfc140.dll
 0000:fffd5000       .debug$S                   0000000140000000     kernel32:KERNEL32.dll
 0000:fffd5000       .debug$S                   0000000140000000     kernel32:KERNEL32.dll
 0000:fffd5000       .debug$S                   0000000140000000     kernel32:KERNEL32.dll
 0000:fffd5000       .debug$S                   0000000140000000     kernel32:KERNEL32.dll
 0000:fffd5000       .debug$S                   0000000140000000     kernel32:KERNEL32.dll
 0000:fffd5000       .debug$S                   0000000140000000     kernel32:KERNEL32.dll
 0000:fffd5000       .debug$S                   0000000140000000     kernel32:KERNEL32.dll
 0000:fffd5000       .debug$S                   0000000140000000     kernel32:KERNEL32.dll
 0000:fffd5000       .debug$S                   0000000140000000     kernel32:KERNEL32.dll
 0000:fffd5000       .debug$S                   0000000140000000     kernel32:KERNEL32.dll
 0000:fffd5000       .debug$S                   0000000140000000     kernel32:KERNEL32.dll
 0000:fffd5000       .debug$S                   0000000140000000     kernel32:KERNEL32.dll
 0000:fffd5000       .debug$S                   0000000140000000     kernel32:KERNEL32.dll
 0000:fffd5000       .debug$S                   0000000140000000     kernel32:KERNEL32.dll
 0000:fffd5000       .debug$S                   0000000140000000     kernel32:KERNEL32.dll
 0000:fffd5000       .debug$S                   0000000140000000     kernel32:KERNEL32.dll
 0000:fffd5000       .debug$S                   0000000140000000     kernel32:KERNEL32.dll
 0000:fffd5000       .debug$S                   0000000140000000     kernel32:KERNEL32.dll
 0000:fffd5000       .debug$S                   0000000140000000     kernel32:KERNEL32.dll
 0000:fffd5000       .debug$S                   0000000140000000     kernel32:KERNEL32.dll
 0000:fffd5000       .debug$S                   0000000140000000     kernel32:KERNEL32.dll
 0000:fffd5000       .debug$S                   0000000140000000     kernel32:KERNEL32.dll
 0000:fffd5000       .debug$S                   0000000140000000     kernel32:KERNEL32.dll
 0000:fffd5000       .debug$S                   0000000140000000     kernel32:KERNEL32.dll
 0000:fffd5000       .debug$S                   0000000140000000     kernel32:KERNEL32.dll
 0000:fffd5000       .debug$S                   0000000140000000     kernel32:KERNEL32.dll
 0000:fffd5000       .debug$S                   0000000140000000     kernel32:KERNEL32.dll
 0000:fffd5000       .debug$S                   0000000140000000     kernel32:KERNEL32.dll
 0000:fffd5000       .debug$S                   0000000140000000     kernel32:KERNEL32.dll
 0000:fffd5000       .debug$S                   0000000140000000     kernel32:KERNEL32.dll
 0000:fffd5000       .debug$S                   0000000140000000     kernel32:KERNEL32.dll
 0000:fffd5000       .debug$S                   0000000140000000     kernel32:KERNEL32.dll
 0000:fffd5000       .debug$S                   0000000140000000     kernel32:KERNEL32.dll
 0000:fffd5000       .debug$S                   0000000140000000     kernel32:KERNEL32.dll
 0000:fffd5000       .debug$S                   0000000140000000     kernel32:KERNEL32.dll
 0000:fffd5000       .debug$S                   0000000140000000     kernel32:KERNEL32.dll
 0000:fffd5000       .debug$S                   0000000140000000     kernel32:KERNEL32.dll
 0000:fffd5000       .debug$S                   0000000140000000     kernel32:KERNEL32.dll
 0000:fffd5000       .debug$S                   0000000140000000     kernel32:KERNEL32.dll
 0000:fffd5000       .debug$S                   0000000140000000     kernel32:KERNEL32.dll
 0000:fffd5000       .debug$S                   0000000140000000     kernel32:KERNEL32.dll
 0000:fffd5000       .debug$S                   0000000140000000     kernel32:KERNEL32.dll
 0000:fffd5000       .debug$S                   0000000140000000     kernel32:KERNEL32.dll
 0000:fffd5000       .debug$S                   0000000140000000     kernel32:KERNEL32.dll
 0000:fffd5000       .debug$S                   0000000140000000     kernel32:KERNEL32.dll
 0000:fffd5000       .debug$S                   0000000140000000     kernel32:KERNEL32.dll
 0000:fffd5000       .debug$S                   0000000140000000     kernel32:KERNEL32.dll
 0000:fffd5000       .debug$S                   0000000140000000     mfc140:mfc140.dll
 0000:fffd5000       .debug$S                   0000000140000000     mfc140:mfc140.dll
 0000:fffd5000       .debug$S                   0000000140000000     mfc140:mfc140.dll
 0000:fffd5000       .debug$S                   0000000140000000     mfc140:mfc140.dll
 0000:fffd5000       .debug$S                   0000000140000000     mfc140:mfc140.dll
 0000:fffd5000       .debug$S                   0000000140000000     mfc140:mfc140.dll
 0000:fffd5000       .debug$S                   0000000140000000     mfc140:mfc140.dll
 0000:fffd5000       .debug$S                   0000000140000000     mfc140:mfc140.dll
 0000:fffd5000       .debug$S                   0000000140000000     mfc140:mfc140.dll
 0000:fffd5000       .debug$S                   0000000140000000     mfc140:mfc140.dll
 0000:fffd5000       .debug$S                   0000000140000000     mfc140:mfc140.dll
 0000:fffd5000       .debug$S                   0000000140000000     mfc140:mfc140.dll
 0000:fffd5000       .debug$S                   0000000140000000     mfc140:mfc140.dll
 0000:fffd5000       .debug$S                   0000000140000000     mfc140:mfc140.dll
 0000:fffd5000       .debug$S                   0000000140000000     mfc140:mfc140.dll
 0000:fffd5000       .debug$S                   0000000140000000     mfc140:mfc140.dll
 0000:fffd5000       .debug$S                   0000000140000000     mfc140:mfc140.dll
 0000:fffd5000       .debug$S                   0000000140000000     mfc140:mfc140.dll
 0000:fffd5000       .debug$S                   0000000140000000     mfc140:mfc140.dll
 0000:fffd5000       .debug$S                   0000000140000000     mfc140:mfc140.dll
 0000:fffd5000       .debug$S                   0000000140000000     mfc140:mfc140.dll
 0000:fffd5000       .debug$S                   0000000140000000     mfc140:mfc140.dll
 0000:fffd5000       .debug$S                   0000000140000000     mfc140:mfc140.dll
 0000:fffd5000       .debug$S                   0000000140000000     mfc140:mfc140.dll
 0000:fffd5000       .debug$S                   0000000140000000     mfc140:mfc140.dll
 0000:fffd5000       .debug$S                   0000000140000000     mfc140:mfc140.dll
 0000:fffd5000       .debug$S                   0000000140000000     mfc140:mfc140.dll
 0000:fffd5000       .debug$S                   0000000140000000     mfc140:mfc140.dll
 0000:fffd5000       .debug$S                   0000000140000000     mfc140:mfc140.dll
 0000:fffd5000       .debug$S                   0000000140000000     mfc140:mfc140.dll
 0000:fffd5000       .debug$S                   0000000140000000     mfc140:mfc140.dll
 0000:fffd5000       .debug$S                   0000000140000000     mfc140:mfc140.dll
 0000:fffd5000       .debug$S                   0000000140000000     mfc140:mfc140.dll
 0000:fffd5000       .debug$S                   0000000140000000     mfc140:mfc140.dll
 0000:fffd5000       .debug$S                   0000000140000000     mfc140:mfc140.dll
 0000:fffd5000       .debug$S                   0000000140000000     mfc140:mfc140.dll
 0000:fffd5000       .debug$S                   0000000140000000     mfc140:mfc140.dll
 0000:fffd5000       .debug$S                   0000000140000000     mfc140:mfc140.dll
 0000:fffd5000       .debug$S                   0000000140000000     mfc140:mfc140.dll
 0000:fffd5000       .debug$S                   0000000140000000     mfc140:mfc140.dll
 0000:fffd5000       .debug$S                   0000000140000000     mfc140:mfc140.dll
 0000:fffd5000       .debug$S                   0000000140000000     mfc140:mfc140.dll
 0000:fffd5000       .debug$S                   0000000140000000     mfc140:mfc140.dll
 0000:fffd5000       .debug$S                   0000000140000000     mfc140:mfc140.dll
 0000:fffd5000       .debug$S                   0000000140000000     mfc140:mfc140.dll
 0000:fffd5000       .debug$S                   0000000140000000     mfc140:mfc140.dll
 0000:fffd5000       .debug$S                   0000000140000000     mfc140:mfc140.dll
 0000:fffd5000       .debug$S                   0000000140000000     mfc140:mfc140.dll
 0000:fffd5000       .debug$S                   0000000140000000     mfc140:mfc140.dll
 0000:fffd5000       .debug$S                   0000000140000000     mfc140:mfc140.dll
 0000:fffd5000       .debug$S                   0000000140000000     mfc140:mfc140.dll
 0000:fffd5000       .debug$S                   0000000140000000     mfc140:mfc140.dll
 0000:fffd5000       .debug$S                   0000000140000000     mfc140:mfc140.dll
 0000:fffd5000       .debug$S                   0000000140000000     mfc140:mfc140.dll
 0000:fffd5000       .debug$S                   0000000140000000     mfc140:mfc140.dll
 0000:fffd5000       .debug$S                   0000000140000000     mfc140:mfc140.dll
 0000:fffd5000       .debug$S                   0000000140000000     mfc140:mfc140.dll
 0000:fffd5000       .debug$S                   0000000140000000     mfc140:mfc140.dll
 0000:fffd5000       .debug$S                   0000000140000000     mfc140:mfc140.dll
 0000:fffd5000       .debug$S                   0000000140000000     mfc140:mfc140.dll
 0000:fffd5000       .debug$S                   0000000140000000     mfc140:mfc140.dll
 0000:fffd5000       .debug$S                   0000000140000000     mfc140:mfc140.dll
 0000:fffd5000       .debug$S                   0000000140000000     mfc140:mfc140.dll
 0000:fffd5000       .debug$S                   0000000140000000     mfc140:mfc140.dll
 0000:fffd5000       .debug$S                   0000000140000000     mfc140:mfc140.dll
 0000:fffd5000       .debug$S                   0000000140000000     mfc140:mfc140.dll
 0000:fffd5000       .debug$S                   0000000140000000     mfc140:mfc140.dll
 0000:fffd5000       .debug$S                   0000000140000000     mfc140:mfc140.dll
 0000:fffd5000       .debug$S                   0000000140000000     mfc140:mfc140.dll
 0000:fffd5000       .debug$S                   0000000140000000     mfc140:mfc140.dll
 0000:fffd5000       .debug$S                   0000000140000000     mfc140:mfc140.dll
 0000:fffd5000       .debug$S                   0000000140000000     mfc140:mfc140.dll
 0000:fffd5000       .debug$S                   0000000140000000     mfc140:mfc140.dll
 0000:fffd5000       .debug$S                   0000000140000000     mfc140:mfc140.dll
 0000:fffd5000       .debug$S                   0000000140000000     mfc140:mfc140.dll
 0000:fffd5000       .debug$S                   0000000140000000     mfc140:mfc140.dll
 0000:fffd5000       .debug$S                   0000000140000000     mfc140:mfc140.dll
 0000:fffd5000       .debug$S                   0000000140000000     mfc140:mfc140.dll
 0000:fffd5000       .debug$S                   0000000140000000     mfc140:mfc140.dll
 0000:fffd5000       .debug$S                   0000000140000000     mfc140:mfc140.dll
 0000:fffd5000       .debug$S                   0000000140000000     mfc140:mfc140.dll
 0000:fffd5000       .debug$S                   0000000140000000     mfc140:mfc140.dll
 0000:fffd5000       .debug$S                   0000000140000000     mfc140:mfc140.dll
 0000:fffd5000       .debug$S                   0000000140000000     mfc140:mfc140.dll
 0000:fffd5000       .debug$S                   0000000140000000     mfc140:mfc140.dll
 0000:fffd5000       .debug$S                   0000000140000000     mfc140:mfc140.dll
 0000:fffd5000       .debug$S                   0000000140000000     mfc140:mfc140.dll
 0000:fffd5000       .debug$S                   0000000140000000     mfc140:mfc140.dll
 0000:fffd5000       .debug$S                   0000000140000000     mfc140:mfc140.dll
 0000:fffd5000       .debug$S                   0000000140000000     mfc140:mfc140.dll
 0000:fffd5000       .debug$S                   0000000140000000     mfc140:mfc140.dll
 0000:fffd5000       .debug$S                   0000000140000000     mfc140:mfc140.dll
 0000:fffd5000       .debug$S                   0000000140000000     mfc140:mfc140.dll
 0000:fffd5000       .debug$S                   0000000140000000     mfc140:mfc140.dll
 0000:fffd5000       .debug$S                   0000000140000000     mfc140:mfc140.dll
 0000:fffd5000       .debug$S                   0000000140000000     mfc140:mfc140.dll
 0000:fffd5000       .debug$S                   0000000140000000     mfc140:mfc140.dll
 0000:fffd5000       .debug$S                   0000000140000000     mfc140:mfc140.dll
 0000:fffd5000       .debug$S                   0000000140000000     mfc140:mfc140.dll
 0000:fffd5000       .debug$S                   0000000140000000     mfc140:mfc140.dll
 0000:fffd5000       .debug$S                   0000000140000000     mfc140:mfc140.dll
 0000:fffd5000       .debug$S                   0000000140000000     mfc140:mfc140.dll
 0000:fffd5000       .debug$S                   0000000140000000     mfc140:mfc140.dll
 0000:fffd5000       .debug$S                   0000000140000000     mfc140:mfc140.dll
 0000:fffd5000       .debug$S                   0000000140000000     mfc140:mfc140.dll
 0000:fffd5000       .debug$S                   0000000140000000     mfc140:mfc140.dll
 0000:fffd5000       .debug$S                   0000000140000000     mfc140:mfc140.dll
 0000:fffd5000       .debug$S                   0000000140000000     mfc140:mfc140.dll
 0000:fffd5000       .debug$S                   0000000140000000     mfc140:mfc140.dll
 0000:fffd5000       .debug$S                   0000000140000000     mfc140:mfc140.dll
 0000:fffd5000       .debug$S                   0000000140000000     mfc140:mfc140.dll
 0000:fffd5000       .debug$S                   0000000140000000     mfc140:mfc140.dll
 0000:fffd5000       .debug$S                   0000000140000000     mfc140:mfc140.dll
 0000:fffd5000       .debug$S                   0000000140000000     mfc140:mfc140.dll
 0000:fffd5000       .debug$S                   0000000140000000     mfc140:mfc140.dll
 0000:fffd5000       .debug$S                   0000000140000000     mfc140:mfc140.dll
 0000:fffd5000       .debug$S                   0000000140000000     mfc140:mfc140.dll
 0000:fffd5000       .debug$S                   0000000140000000     mfc140:mfc140.dll
 0000:fffd5000       .debug$S                   0000000140000000     mfc140:mfc140.dll
 0000:fffd5000       .debug$S                   0000000140000000     mfc140:mfc140.dll
 0000:fffd5000       .debug$S                   0000000140000000     mfc140:mfc140.dll
 0000:fffd5000       .debug$S                   0000000140000000     mfc140:mfc140.dll
 0000:fffd5000       .debug$S                   0000000140000000     mfc140:mfc140.dll
 0000:fffd5000       .debug$S                   0000000140000000     mfc140:mfc140.dll
 0000:fffd5000       .debug$S                   0000000140000000     mfc140:mfc140.dll
 0000:fffd5000       .debug$S                   0000000140000000     mfc140:mfc140.dll
 0000:fffd5000       .debug$S                   0000000140000000     mfc140:mfc140.dll
 0000:fffd5000       .debug$S                   0000000140000000     mfc140:mfc140.dll
 0000:fffd5000       .debug$S                   0000000140000000     mfc140:mfc140.dll
 0000:fffd5000       .debug$S                   0000000140000000     mfc140:mfc140.dll
 0000:fffd5000       .debug$S                   0000000140000000     mfc140:mfc140.dll
 0000:fffd5000       .debug$S                   0000000140000000     mfc140:mfc140.dll
 0000:fffd5000       .debug$S                   0000000140000000     mfc140:mfc140.dll
 0000:fffd5000       .debug$S                   0000000140000000     mfc140:mfc140.dll
 0000:fffd5000       .debug$S                   0000000140000000     mfc140:mfc140.dll
 0000:fffd5000       .debug$S                   0000000140000000     mfc140:mfc140.dll
 0000:fffd5000       .debug$S                   0000000140000000     mfc140:mfc140.dll
 0000:fffd5000       .debug$S                   0000000140000000     mfc140:mfc140.dll
 0000:fffd5000       .debug$S                   0000000140000000     mfc140:mfc140.dll
 0000:fffd5000       .debug$S                   0000000140000000     mfc140:mfc140.dll
 0000:fffd5000       .debug$S                   0000000140000000     mfc140:mfc140.dll
 0000:fffd5000       .debug$S                   0000000140000000     mfc140:mfc140.dll
 0000:fffd5000       .debug$S                   0000000140000000     mfc140:mfc140.dll
 0000:fffd5000       .debug$S                   0000000140000000     mfc140:mfc140.dll
 0000:fffd5000       .debug$S                   0000000140000000     mfc140:mfc140.dll
 0000:fffd5000       .debug$S                   0000000140000000     mfc140:mfc140.dll
 0000:fffd5000       .debug$S                   0000000140000000     mfc140:mfc140.dll
 0000:fffd5000       .debug$S                   0000000140000000     mfc140:mfc140.dll
 0000:fffd5000       .debug$S                   0000000140000000     mfc140:mfc140.dll
 0000:fffd5000       .debug$S                   0000000140000000     mfc140:mfc140.dll
 0000:fffd5000       .debug$S                   0000000140000000     mfc140:mfc140.dll
 0000:fffd5000       .debug$S                   0000000140000000     mfc140:mfc140.dll
 0000:fffd5000       .debug$S                   0000000140000000     mfc140:mfc140.dll
 0000:fffd5000       .debug$S                   0000000140000000     mfc140:mfc140.dll
 0000:fffd5000       .debug$S                   0000000140000000     mfc140:mfc140.dll
 0000:fffd5000       .debug$S                   0000000140000000     mfc140:mfc140.dll
 0000:fffd5000       .debug$S                   0000000140000000     mfc140:mfc140.dll
 0000:fffd5000       .debug$S                   0000000140000000     mfc140:mfc140.dll
 0000:fffd5000       .debug$S                   0000000140000000     mfc140:mfc140.dll
 0000:fffd5000       .debug$S                   0000000140000000     mfc140:mfc140.dll
 0000:fffd5000       .debug$S                   0000000140000000     mfc140:mfc140.dll
 0000:fffd5000       .debug$S                   0000000140000000     mfc140:mfc140.dll
 0000:fffd5000       .debug$S                   0000000140000000     mfc140:mfc140.dll
 0000:fffd5000       .debug$S                   0000000140000000     mfc140:mfc140.dll
 0000:fffd5000       .debug$S                   0000000140000000     mfc140:mfc140.dll
 0000:fffd5000       .debug$S                   0000000140000000     mfc140:mfc140.dll
 0000:fffd5000       .debug$S                   0000000140000000     mfc140:mfc140.dll
 0000:fffd5000       .debug$S                   0000000140000000     mfc140:mfc140.dll
 0000:fffd5000       .debug$S                   0000000140000000     mfc140:mfc140.dll
 0000:fffd5000       .debug$S                   0000000140000000     mfc140:mfc140.dll
 0000:fffd5000       .debug$S                   0000000140000000     mfc140:mfc140.dll
 0000:fffd5000       .debug$S                   0000000140000000     mfc140:mfc140.dll
 0000:fffd5000       .debug$S                   0000000140000000     mfc140:mfc140.dll
 0000:fffd5000       .debug$S                   0000000140000000     mfc140:mfc140.dll
 0000:fffd5000       .debug$S                   0000000140000000     mfc140:mfc140.dll
 0000:fffd5000       .debug$S                   0000000140000000     mfc140:mfc140.dll
 0000:fffd5000       .debug$S                   0000000140000000     mfc140:mfc140.dll
 0001:00000000       ??__EtheApp@@YAXXZ         0000000140001000 f   TO_CAMERA.obj
 0001:00000040       ??__E?m_inst@OdbcEnv@KizuODBC@@0V12@A@@YAXXZ 0000000140001040 f   KizuODBC:OdbcEnv.obj
 0001:0000005c       ??__E_AtlBaseModule@ATL@@YAXXZ 000000014000105c f   atls:atlbase.obj
 0001:0000007c       ??__E_Fac_tidy_reg@std@@YAXXZ 000000014000107c f   msvcprt:locale0_implib.obj
 0001:00000088       ??__E_afxInitAppState@@YAXXZ 0000000140001088 f   mfcs140:appmodul.obj
 0001:00000db0       $LN212                     0000000140001db0     CameraManager.obj
 0001:00001210       $LN51                      0000000140002210     CameraManager.obj
 0001:0000249c       $LN225                     000000014000349c     CameraManager.obj
 0001:000055c4       $LN43                      00000001400065c4     TO_CAMERADlg.obj
 0001:0000f2d0       $$000000                   00000001400102d0     msvcrt:_amdsecgs_.obj
 0001:0000f338       ?__scrt_initialize_thread_safe_statics@@YAHXZ 0000000140010338 f   msvcrt:thread_safe_statics.obj
 0001:0000f458       ?__scrt_uninitialize_thread_safe_statics@@YAXXZ 0000000140010458 f   msvcrt:thread_safe_statics.obj
 0001:0000f728       ?pre_c_initialization@@YAHXZ 0000000140010728 f   msvcrt:exe_winmain.obj
 0001:0000f7e4       ?post_pgo_initialization@@YAHXZ 00000001400107e4 f   msvcrt:exe_winmain.obj
 0001:0000f7f4       ?pre_cpp_initialization@@YAXXZ 00000001400107f4 f   msvcrt:exe_winmain.obj
 0001:0000f810       ?__scrt_common_main_seh@@YAHXZ 0000000140010810 f   msvcrt:exe_winmain.obj
 0001:0000fa98       capture_previous_context   0000000140010a98 f   msvcrt:gs_report.obj
 0001:00010450       $$000000                   0000000140011450     msvcrt:_chkstk_.obj
 0001:000104d0       $$000000                   00000001400114d0     msvcrt:_guard_dispatch_.obj
 0001:000104f0       ?dtor$0@?0???0CameraManager@@QEAA@XZ@4HA 00000001400114f0 f   CameraManager.obj
 0001:000104fc       ?dtor$1@?0???0CameraManager@@QEAA@XZ@4HA 00000001400114fc f   CameraManager.obj
 0001:0001050c       ?dtor$2@?0???0CameraManager@@QEAA@XZ@4HA 000000014001150c f   CameraManager.obj
 0001:00010521       ?dtor$3@?0???0CameraManager@@QEAA@XZ@4HA 0000000140011521 f   CameraManager.obj
 0001:00010536       ?dtor$4@?0???0CameraManager@@QEAA@XZ@4HA 0000000140011536 f   CameraManager.obj
 0001:0001054b       ?dtor$5@?0???0CameraManager@@QEAA@XZ@4HA 000000014001154b f   CameraManager.obj
 0001:0001055e       ?dtor$6@?0???0CameraManager@@QEAA@XZ@4HA 000000014001155e f   CameraManager.obj
 0001:0001056c       ?dtor$7@?0???0CameraManager@@QEAA@XZ@4HA 000000014001156c f   CameraManager.obj
 0001:00010580       ?dtor$0@?0??SetClass@CameraManager@@QEAAXHPEAD@Z@4HA 0000000140011580 f   CameraManager.obj
 0001:0001058e       ?dtor$1@?0??SetClass@CameraManager@@QEAAXHPEAD@Z@4HA 000000014001158e f   CameraManager.obj
 0001:000105a0       ?dtor$0@?0??MainThread@CameraManager@@CAIPEAX@Z@4HA 00000001400115a0 f   CameraManager.obj
 0001:000105a0       ?dtor$0@?0??OnTimer@CTO_CAMERADlg@@QEAAX_K@Z@4HA 00000001400115a0 f   TO_CAMERADlg.obj
 0001:000105b0       ?dtor$0@?0??CheckDataRecv@CameraManager@@AEAA_NXZ@4HA 00000001400115b0 f   CameraManager.obj
 0001:000105b0       ?dtor$0@?0??Close@CameraManager@@AEAAXXZ@4HA 00000001400115b0 f   CameraManager.obj
 0001:000105c0       ?dtor$0@?0??Open@CameraManager@@AEAA_N_N@Z@4HA 00000001400115c0 f   CameraManager.obj
 0001:000105dd       ?catch$1@?0??Open@CameraManager@@AEAA_N_N@Z@4HA 00000001400115dd f   CameraManager.obj
 0001:000105ec       __catch$?Open@CameraManager@@AEAA_N_N@Z$0 00000001400115ec f   CameraManager.obj
 0001:00010660       ?dtor$0@?0??GetParamStatic@CameraManager@@AEAA_NXZ@4HA 0000000140011660 f   CameraManager.obj
 0001:0001066e       ?dtor$1@?0??GetParamStatic@CameraManager@@AEAA_NXZ@4HA 000000014001166e f   CameraManager.obj
 0001:00010680       ?dtor$74@?0??push_back@?$vector@V?$CStringT@DV?$StrTraitMFC_DLL@DV?$ChTraitsCRT@D@ATL@@@@@ATL@@V?$allocator@V?$CStringT@DV?$StrTraitMFC_DLL@DV?$ChTraitsCRT@D@ATL@@@@@ATL@@@std@@@std@@QEAAX$$QEAV?$CStringT@DV?$StrTraitMFC_DLL@DV?$ChTraitsCRT@D@ATL@@@@@ATL@@@Z@4HA 0000000140011680 f   CameraManager.obj
 0001:0001069c       ?dtor$139@?0??push_back@?$vector@V?$CStringT@DV?$StrTraitMFC_DLL@DV?$ChTraitsCRT@D@ATL@@@@@ATL@@V?$allocator@V?$CStringT@DV?$StrTraitMFC_DLL@DV?$ChTraitsCRT@D@ATL@@@@@ATL@@@std@@@std@@QEAAX$$QEAV?$CStringT@DV?$StrTraitMFC_DLL@DV?$ChTraitsCRT@D@ATL@@@@@ATL@@@Z@4HA 000000014001169c f   CameraManager.obj
 0001:000106c0       ?catch$51@?0??_Reallocate@?$vector@V?$CStringT@DV?$StrTraitMFC_DLL@DV?$ChTraitsCRT@D@ATL@@@@@ATL@@V?$allocator@V?$CStringT@DV?$StrTraitMFC_DLL@DV?$ChTraitsCRT@D@ATL@@@@@ATL@@@std@@@std@@IEAAX_K@Z@4HA 00000001400116c0 f   CameraManager.obj
 0001:000106cd       __catch$?_Reallocate@?$vector@V?$CStringT@DV?$StrTraitMFC_DLL@DV?$ChTraitsCRT@D@ATL@@@@@ATL@@V?$allocator@V?$CStringT@DV?$StrTraitMFC_DLL@DV?$ChTraitsCRT@D@ATL@@@@@ATL@@@std@@@std@@IEAAX_K@Z$0 00000001400116cd f   CameraManager.obj
 0001:000106f0       ?dtor$3@?0???$_Uninitialized_move_al_unchecked1@PEAV?$CStringT@DV?$StrTraitMFC_DLL@DV?$ChTraitsCRT@D@ATL@@@@@ATL@@PEAV12@V?$allocator@V?$CStringT@DV?$StrTraitMFC_DLL@DV?$ChTraitsCRT@D@ATL@@@@@ATL@@@std@@@std@@YAPEAV?$CStringT@DV?$StrTraitMFC_DLL@DV?$ChTraitsCRT@D@ATL@@@@@ATL@@PEAV12@00AEAU?$_Wrap_alloc@V?$allocator@V?$CStringT@DV?$StrTraitMFC_DLL@DV?$ChTraitsCRT@D@ATL@@@@@ATL@@@std@@@0@U_General_ptr_iterator_tag@0@U_Any_tag@0@@Z@4HA 00000001400116f0 f   CameraManager.obj
 0001:0001070c       ?catch$5@?0???$_Uninitialized_move_al_unchecked1@PEAV?$CStringT@DV?$StrTraitMFC_DLL@DV?$ChTraitsCRT@D@ATL@@@@@ATL@@PEAV12@V?$allocator@V?$CStringT@DV?$StrTraitMFC_DLL@DV?$ChTraitsCRT@D@ATL@@@@@ATL@@@std@@@std@@YAPEAV?$CStringT@DV?$StrTraitMFC_DLL@DV?$ChTraitsCRT@D@ATL@@@@@ATL@@PEAV12@00AEAU?$_Wrap_alloc@V?$allocator@V?$CStringT@DV?$StrTraitMFC_DLL@DV?$ChTraitsCRT@D@ATL@@@@@ATL@@@std@@@0@U_General_ptr_iterator_tag@0@U_Any_tag@0@@Z@4HA 000000014001170c f   CameraManager.obj
 0001:0001071b       __catch$??$_Uninitialized_move_al_unchecked1@PEAV?$CStringT@DV?$StrTraitMFC_DLL@DV?$ChTraitsCRT@D@ATL@@@@@ATL@@PEAV12@V?$allocator@V?$CStringT@DV?$StrTraitMFC_DLL@DV?$ChTraitsCRT@D@ATL@@@@@ATL@@@std@@@std@@YAPEAV?$CStringT@DV?$StrTraitMFC_DLL@DV?$ChTraitsCRT@D@ATL@@@@@ATL@@PEAV12@00AEAU?$_Wrap_alloc@V?$allocator@V?$CStringT@DV?$StrTraitMFC_DLL@DV?$ChTraitsCRT@D@ATL@@@@@ATL@@@std@@@0@U_General_ptr_iterator_tag@0@U_Any_tag@0@@Z$0 000000014001171b f   CameraManager.obj
 0001:00010750       ?dtor$0@?0??Init@MainInctance@@QEAAHXZ@4HA 0000000140011750 f   MainInctance.obj
 0001:0001075e       ?dtor$1@?0??Init@MainInctance@@QEAAHXZ@4HA 000000014001175e f   MainInctance.obj
 0001:0001076c       ?dtor$2@?0??Init@MainInctance@@QEAAHXZ@4HA 000000014001176c f   MainInctance.obj
 0001:00010790       ?dtor$0@?0??InitInstance@CTO_CAMERAApp@@UEAAHXZ@4HA 0000000140011790 f   TO_CAMERA.obj
 0001:000107a0       ?dtor$0@?0???0CTO_CAMERADlg@@QEAA@PEAVCWnd@@@Z@4HA 00000001400117a0 f   TO_CAMERADlg.obj
 0001:000107ae       ?dtor$1@?0???0CTO_CAMERADlg@@QEAA@PEAVCWnd@@@Z@4HA 00000001400117ae f   TO_CAMERADlg.obj
 0001:000107c3       ?dtor$2@?0???0CTO_CAMERADlg@@QEAA@PEAVCWnd@@@Z@4HA 00000001400117c3 f   TO_CAMERADlg.obj
 0001:000107d6       ?dtor$3@?0???0CTO_CAMERADlg@@QEAA@PEAVCWnd@@@Z@4HA 00000001400117d6 f   TO_CAMERADlg.obj
 0001:000107eb       ?dtor$4@?0???0CTO_CAMERADlg@@QEAA@PEAVCWnd@@@Z@4HA 00000001400117eb f   TO_CAMERADlg.obj
 0001:00010800       ?dtor$0@?0??OnInitDialog@CTO_CAMERADlg@@MEAAHXZ@4HA 0000000140011800 f   TO_CAMERADlg.obj
 0001:0001080e       ?dtor$1@?0??OnInitDialog@CTO_CAMERADlg@@MEAAHXZ@4HA 000000014001180e f   TO_CAMERADlg.obj
 0001:00010820       ?dtor$0@?0??InitProcess@CTO_CAMERADlg@@AEAAXXZ@4HA 0000000140011820 f   TO_CAMERADlg.obj
 0001:00010840       ?dtor$0@?0???HATL@@YA?AV?$CStringT@DV?$StrTraitMFC_DLL@DV?$ChTraitsCRT@D@ATL@@@@@0@PEBDAEBV10@@Z@4HA 0000000140011840 f   TO_CAMERADlg.obj
 0001:00010870       ?dtor$0@?0???0LogFileManager@KizuLib@@QEAA@PEBDPEAVCListBox@@HH@Z@4HA 0000000140011870 f   KizuLibMFC:LogFileManager.obj
 0001:0001087c       ?dtor$1@?0???0LogFileManager@KizuLib@@QEAA@PEBDPEAVCListBox@@HH@Z@4HA 000000014001187c f   KizuLibMFC:LogFileManager.obj
 0001:0001088c       ?dtor$2@?0???0LogFileManager@KizuLib@@QEAA@PEBDPEAVCListBox@@HH@Z@4HA 000000014001188c f   KizuLibMFC:LogFileManager.obj
 0001:0001089f       ?dtor$3@?0???0LogFileManager@KizuLib@@QEAA@PEBDPEAVCListBox@@HH@Z@4HA 000000014001189f f   KizuLibMFC:LogFileManager.obj
 0001:000108b4       ?dtor$4@?0???0LogFileManager@KizuLib@@QEAA@PEBDPEAVCListBox@@HH@Z@4HA 00000001400118b4 f   KizuLibMFC:LogFileManager.obj
 0001:000108c9       ?dtor$5@?0???0LogFileManager@KizuLib@@QEAA@PEBDPEAVCListBox@@HH@Z@4HA 00000001400118c9 f   KizuLibMFC:LogFileManager.obj
 0001:000108de       ?dtor$6@?0???0LogFileManager@KizuLib@@QEAA@PEBDPEAVCListBox@@HH@Z@4HA 00000001400118de f   KizuLibMFC:LogFileManager.obj
 0001:000108ec       ?dtor$7@?0???0LogFileManager@KizuLib@@QEAA@PEBDPEAVCListBox@@HH@Z@4HA 00000001400118ec f   KizuLibMFC:LogFileManager.obj
 0001:00010900       ?dtor$0@?0??Write@LogFileManager@KizuLib@@QEAAXW4LNO@12@PEBDZZ@4HA 0000000140011900 f   KizuLibMFC:LogFileManager.obj
 0001:00010910       ?dtor$0@?0??WriteFile@LogFileManager@KizuLib@@QEAAXPEBD@Z@4HA 0000000140011910 f   KizuLibMFC:LogFileManager.obj
 0001:0001091c       ?dtor$1@?0??WriteFile@LogFileManager@KizuLib@@QEAAXPEBD@Z@4HA 000000014001191c f   KizuLibMFC:LogFileManager.obj
 0001:00010930       ?dtor$0@?0???0?$basic_ofstream@DU?$char_traits@D@std@@@std@@QEAA@XZ@4HA 0000000140011930 f   KizuLibMFC:LogFileManager.obj
 0001:0001095e       ?dtor$1@?0???0?$basic_ofstream@DU?$char_traits@D@std@@@std@@QEAA@XZ@4HA 000000014001195e f   KizuLibMFC:LogFileManager.obj
 0001:00010970       ?dtor$3@?0???0?$basic_ofstream@DU?$char_traits@D@std@@@std@@QEAA@XZ@4HA 0000000140011970 f   KizuLibMFC:LogFileManager.obj
 0001:00010980       ?dtor$0@?0??overflow@?$basic_filebuf@DU?$char_traits@D@std@@@std@@MEAAHH@Z@4HA 0000000140011980 f   KizuLibMFC:LogFileManager.obj
 0001:00010980       ?dtor$0@?0??uflow@?$basic_filebuf@DU?$char_traits@D@std@@@std@@MEAAHXZ@4HA 0000000140011980 f   KizuLibMFC:LogFileManager.obj
 0001:00010990       ?dtor$0@?0??_Endwrite@?$basic_filebuf@DU?$char_traits@D@std@@@std@@IEAA_NXZ@4HA 0000000140011990 f   KizuLibMFC:LogFileManager.obj
 0001:000109a0       ?dtor$0@?0??open@?$basic_filebuf@DU?$char_traits@D@std@@@std@@QEAAPEAV12@PEBDHH@Z@4HA 00000001400119a0 f   KizuLibMFC:LogFileManager.obj
 0001:000109b0       ?catch$107@?0??_Copy@?$basic_string@DU?$char_traits@D@std@@V?$allocator@D@2@@std@@QEAAX_K0@Z@4HA 00000001400119b0 f   KizuLibMFC:LogFileManager.obj
 0001:000109bd       __catch$?_Copy@?$basic_string@DU?$char_traits@D@std@@V?$allocator@D@2@@std@@QEAAX_K0@Z$0 00000001400119bd f   KizuLibMFC:LogFileManager.obj
 0001:000109e4       ?catch$106@?0??_Copy@?$basic_string@DU?$char_traits@D@std@@V?$allocator@D@2@@std@@QEAAX_K0@Z@4HA 00000001400119e4 f   KizuLibMFC:LogFileManager.obj
 0001:000109f2       __catch$?_Copy@?$basic_string@DU?$char_traits@D@std@@V?$allocator@D@2@@std@@QEAAX_K0@Z$1 00000001400119f2 f   KizuLibMFC:LogFileManager.obj
 0001:00010a90       ?dtor$1@?0???$?6U?$char_traits@D@std@@@std@@YAAEAV?$basic_ostream@DU?$char_traits@D@std@@@0@AEAV10@PEBD@Z@4HA 0000000140011a90 f   KizuLibMFC:LogFileManager.obj
 0001:00010a9c       ?dtor$0@?0???$?6U?$char_traits@D@std@@@std@@YAAEAV?$basic_ostream@DU?$char_traits@D@std@@@0@AEAV10@PEBD@Z@4HA 0000000140011a9c f   KizuLibMFC:LogFileManager.obj
 0001:00010aa8       ?catch$8@?0???$?6U?$char_traits@D@std@@@std@@YAAEAV?$basic_ostream@DU?$char_traits@D@std@@@0@AEAV10@PEBD@Z@4HA 0000000140011aa8 f   KizuLibMFC:LogFileManager.obj
 0001:00010ab5       __catch$??$?6U?$char_traits@D@std@@@std@@YAAEAV?$basic_ostream@DU?$char_traits@D@std@@@0@AEAV10@PEBD@Z$0 0000000140011ab5 f   KizuLibMFC:LogFileManager.obj
 0001:00010ae0       ?dtor$0@?0???$use_facet@V?$codecvt@DDU_Mbstatet@@@std@@@std@@YAAEBV?$codecvt@DDU_Mbstatet@@@0@AEBVlocale@0@@Z@4HA 0000000140011ae0 f   KizuLibMFC:LogFileManager.obj
 0001:00010aee       __scrt_is_nonwritable_in_current_image$filt$0 0000000140011aee f   msvcrt:utility.obj
 0001:00010b06       ?filt$0@?0??__scrt_common_main_seh@@YAHXZ@4HA 0000000140011b06 f   msvcrt:exe_winmain.obj
 0001:00010b30       ??__FtheApp@@YAXXZ         0000000140011b30 f   TO_CAMERA.obj
 0001:00010b40       ??__F?m_inst@OdbcEnv@KizuODBC@@0V12@A@@YAXXZ 0000000140011b40 f   KizuODBC:OdbcEnv.obj
 0001:00010b88       ??__F_AtlBaseModule@ATL@@YAXXZ 0000000140011b88 f   atls:atlbase.obj
 0001:00010b94       ??__F_Fac_tidy_reg@std@@YAXXZ 0000000140011b94 f   msvcprt:locale0_implib.obj
 0002:00000c70       ?pre_cpp_initializer@@3P6AXXZEA 0000000140012c70     msvcrt:exe_winmain.obj
 0002:00000c78       ?_AtlBaseModule$initializer$@ATL@@3P6AXXZEA 0000000140012c78     atls:atlbase.obj
 0002:00000c80       ?_Fac_tidy_reg$initializer$@std@@3P6AXXZEA 0000000140012c80     msvcprt:locale0_implib.obj
 0002:00000c88       ?_afxInitAppState$initializer$@@3P6AXXZEA 0000000140012c88     mfcs140:appmodul.obj
 0002:00000c90       ?theApp$initializer$@@3P6AXXZEA 0000000140012c90     TO_CAMERA.obj
 0002:00000c98       ??m_inst$initializer$@OdbcEnv@KizuODBC@@0P6AXXZEA@@3P6AXXZEA 0000000140012c98     KizuODBC:OdbcEnv.obj
 0002:00000cb0       ?pre_c_initializer@@3P6AHXZEA 0000000140012cb0     msvcrt:exe_winmain.obj
 0002:00000cb8       ?post_pgo_initializer@@3P6AHXZEA 0000000140012cb8     msvcrt:exe_winmain.obj
 0002:00000cc0       ?__scrt_initialize_tss_var@@3P6AHXZEA 0000000140012cc0     msvcrt:thread_safe_statics.obj
 0002:00000d90       GS_ExceptionPointers       0000000140012d90     msvcrt:gs_report.obj
 0002:00000e38       $cppxdata$??_G_Fac_node@std@@QEAAPEAXI@Z 0000000140012e38     msvcprt:locale0_implib.obj
 0002:00001df8       ?messageMap@?1??GetThisMessageMap@CTO_CAMERAApp@@KAPEBUAFX_MSGMAP@@XZ@4U3@B 0000000140013df8     TO_CAMERA.obj
 0002:00001e10       ?_messageEntries@?1??GetThisMessageMap@CTO_CAMERAApp@@KAPEBUAFX_MSGMAP@@XZ@4QBUAFX_MSGMAP_ENTRY@@B 0000000140013e10     TO_CAMERA.obj
 0002:000022c0       ?messageMap@?1??GetThisMessageMap@CTO_CAMERADlg@@KAPEBUAFX_MSGMAP@@XZ@4U3@B 00000001400142c0     TO_CAMERADlg.obj
 0002:000022d0       ?_messageEntries@?1??GetThisMessageMap@CTO_CAMERADlg@@KAPEBUAFX_MSGMAP@@XZ@4QBUAFX_MSGMAP_ENTRY@@B 00000001400142d0     TO_CAMERADlg.obj
 0002:00003b08       $cppxdata$??$_Uninitialized_move_al_unchecked1@PEAV?$CStringT@DV?$StrTraitMFC_DLL@DV?$ChTraitsCRT@D@ATL@@@@@ATL@@PEAV12@V?$allocator@V?$CStringT@DV?$StrTraitMFC_DLL@DV?$ChTraitsCRT@D@ATL@@@@@ATL@@@std@@@std@@YAPEAV?$CStringT@DV?$StrTraitMFC_DLL@DV?$ChTraitsCRT@D@ATL@@@@@ATL@@PEAV12@00AEAU?$_Wrap_alloc@V?$allocator@V?$CStringT@DV?$StrTraitMFC_DLL@DV?$ChTraitsCRT@D@ATL@@@@@ATL@@@std@@@0@U_General_ptr_iterator_tag@0@U_Any_tag@0@@Z 0000000140015b08     CameraManager.obj
 0002:00003b30       $cppxdata$?_Reallocate@?$vector@V?$CStringT@DV?$StrTraitMFC_DLL@DV?$ChTraitsCRT@D@ATL@@@@@ATL@@V?$allocator@V?$CStringT@DV?$StrTraitMFC_DLL@DV?$ChTraitsCRT@D@ATL@@@@@ATL@@@std@@@std@@IEAAX_K@Z 0000000140015b30     CameraManager.obj
 0002:00003b58       $cppxdata$?push_back@?$vector@V?$CStringT@DV?$StrTraitMFC_DLL@DV?$ChTraitsCRT@D@ATL@@@@@ATL@@V?$allocator@V?$CStringT@DV?$StrTraitMFC_DLL@DV?$ChTraitsCRT@D@ATL@@@@@ATL@@@std@@@std@@QEAAX$$QEAV?$CStringT@DV?$StrTraitMFC_DLL@DV?$ChTraitsCRT@D@ATL@@@@@ATL@@@Z 0000000140015b58     CameraManager.obj
 0002:00003b80       $cppxdata$?GetParamStatic@CameraManager@@AEAA_NXZ 0000000140015b80     CameraManager.obj
 0002:00003ba8       $cppxdata$?Close@CameraManager@@AEAAXXZ 0000000140015ba8     CameraManager.obj
 0002:00003bd0       $cppxdata$?Open@CameraManager@@AEAA_N_N@Z 0000000140015bd0     CameraManager.obj
 0002:00003bf8       $cppxdata$?CheckDataRecv@CameraManager@@AEAA_NXZ 0000000140015bf8     CameraManager.obj
 0002:00003c20       $cppxdata$?MainThread@CameraManager@@CAIPEAX@Z 0000000140015c20     CameraManager.obj
 0002:00003c48       $cppxdata$?SetClass@CameraManager@@QEAAXHPEAD@Z 0000000140015c48     CameraManager.obj
 0002:00003c70       $cppxdata$??1CameraManager@@UEAA@XZ 0000000140015c70     CameraManager.obj
 0002:00003c98       $cppxdata$??0CameraManager@@QEAA@XZ 0000000140015c98     CameraManager.obj
 0002:00003ec0       $cppxdata$?Init@MainInctance@@QEAAHXZ 0000000140015ec0     MainInctance.obj
 0002:00003ee8       $cppxdata$?InitInstance@CTO_CAMERAApp@@UEAAHXZ 0000000140015ee8     TO_CAMERA.obj
 0002:00003f10       $cppxdata$??HATL@@YA?AV?$CStringT@DV?$StrTraitMFC_DLL@DV?$ChTraitsCRT@D@ATL@@@@@0@PEBDAEBV10@@Z 0000000140015f10     TO_CAMERADlg.obj
 0002:00003f38       $cppxdata$?OnTimer@CTO_CAMERADlg@@QEAAX_K@Z 0000000140015f38     TO_CAMERADlg.obj
 0002:00003f60       $cppxdata$?InitProcess@CTO_CAMERADlg@@AEAAXXZ 0000000140015f60     TO_CAMERADlg.obj
 0002:00003f88       $cppxdata$?OnInitDialog@CTO_CAMERADlg@@MEAAHXZ 0000000140015f88     TO_CAMERADlg.obj
 0002:00003fb0       $cppxdata$??0CTO_CAMERADlg@@QEAA@PEAVCWnd@@@Z 0000000140015fb0     TO_CAMERADlg.obj
 0002:00003fd8       $cppxdata$??1_Sentry_base@?$basic_ostream@DU?$char_traits@D@std@@@std@@QEAA@XZ 0000000140015fd8     KizuLibMFC:LogFileManager.obj
 0002:00004000       $cppxdata$??1sentry@?$basic_ostream@DU?$char_traits@D@std@@@std@@QEAA@XZ 0000000140016000     KizuLibMFC:LogFileManager.obj
 0002:00004028       $cppxdata$??$use_facet@V?$codecvt@DDU_Mbstatet@@@std@@@std@@YAAEBV?$codecvt@DDU_Mbstatet@@@0@AEBVlocale@0@@Z 0000000140016028     KizuLibMFC:LogFileManager.obj
 0002:00004050       $cppxdata$??$?6U?$char_traits@D@std@@@std@@YAAEAV?$basic_ostream@DU?$char_traits@D@std@@@0@AEAV10@PEBD@Z 0000000140016050     KizuLibMFC:LogFileManager.obj
 0002:00004078       $cppxdata$?_Copy@?$basic_string@DU?$char_traits@D@std@@V?$allocator@D@2@@std@@QEAAX_K0@Z 0000000140016078     KizuLibMFC:LogFileManager.obj
 0002:000040a0       $cppxdata$?open@?$basic_filebuf@DU?$char_traits@D@std@@@std@@QEAAPEAV12@PEBDHH@Z 00000001400160a0     KizuLibMFC:LogFileManager.obj
 0002:000040c8       $cppxdata$?_Endwrite@?$basic_filebuf@DU?$char_traits@D@std@@@std@@IEAA_NXZ 00000001400160c8     KizuLibMFC:LogFileManager.obj
 0002:000040f0       $cppxdata$??1?$basic_filebuf@DU?$char_traits@D@std@@@std@@UEAA@XZ 00000001400160f0     KizuLibMFC:LogFileManager.obj
 0002:00004118       $cppxdata$?overflow@?$basic_filebuf@DU?$char_traits@D@std@@@std@@MEAAHH@Z 0000000140016118     KizuLibMFC:LogFileManager.obj
 0002:00004140       $cppxdata$?uflow@?$basic_filebuf@DU?$char_traits@D@std@@@std@@MEAAHXZ 0000000140016140     KizuLibMFC:LogFileManager.obj
 0002:00004168       $cppxdata$??0?$basic_ofstream@DU?$char_traits@D@std@@@std@@QEAA@XZ 0000000140016168     KizuLibMFC:LogFileManager.obj
 0002:00004190       $cppxdata$?WriteFile@LogFileManager@KizuLib@@QEAAXPEBD@Z 0000000140016190     KizuLibMFC:LogFileManager.obj
 0002:000041b8       $cppxdata$??1LogFileManager@KizuLib@@UEAA@XZ 00000001400161b8     KizuLibMFC:LogFileManager.obj
 0002:000041e0       $cppxdata$??1locale@std@@QEAA@XZ 00000001400161e0     KizuLibMFC:LogFileManager.obj
 0002:00004208       $cppxdata$??0LogFileManager@KizuLib@@QEAA@PEBDPEAVCListBox@@HH@Z 0000000140016208     KizuLibMFC:LogFileManager.obj
 0002:00004230       $cppxdata$?Write@LogFileManager@KizuLib@@QEAAXW4LNO@12@PEBDZZ 0000000140016230     KizuLibMFC:LogFileManager.obj
 0002:00004258       $cppxdata$?SetStatus@KizuFunction@KizuLib@@SA_NHH_NPEBD@Z 0000000140016258     KizuLib:KizuFunction.obj
 0002:00004280       $cppxdata$?SetPcName@KizuPcInfManager@KizuLib@@QEAA_NPEADPEBD1@Z 0000000140016280     KizuLib:KizuPcInfManager.obj
 0002:000042a8       $cppxdata$??_GOdbcBase@KizuODBC@@UEAAPEAXI@Z 00000001400162a8     KizuODBC:OdbcBase.obj
 0002:000042d0       $cppxdata$??1OdbcBase@KizuODBC@@UEAA@XZ 00000001400162d0     KizuODBC:OdbcBase.obj
 0002:00005900       $unwind$__GSHandlerCheck   0000000140017900     msvcrt:_gshandler_.obj
 0002:00005900       $unwind$?MainThread@WorkThread@KizuLib@@MEAAIXZ 0000000140017900     KizuLib:WorkThread.obj
 0002:00005900       $unwind$__scrt_is_managed_app 0000000140017900     msvcrt:utility_desktop.obj
 0002:00005900       $unwind$??__E?m_inst@OdbcEnv@KizuODBC@@0V12@A@@YAXXZ 0000000140017900     KizuODBC:OdbcEnv.obj
 0002:00005900       $unwind$?post_pgo_initialization@@YAHXZ 0000000140017900     msvcrt:exe_winmain.obj
 0002:00005900       $unwind$?__scrt_uninitialize_thread_safe_statics@@YAXXZ 0000000140017900     msvcrt:thread_safe_statics.obj
 0002:00005900       $unwind$__scrt_acquire_startup_lock 0000000140017900     msvcrt:utility.obj
 0002:00005900       $unwind$??__EtheApp@@YAXXZ 0000000140017900     TO_CAMERA.obj
 0002:00005900       $unwind$__scrt_unhandled_exception_filter 0000000140017900     msvcrt:utility_desktop.obj
 0002:00005900       $unwind$?pre_cpp_initialization@@YAXXZ 0000000140017900     msvcrt:exe_winmain.obj
 0002:00005900       $unwind$?_Allocate@std@@YAPEAX_K0_N@Z 0000000140017900     CameraManager.obj
 0002:00005900       $unwind$??__F?m_inst@OdbcEnv@KizuODBC@@0V12@A@@YAXXZ 0000000140017900     KizuODBC:OdbcEnv.obj
 0002:00005900       $unwind$??__E_afxInitAppState@@YAXXZ 0000000140017900     mfcs140:appmodul.obj
 0002:00005900       $unwind$??__F_Fac_tidy_reg@std@@YAXXZ 0000000140017900     msvcprt:locale0_implib.obj
 0002:00005900       $unwind$?deallocate@?$_Wrap_alloc@V?$allocator@V?$CStringT@DV?$StrTraitMFC_DLL@DV?$ChTraitsCRT@D@ATL@@@@@ATL@@@std@@@std@@QEAAXPEAV?$CStringT@DV?$StrTraitMFC_DLL@DV?$ChTraitsCRT@D@ATL@@@@@ATL@@_K@Z 0000000140017900     CameraManager.obj
 0002:00005900       $unwind$atexit             0000000140017900     msvcrt:utility.obj
 0002:00005900       $unwind$??__E_AtlBaseModule@ATL@@YAXXZ 0000000140017900     atls:atlbase.obj
 0002:00005900       $unwind$WinMainCRTStartup  0000000140017900     msvcrt:exe_winmain.obj
 0002:00005900       $unwind$__scrt_initialize_default_local_stdio_options 0000000140017900     msvcrt:default_local_stdio_options.obj
 0002:00005900       $unwind$?GetParam@CameraManager@@AEAA_NXZ 0000000140017900     CameraManager.obj
 0002:00005908       $unwind$??0CameraManager@@QEAA@XZ 0000000140017908     CameraManager.obj
 0002:00005930       $stateUnwindMap$??0CameraManager@@QEAA@XZ 0000000140017930     CameraManager.obj
 0002:00005970       $ip2state$??0CameraManager@@QEAA@XZ 0000000140017970     CameraManager.obj
 0002:000059d0       $unwind$??_Gexception@std@@UEAAPEAXI@Z 00000001400179d0     KizuLibMFC:LogFileManager.obj
 0002:000059d0       $unwind$??0CAtlBaseModule@ATL@@QEAA@XZ 00000001400179d0     atls:atlbase.obj
 0002:000059d0       $unwind$??_GMainInctance@@UEAAPEAXI@Z 00000001400179d0     MainInctance.obj
 0002:000059d0       $unwind$??_GRs232cBase@Kizu232C@@UEAAPEAXI@Z 00000001400179d0     Kizu232C:Rs232cBase.obj
 0002:000059d0       $unwind$??0MainInctance@@QEAA@XZ 00000001400179d0     MainInctance.obj
 0002:000059d0       $unwind$??_Gbad_cast@std@@UEAAPEAXI@Z 00000001400179d0     KizuLibMFC:LogFileManager.obj
 0002:000059d0       $unwind$?imbue@?$basic_filebuf@DU?$char_traits@D@std@@@std@@MEAAXAEBVlocale@2@@Z 00000001400179d0     KizuLibMFC:LogFileManager.obj
 0002:000059d0       $unwind$?AfxInitialize@@YAHHK@Z 00000001400179d0     mfcs140:appmodul.obj
 0002:000059d0       $unwind$??_GMailSlotManager@KizuLib@@UEAAPEAXI@Z 00000001400179d0     KizuLib:MailSlotManager.obj
 0002:000059d0       $unwind$??_GOdbcManager@KizuODBC@@UEAAPEAXI@Z 00000001400179d0     KizuODBC:OdbcManager.obj
 0002:000059d0       $unwind$??_GCameraManager@@UEAAPEAXI@Z 00000001400179d0     CameraManager.obj
 0002:000059d0       $unwind$?DoDataExchange@CTO_CAMERADlg@@MEAAXPEAVCDataExchange@@@Z 00000001400179d0     TO_CAMERADlg.obj
 0002:000059d0       $unwind$??_G?$basic_filebuf@DU?$char_traits@D@std@@@std@@UEAAPEAXI@Z 00000001400179d0     KizuLibMFC:LogFileManager.obj
 0002:000059d0       $unwind$??_GAutoLock@KizuLib@@UEAAPEAXI@Z 00000001400179d0     KizuLibMFC:LogFileManager.obj
 0002:000059d0       $unwind$??_GWorkThread@KizuLib@@UEAAPEAXI@Z 00000001400179d0     KizuLib:WorkThread.obj
 0002:000059d0       $unwind$?pbackfail@?$basic_filebuf@DU?$char_traits@D@std@@@std@@MEAAHH@Z 00000001400179d0     KizuLibMFC:LogFileManager.obj
 0002:000059d0       $unwind$??_GCTO_CAMERADlg@@UEAAPEAXI@Z 00000001400179d0     TO_CAMERADlg.obj
 0002:000059d0       $unwind$??_GCTO_CAMERAApp@@UEAAPEAXI@Z 00000001400179d0     TO_CAMERA.obj
 0002:000059d0       $unwind$??_GCListBox@@UEAAPEAXI@Z 00000001400179d0     TO_CAMERADlg.obj
 0002:000059d0       $unwind$?ExitProcess@CTO_CAMERADlg@@AEAAXXZ 00000001400179d0     TO_CAMERADlg.obj
 0002:000059d0       $unwind$??_GCComboBox@@UEAAPEAXI@Z 00000001400179d0     TO_CAMERADlg.obj
 0002:000059d0       $unwind$??_GLogFileManager@KizuLib@@UEAAPEAXI@Z 00000001400179d0     KizuLibMFC:LogFileManager.obj
 0002:000059d0       $unwind$??_GOdbcEnv@KizuODBC@@UEAAPEAXI@Z 00000001400179d0     KizuODBC:OdbcEnv.obj
 0002:000059dc       $unwind$??1CameraManager@@UEAA@XZ 00000001400179dc     CameraManager.obj
 0002:000059f8       $ip2state$??1CameraManager@@UEAA@XZ 00000001400179f8     CameraManager.obj
 0002:00005a00       $unwind$?SetClass@CameraManager@@QEAAXHPEAD@Z 0000000140017a00     CameraManager.obj
 0002:00005a20       $stateUnwindMap$?SetClass@CameraManager@@QEAAXHPEAD@Z 0000000140017a20     CameraManager.obj
 0002:00005a30       $ip2state$?SetClass@CameraManager@@QEAAXHPEAD@Z 0000000140017a30     CameraManager.obj
 0002:00005a58       $unwind$?MainThread@CameraManager@@CAIPEAX@Z 0000000140017a58     CameraManager.obj
 0002:00005a84       $stateUnwindMap$?MainThread@CameraManager@@CAIPEAX@Z 0000000140017a84     CameraManager.obj
 0002:00005a84       $stateUnwindMap$?OnTimer@CTO_CAMERADlg@@QEAAX_K@Z 0000000140017a84     TO_CAMERADlg.obj
 0002:00005a90       $ip2state$?MainThread@CameraManager@@CAIPEAX@Z 0000000140017a90     CameraManager.obj
 0002:00005ab0       $unwind$?SetDataMailCommand@CameraManager@@AEAA_NPEAUCOMMON_QUE@@@Z 0000000140017ab0     CameraManager.obj
 0002:00005abc       $chain$0$?SetDataMailCommand@CameraManager@@AEAA_NPEAUCOMMON_QUE@@@Z 0000000140017abc     CameraManager.obj
 0002:00005ad0       $chain$8$?SetDataMailCommand@CameraManager@@AEAA_NPEAUCOMMON_QUE@@@Z 0000000140017ad0     CameraManager.obj
 0002:00005ad0       $chain$14$?SetDataMailCommand@CameraManager@@AEAA_NPEAUCOMMON_QUE@@@Z 0000000140017ad0     CameraManager.obj
 0002:00005ad0       $chain$16$?SetDataMailCommand@CameraManager@@AEAA_NPEAUCOMMON_QUE@@@Z 0000000140017ad0     CameraManager.obj
 0002:00005ad0       $chain$18$?SetDataMailCommand@CameraManager@@AEAA_NPEAUCOMMON_QUE@@@Z 0000000140017ad0     CameraManager.obj
 0002:00005ad0       $chain$2$?SetDataMailCommand@CameraManager@@AEAA_NPEAUCOMMON_QUE@@@Z 0000000140017ad0     CameraManager.obj
 0002:00005ad0       $chain$6$?SetDataMailCommand@CameraManager@@AEAA_NPEAUCOMMON_QUE@@@Z 0000000140017ad0     CameraManager.obj
 0002:00005ad0       $chain$4$?SetDataMailCommand@CameraManager@@AEAA_NPEAUCOMMON_QUE@@@Z 0000000140017ad0     CameraManager.obj
 0002:00005ae4       $chain$10$?SetDataMailCommand@CameraManager@@AEAA_NPEAUCOMMON_QUE@@@Z 0000000140017ae4     CameraManager.obj
 0002:00005afc       $chain$11$?SetDataMailCommand@CameraManager@@AEAA_NPEAUCOMMON_QUE@@@Z 0000000140017afc     CameraManager.obj
 0002:00005b10       $chain$12$?SetDataMailCommand@CameraManager@@AEAA_NPEAUCOMMON_QUE@@@Z 0000000140017b10     CameraManager.obj
 0002:00005b20       $chain$19$?SetDataMailCommand@CameraManager@@AEAA_NPEAUCOMMON_QUE@@@Z 0000000140017b20     CameraManager.obj
 0002:00005b30       $unwind$?Recv@MailSlotManager@KizuLib@@UEAA_NPEAXKPEAU_OVERLAPPED@@@Z 0000000140017b30     KizuLib:MailSlotManager.obj
 0002:00005b30       $unwind$?Send@MailSlotManager@KizuLib@@UEAA_NPEBXKPEAU_OVERLAPPED@@@Z 0000000140017b30     KizuLib:MailSlotManager.obj
 0002:00005b30       $unwind$?SetExposureTime@CameraManager@@AEAA_NHHH@Z 0000000140017b30     CameraManager.obj
 0002:00005b3c       $unwind$?CheckNextSend@CameraManager@@AEAA_NXZ 0000000140017b3c     CameraManager.obj
 0002:00005b50       $chain$3$?CheckNextSend@CameraManager@@AEAA_NXZ 0000000140017b50     CameraManager.obj
 0002:00005b68       $chain$5$?CheckNextSend@CameraManager@@AEAA_NXZ 0000000140017b68     CameraManager.obj
 0002:00005b80       $chain$6$?CheckNextSend@CameraManager@@AEAA_NXZ 0000000140017b80     CameraManager.obj
 0002:00005b90       $chain$7$?CheckNextSend@CameraManager@@AEAA_NXZ 0000000140017b90     CameraManager.obj
 0002:00005ba0       $unwind$?CheckDataRecv@CameraManager@@AEAA_NXZ 0000000140017ba0     CameraManager.obj
 0002:00005bb8       $stateUnwindMap$?Close@CameraManager@@AEAAXXZ 0000000140017bb8     CameraManager.obj
 0002:00005bb8       $stateUnwindMap$?CheckDataRecv@CameraManager@@AEAA_NXZ 0000000140017bb8     CameraManager.obj
 0002:00005bc0       $ip2state$?CheckDataRecv@CameraManager@@AEAA_NXZ 0000000140017bc0     CameraManager.obj
 0002:00005bd8       $unwind$?Open@CameraManager@@AEAA_N_N@Z 0000000140017bd8     CameraManager.obj
 0002:00005bec       $stateUnwindMap$?Open@CameraManager@@AEAA_N_N@Z 0000000140017bec     CameraManager.obj
 0002:00005c04       $tryMap$?Open@CameraManager@@AEAA_N_N@Z 0000000140017c04     CameraManager.obj
 0002:00005c18       $handlerMap$0$?Open@CameraManager@@AEAA_N_N@Z 0000000140017c18     CameraManager.obj
 0002:00005c30       $ip2state$?Open@CameraManager@@AEAA_N_N@Z 0000000140017c30     CameraManager.obj
 0002:00005c70       $unwind$?dtor$139@?0??push_back@?$vector@V?$CStringT@DV?$StrTraitMFC_DLL@DV?$ChTraitsCRT@D@ATL@@@@@ATL@@V?$allocator@V?$CStringT@DV?$StrTraitMFC_DLL@DV?$ChTraitsCRT@D@ATL@@@@@ATL@@@std@@@std@@QEAAX$$QEAV?$CStringT@DV?$StrTraitMFC_DLL@DV?$ChTraitsCRT@D@ATL@@@@@ATL@@@Z@4HA 0000000140017c70     CameraManager.obj
 0002:00005c70       $unwind$?dtor$74@?0??push_back@?$vector@V?$CStringT@DV?$StrTraitMFC_DLL@DV?$ChTraitsCRT@D@ATL@@@@@ATL@@V?$allocator@V?$CStringT@DV?$StrTraitMFC_DLL@DV?$ChTraitsCRT@D@ATL@@@@@ATL@@@std@@@std@@QEAAX$$QEAV?$CStringT@DV?$StrTraitMFC_DLL@DV?$ChTraitsCRT@D@ATL@@@@@ATL@@@Z@4HA 0000000140017c70     CameraManager.obj
 0002:00005c70       $unwind$?dtor$2@?0??Init@MainInctance@@QEAAHXZ@4HA 0000000140017c70     MainInctance.obj
 0002:00005c70       $unwind$?dtor$0@?0??Open@CameraManager@@AEAA_N_N@Z@4HA 0000000140017c70     CameraManager.obj
 0002:00005c70       $unwind$?dtor$0@?0???0?$basic_ofstream@DU?$char_traits@D@std@@@std@@QEAA@XZ@4HA 0000000140017c70     KizuLibMFC:LogFileManager.obj
 0002:00005c70       $unwind$?dtor$3@?0???$_Uninitialized_move_al_unchecked1@PEAV?$CStringT@DV?$StrTraitMFC_DLL@DV?$ChTraitsCRT@D@ATL@@@@@ATL@@PEAV12@V?$allocator@V?$CStringT@DV?$StrTraitMFC_DLL@DV?$ChTraitsCRT@D@ATL@@@@@ATL@@@std@@@std@@YAPEAV?$CStringT@DV?$StrTraitMFC_DLL@DV?$ChTraitsCRT@D@ATL@@@@@ATL@@PEAV12@00AEAU?$_Wrap_alloc@V?$allocator@V?$CStringT@DV?$StrTraitMFC_DLL@DV?$ChTraitsCRT@D@ATL@@@@@ATL@@@std@@@0@U_General_ptr_iterator_tag@0@U_Any_tag@0@@Z@4HA 0000000140017c70     CameraManager.obj
 0002:00005c70       $unwind$?filt$0@?0??__scrt_common_main_seh@@YAHXZ@4HA 0000000140017c70     msvcrt:exe_winmain.obj
 0002:00005c70       $unwind$?dtor$0@?0???HATL@@YA?AV?$CStringT@DV?$StrTraitMFC_DLL@DV?$ChTraitsCRT@D@ATL@@@@@0@PEBDAEBV10@@Z@4HA 0000000140017c70     TO_CAMERADlg.obj
 0002:00005c70       $unwind$?dtor$0@?0??InitProcess@CTO_CAMERADlg@@AEAAXXZ@4HA 0000000140017c70     TO_CAMERADlg.obj
 0002:00005c78       $unwind$?catch$1@?0??Open@CameraManager@@AEAA_N_N@Z@4HA 0000000140017c78     CameraManager.obj
 0002:00005c8c       $unwind$?Close@CameraManager@@AEAAXXZ 0000000140017c8c     CameraManager.obj
 0002:00005ca0       $ip2state$?Close@CameraManager@@AEAAXXZ 0000000140017ca0     CameraManager.obj
 0002:00005cb8       $unwind$?Recv@CameraManager@@AEAA_NXZ 0000000140017cb8     CameraManager.obj
 0002:00005cb8       $unwind$?MainThread@LogFileManager@KizuLib@@CAIPEAX@Z 0000000140017cb8     KizuLibMFC:LogFileManager.obj
 0002:00005cc0       $chain$1$?Recv@CameraManager@@AEAA_NXZ 0000000140017cc0     CameraManager.obj
 0002:00005cd8       $chain$3$?Recv@CameraManager@@AEAA_NXZ 0000000140017cd8     CameraManager.obj
 0002:00005cf0       $unwind$?GetMySession@CameraManager@@QEAA?AV?$CStringT@DV?$StrTraitMFC_DLL@DV?$ChTraitsCRT@D@ATL@@@@@ATL@@XZ 0000000140017cf0     TO_CAMERADlg.obj
 0002:00005cf0       $unwind$?GetNowLogPath@LogFileManager@KizuLib@@QEAA?AV?$CStringT@DV?$StrTraitMFC_DLL@DV?$ChTraitsCRT@D@ATL@@@@@ATL@@XZ 0000000140017cf0     KizuLibMFC:LogFileManager.obj
 0002:00005cf0       $unwind$?Send@CameraManager@@AEAA_NXZ 0000000140017cf0     CameraManager.obj
 0002:00005cf8       $chain$0$?Send@CameraManager@@AEAA_NXZ 0000000140017cf8     CameraManager.obj
 0002:00005d0c       $chain$2$?Send@CameraManager@@AEAA_NXZ 0000000140017d0c     CameraManager.obj
 0002:00005d20       $unwind$?GetParamStatic@CameraManager@@AEAA_NXZ 0000000140017d20     CameraManager.obj
 0002:00005d40       $stateUnwindMap$?GetParamStatic@CameraManager@@AEAA_NXZ 0000000140017d40     CameraManager.obj
 0002:00005d88       $ip2state$?GetParamStatic@CameraManager@@AEAA_NXZ 0000000140017d88     CameraManager.obj
 0002:00005db0       $unwind$??1?$vector@V?$CStringT@DV?$StrTraitMFC_DLL@DV?$ChTraitsCRT@D@ATL@@@@@ATL@@V?$allocator@V?$CStringT@DV?$StrTraitMFC_DLL@DV?$ChTraitsCRT@D@ATL@@@@@ATL@@@std@@@std@@QEAA@XZ 0000000140017db0     CameraManager.obj
 0002:00005dbc       $chain$0$??1?$vector@V?$CStringT@DV?$StrTraitMFC_DLL@DV?$ChTraitsCRT@D@ATL@@@@@ATL@@V?$allocator@V?$CStringT@DV?$StrTraitMFC_DLL@DV?$ChTraitsCRT@D@ATL@@@@@ATL@@@std@@@std@@QEAA@XZ 0000000140017dbc     CameraManager.obj
 0002:00005dd0       $chain$1$??1?$vector@V?$CStringT@DV?$StrTraitMFC_DLL@DV?$ChTraitsCRT@D@ATL@@@@@ATL@@V?$allocator@V?$CStringT@DV?$StrTraitMFC_DLL@DV?$ChTraitsCRT@D@ATL@@@@@ATL@@@std@@@std@@QEAA@XZ 0000000140017dd0     CameraManager.obj
 0002:00005de0       $unwind$?push_back@?$vector@V?$CStringT@DV?$StrTraitMFC_DLL@DV?$ChTraitsCRT@D@ATL@@@@@ATL@@V?$allocator@V?$CStringT@DV?$StrTraitMFC_DLL@DV?$ChTraitsCRT@D@ATL@@@@@ATL@@@std@@@std@@QEAAX$$QEAV?$CStringT@DV?$StrTraitMFC_DLL@DV?$ChTraitsCRT@D@ATL@@@@@ATL@@@Z 0000000140017de0     CameraManager.obj
 0002:00005df4       $stateUnwindMap$?push_back@?$vector@V?$CStringT@DV?$StrTraitMFC_DLL@DV?$ChTraitsCRT@D@ATL@@@@@ATL@@V?$allocator@V?$CStringT@DV?$StrTraitMFC_DLL@DV?$ChTraitsCRT@D@ATL@@@@@ATL@@@std@@@std@@QEAAX$$QEAV?$CStringT@DV?$StrTraitMFC_DLL@DV?$ChTraitsCRT@D@ATL@@@@@ATL@@@Z 0000000140017df4     CameraManager.obj
 0002:00005e08       $ip2state$?push_back@?$vector@V?$CStringT@DV?$StrTraitMFC_DLL@DV?$ChTraitsCRT@D@ATL@@@@@ATL@@V?$allocator@V?$CStringT@DV?$StrTraitMFC_DLL@DV?$ChTraitsCRT@D@ATL@@@@@ATL@@@std@@@std@@QEAAX$$QEAV?$CStringT@DV?$StrTraitMFC_DLL@DV?$ChTraitsCRT@D@ATL@@@@@ATL@@@Z 0000000140017e08     CameraManager.obj
 0002:00005e30       $unwind$?_Reallocate@?$vector@V?$CStringT@DV?$StrTraitMFC_DLL@DV?$ChTraitsCRT@D@ATL@@@@@ATL@@V?$allocator@V?$CStringT@DV?$StrTraitMFC_DLL@DV?$ChTraitsCRT@D@ATL@@@@@ATL@@@std@@@std@@IEAAX_K@Z 0000000140017e30     CameraManager.obj
 0002:00005e4c       $stateUnwindMap$?_Reallocate@?$vector@V?$CStringT@DV?$StrTraitMFC_DLL@DV?$ChTraitsCRT@D@ATL@@@@@ATL@@V?$allocator@V?$CStringT@DV?$StrTraitMFC_DLL@DV?$ChTraitsCRT@D@ATL@@@@@ATL@@@std@@@std@@IEAAX_K@Z 0000000140017e4c     CameraManager.obj
 0002:00005e5c       $tryMap$?_Reallocate@?$vector@V?$CStringT@DV?$StrTraitMFC_DLL@DV?$ChTraitsCRT@D@ATL@@@@@ATL@@V?$allocator@V?$CStringT@DV?$StrTraitMFC_DLL@DV?$ChTraitsCRT@D@ATL@@@@@ATL@@@std@@@std@@IEAAX_K@Z 0000000140017e5c     CameraManager.obj
 0002:00005e70       $handlerMap$0$?_Reallocate@?$vector@V?$CStringT@DV?$StrTraitMFC_DLL@DV?$ChTraitsCRT@D@ATL@@@@@ATL@@V?$allocator@V?$CStringT@DV?$StrTraitMFC_DLL@DV?$ChTraitsCRT@D@ATL@@@@@ATL@@@std@@@std@@IEAAX_K@Z 0000000140017e70     CameraManager.obj
 0002:00005e88       $ip2state$?_Reallocate@?$vector@V?$CStringT@DV?$StrTraitMFC_DLL@DV?$ChTraitsCRT@D@ATL@@@@@ATL@@V?$allocator@V?$CStringT@DV?$StrTraitMFC_DLL@DV?$ChTraitsCRT@D@ATL@@@@@ATL@@@std@@@std@@IEAAX_K@Z 0000000140017e88     CameraManager.obj
 0002:00005eb0       $unwind$?catch$51@?0??_Reallocate@?$vector@V?$CStringT@DV?$StrTraitMFC_DLL@DV?$ChTraitsCRT@D@ATL@@@@@ATL@@V?$allocator@V?$CStringT@DV?$StrTraitMFC_DLL@DV?$ChTraitsCRT@D@ATL@@@@@ATL@@@std@@@std@@IEAAX_K@Z@4HA 0000000140017eb0     CameraManager.obj
 0002:00005ec0       $unwind$??0?$ThreadQueue@UCOMMON_QUE@@@KizuLib@@QEAA@H@Z 0000000140017ec0     CameraManager.obj
 0002:00005ec0       $unwind$??0?$ThreadQueue@D@KizuLib@@QEAA@H@Z 0000000140017ec0     KizuLibMFC:LogFileManager.obj
 0002:00005ed0       $unwind$?pre_c_initialization@@YAHXZ 0000000140017ed0     msvcrt:exe_winmain.obj
 0002:00005ed0       $unwind$?StopMSG@WorkThread@KizuLib@@QEAAXHH@Z 0000000140017ed0     KizuLib:WorkThread.obj
 0002:00005ed0       $unwind$??1?$ThreadQueue@D@KizuLib@@UEAA@XZ 0000000140017ed0     KizuLibMFC:LogFileManager.obj
 0002:00005ed0       $unwind$?Free@?$ThreadQueue@UCOMMON_QUE@@@KizuLib@@QEAAXXZ 0000000140017ed0     CameraManager.obj
 0002:00005ed0       $unwind$??1Rs232cBase@Kizu232C@@UEAA@XZ 0000000140017ed0     Kizu232C:Rs232cBase.obj
 0002:00005ed0       $unwind$?_Facet_Register@std@@YAXPEAV_Facet_base@1@@Z 0000000140017ed0     msvcprt:locale0_implib.obj
 0002:00005ed0       $unwind$??_D?$basic_ofstream@DU?$char_traits@D@std@@@std@@QEAAXXZ 0000000140017ed0     KizuLibMFC:LogFileManager.obj
 0002:00005ed0       $unwind$??1?$ThreadQueue@UCOMMON_QUE@@@KizuLib@@UEAA@XZ 0000000140017ed0     CameraManager.obj
 0002:00005ed0       $unwind$??_GKizuPcInfManager@KizuLib@@UEAAPEAXI@Z 0000000140017ed0     KizuLib:KizuPcInfManager.obj
 0002:00005ed0       $unwind$__scrt_uninitialize_crt 0000000140017ed0     msvcrt:utility.obj
 0002:00005ed0       $unwind$?Send@Rs232cBase@Kizu232C@@QEAAHPEBXKPEAX@Z 0000000140017ed0     Kizu232C:Rs232cBase.obj
 0002:00005ed0       $unwind$??1AutoLock@KizuLib@@UEAA@XZ 0000000140017ed0     KizuLibMFC:LogFileManager.obj
 0002:00005ed0       $unwind$??1CTO_CAMERADlg@@UEAA@XZ 0000000140017ed0     TO_CAMERA.obj
 0002:00005ed0       $unwind$??_Gtype_info@@UEAAPEAXI@Z 0000000140017ed0     msvcrt:std_type_info_static.obj
 0002:00005ed0       $unwind$??1CAtlBaseModule@ATL@@QEAA@XZ 0000000140017ed0     atls:atlbase.obj
 0002:00005ed0       $unwind$??1?$basic_string@DU?$char_traits@D@std@@V?$allocator@D@2@@std@@QEAA@XZ 0000000140017ed0     KizuLibMFC:LogFileManager.obj
 0002:00005ed0       $unwind$?underflow@?$basic_filebuf@DU?$char_traits@D@std@@@std@@MEAAHXZ 0000000140017ed0     KizuLibMFC:LogFileManager.obj
 0002:00005ed0       $unwind$??0exception@std@@QEAA@AEBV01@@Z 0000000140017ed0     KizuLibMFC:LogFileManager.obj
 0002:00005ed0       $unwind$?DisConnect@OdbcBase@KizuODBC@@QEAAXXZ 0000000140017ed0     KizuODBC:OdbcBase.obj
 0002:00005ed0       $unwind$?DisConnect@OdbcManager@KizuODBC@@QEAAXXZ 0000000140017ed0     KizuODBC:OdbcManager.obj
 0002:00005ed0       $unwind$?GetResult@MailSlotManager@KizuLib@@UEAA_NPEAU_OVERLAPPED@@@Z 0000000140017ed0     KizuLib:MailSlotManager.obj
 0002:00005ed0       $unwind$??1OdbcManager@KizuODBC@@UEAA@XZ 0000000140017ed0     KizuODBC:OdbcManager.obj
 0002:00005ed0       $unwind$??0OdbcEnv@KizuODBC@@AEAA@XZ 0000000140017ed0     KizuODBC:OdbcEnv.obj
 0002:00005ed0       $unwind$_onexit            0000000140017ed0     msvcrt:utility.obj
 0002:00005ed0       $unwind$__raise_securityfailure 0000000140017ed0     msvcrt:gs_report.obj
 0002:00005ed0       $unwind$?Free@?$ThreadQueue@D@KizuLib@@QEAAXXZ 0000000140017ed0     KizuLibMFC:LogFileManager.obj
 0002:00005ed0       $unwind$?sync@?$basic_filebuf@DU?$char_traits@D@std@@@std@@MEAAHXZ 0000000140017ed0     KizuLibMFC:LogFileManager.obj
 0002:00005ed0       $unwind$__scrt_release_startup_lock 0000000140017ed0     msvcrt:utility.obj
 0002:00005ed0       $unwind$??0bad_cast@std@@QEAA@AEBV01@@Z 0000000140017ed0     KizuLibMFC:LogFileManager.obj
 0002:00005ed0       $unwind$__scrt_initialize_crt 0000000140017ed0     msvcrt:utility.obj
 0002:00005ed0       $unwind$??1MainInctance@@UEAA@XZ 0000000140017ed0     MainInctance.obj
 0002:00005ed0       $unwind$??$endl@DU?$char_traits@D@std@@@std@@YAAEAV?$basic_ostream@DU?$char_traits@D@std@@@0@AEAV10@@Z 0000000140017ed0     KizuLibMFC:LogFileManager.obj
 0002:00005ed8       $unwind$?GetFromHead@?$ThreadQueue@D@KizuLib@@QEAAPEADXZ 0000000140017ed8     KizuLibMFC:LogFileManager.obj
 0002:00005ed8       $unwind$?GetFromHead@?$ThreadQueue@UCOMMON_QUE@@@KizuLib@@QEAAPEAUCOMMON_QUE@@XZ 0000000140017ed8     CameraManager.obj
 0002:00005ee8       $unwind$?_Tidy@?$deque@PEADV?$allocator@PEAD@std@@@std@@IEAAXXZ 0000000140017ee8     KizuLibMFC:LogFileManager.obj
 0002:00005ee8       $unwind$_RTC_Terminate     0000000140017ee8     msvcrt:_initsect_.obj
 0002:00005ee8       $unwind$?ExecuteDirect@OdbcManager@KizuODBC@@QEAAFPEBD@Z 0000000140017ee8     KizuODBC:OdbcManager.obj
 0002:00005ee8       $unwind$?__scrt_initialize_thread_safe_statics@@YAHXZ 0000000140017ee8     msvcrt:thread_safe_statics.obj
 0002:00005ee8       $unwind$_RTC_Initialize    0000000140017ee8     msvcrt:_initsect_.obj
 0002:00005ee8       $unwind$??_G?$ThreadQueue@UCOMMON_QUE@@@KizuLib@@UEAAPEAXI@Z 0000000140017ee8     CameraManager.obj
 0002:00005ee8       $unwind$??_G?$basic_ofstream@DU?$char_traits@D@std@@@std@@UEAAPEAXI@Z 0000000140017ee8     KizuLibMFC:LogFileManager.obj
 0002:00005ee8       $unwind$?WriteList@LogFileManager@KizuLib@@AEAAXPEBD@Z 0000000140017ee8     KizuLibMFC:LogFileManager.obj
 0002:00005ee8       $unwind$?_Tidy@?$deque@PEAUCOMMON_QUE@@V?$allocator@PEAUCOMMON_QUE@@@std@@@std@@IEAAXXZ 0000000140017ee8     CameraManager.obj
 0002:00005ee8       $unwind$??_G?$ThreadQueue@D@KizuLib@@UEAAPEAXI@Z 0000000140017ee8     KizuLibMFC:LogFileManager.obj
 0002:00005ee8       $unwind$?close@?$basic_filebuf@DU?$char_traits@D@std@@@std@@QEAAPEAV12@XZ 0000000140017ee8     KizuLibMFC:LogFileManager.obj
 0002:00005ef8       $chain$0$?Free@?$ThreadQueue@UCOMMON_QUE@@@KizuLib@@QEAAXXZ 0000000140017ef8     CameraManager.obj
 0002:00005f0c       $chain$1$?Free@?$ThreadQueue@UCOMMON_QUE@@@KizuLib@@QEAAXXZ 0000000140017f0c     CameraManager.obj
 0002:00005f1c       $unwind$??$_Uninitialized_move_al_unchecked1@PEAV?$CStringT@DV?$StrTraitMFC_DLL@DV?$ChTraitsCRT@D@ATL@@@@@ATL@@PEAV12@V?$allocator@V?$CStringT@DV?$StrTraitMFC_DLL@DV?$ChTraitsCRT@D@ATL@@@@@ATL@@@std@@@std@@YAPEAV?$CStringT@DV?$StrTraitMFC_DLL@DV?$ChTraitsCRT@D@ATL@@@@@ATL@@PEAV12@00AEAU?$_Wrap_alloc@V?$allocator@V?$CStringT@DV?$StrTraitMFC_DLL@DV?$ChTraitsCRT@D@ATL@@@@@ATL@@@std@@@0@U_General_ptr_iterator_tag@0@U_Any_tag@0@@Z 0000000140017f1c     CameraManager.obj
 0002:00005f30       $stateUnwindMap$??$_Uninitialized_move_al_unchecked1@PEAV?$CStringT@DV?$StrTraitMFC_DLL@DV?$ChTraitsCRT@D@ATL@@@@@ATL@@PEAV12@V?$allocator@V?$CStringT@DV?$StrTraitMFC_DLL@DV?$ChTraitsCRT@D@ATL@@@@@ATL@@@std@@@std@@YAPEAV?$CStringT@DV?$StrTraitMFC_DLL@DV?$ChTraitsCRT@D@ATL@@@@@ATL@@PEAV12@00AEAU?$_Wrap_alloc@V?$allocator@V?$CStringT@DV?$StrTraitMFC_DLL@DV?$ChTraitsCRT@D@ATL@@@@@ATL@@@std@@@0@U_General_ptr_iterator_tag@0@U_Any_tag@0@@Z 0000000140017f30     CameraManager.obj
 0002:00005f48       $tryMap$??$_Uninitialized_move_al_unchecked1@PEAV?$CStringT@DV?$StrTraitMFC_DLL@DV?$ChTraitsCRT@D@ATL@@@@@ATL@@PEAV12@V?$allocator@V?$CStringT@DV?$StrTraitMFC_DLL@DV?$ChTraitsCRT@D@ATL@@@@@ATL@@@std@@@std@@YAPEAV?$CStringT@DV?$StrTraitMFC_DLL@DV?$ChTraitsCRT@D@ATL@@@@@ATL@@PEAV12@00AEAU?$_Wrap_alloc@V?$allocator@V?$CStringT@DV?$StrTraitMFC_DLL@DV?$ChTraitsCRT@D@ATL@@@@@ATL@@@std@@@0@U_General_ptr_iterator_tag@0@U_Any_tag@0@@Z 0000000140017f48     CameraManager.obj
 0002:00005f5c       $handlerMap$0$??$_Uninitialized_move_al_unchecked1@PEAV?$CStringT@DV?$StrTraitMFC_DLL@DV?$ChTraitsCRT@D@ATL@@@@@ATL@@PEAV12@V?$allocator@V?$CStringT@DV?$StrTraitMFC_DLL@DV?$ChTraitsCRT@D@ATL@@@@@ATL@@@std@@@std@@YAPEAV?$CStringT@DV?$StrTraitMFC_DLL@DV?$ChTraitsCRT@D@ATL@@@@@ATL@@PEAV12@00AEAU?$_Wrap_alloc@V?$allocator@V?$CStringT@DV?$StrTraitMFC_DLL@DV?$ChTraitsCRT@D@ATL@@@@@ATL@@@std@@@0@U_General_ptr_iterator_tag@0@U_Any_tag@0@@Z 0000000140017f5c     CameraManager.obj
 0002:00005f70       $ip2state$??$_Uninitialized_move_al_unchecked1@PEAV?$CStringT@DV?$StrTraitMFC_DLL@DV?$ChTraitsCRT@D@ATL@@@@@ATL@@PEAV12@V?$allocator@V?$CStringT@DV?$StrTraitMFC_DLL@DV?$ChTraitsCRT@D@ATL@@@@@ATL@@@std@@@std@@YAPEAV?$CStringT@DV?$StrTraitMFC_DLL@DV?$ChTraitsCRT@D@ATL@@@@@ATL@@PEAV12@00AEAU?$_Wrap_alloc@V?$allocator@V?$CStringT@DV?$StrTraitMFC_DLL@DV?$ChTraitsCRT@D@ATL@@@@@ATL@@@std@@@0@U_General_ptr_iterator_tag@0@U_Any_tag@0@@Z 0000000140017f70     CameraManager.obj
 0002:00005fa8       $unwind$?catch$5@?0???$_Uninitialized_move_al_unchecked1@PEAV?$CStringT@DV?$StrTraitMFC_DLL@DV?$ChTraitsCRT@D@ATL@@@@@ATL@@PEAV12@V?$allocator@V?$CStringT@DV?$StrTraitMFC_DLL@DV?$ChTraitsCRT@D@ATL@@@@@ATL@@@std@@@std@@YAPEAV?$CStringT@DV?$StrTraitMFC_DLL@DV?$ChTraitsCRT@D@ATL@@@@@ATL@@PEAV12@00AEAU?$_Wrap_alloc@V?$allocator@V?$CStringT@DV?$StrTraitMFC_DLL@DV?$ChTraitsCRT@D@ATL@@@@@ATL@@@std@@@0@U_General_ptr_iterator_tag@0@U_Any_tag@0@@Z@4HA 0000000140017fa8     CameraManager.obj
 0002:00005fbc       $unwind$sprintf            0000000140017fbc     CameraManager.obj
 0002:00005fc8       $unwind$?Init@MainInctance@@QEAAHXZ 0000000140017fc8     MainInctance.obj
 0002:00005ff0       $stateUnwindMap$?Init@MainInctance@@QEAAHXZ 0000000140017ff0     MainInctance.obj
 0002:00006008       $ip2state$?Init@MainInctance@@QEAAHXZ 0000000140018008     MainInctance.obj
 0002:00006040       $unwind$?Exit@MainInctance@@QEAAXXZ 0000000140018040     MainInctance.obj
 0002:00006040       $unwind$?AddToTail@?$ThreadQueue@UCOMMON_QUE@@@KizuLib@@QEAAHPEAUCOMMON_QUE@@@Z 0000000140018040     TO_CAMERADlg.obj
 0002:00006058       $unwind$?MainThread@MainInctance@@CAIPEAX@Z 0000000140018058     MainInctance.obj
 0002:00006060       $unwind$?InitInstance@CTO_CAMERAApp@@UEAAHXZ 0000000140018060     TO_CAMERA.obj
 0002:00006074       $stateUnwindMap$?InitInstance@CTO_CAMERAApp@@UEAAHXZ 0000000140018074     TO_CAMERA.obj
 0002:00006080       $ip2state$?InitInstance@CTO_CAMERAApp@@UEAAHXZ 0000000140018080     TO_CAMERA.obj
 0002:00006098       $unwind$??0CTO_CAMERADlg@@QEAA@PEAVCWnd@@@Z 0000000140018098     TO_CAMERADlg.obj
 0002:000060b0       $stateUnwindMap$??0CTO_CAMERADlg@@QEAA@PEAVCWnd@@@Z 00000001400180b0     TO_CAMERADlg.obj
 0002:000060d8       $ip2state$??0CTO_CAMERADlg@@QEAA@PEAVCWnd@@@Z 00000001400180d8     TO_CAMERADlg.obj
 0002:00006110       $unwind$?OnInitDialog@CTO_CAMERADlg@@MEAAHXZ 0000000140018110     TO_CAMERADlg.obj
 0002:00006120       $stateUnwindMap$?OnInitDialog@CTO_CAMERADlg@@MEAAHXZ 0000000140018120     TO_CAMERADlg.obj
 0002:00006130       $ip2state$?OnInitDialog@CTO_CAMERADlg@@MEAAHXZ 0000000140018130     TO_CAMERADlg.obj
 0002:00006158       $unwind$?OnPaint@CTO_CAMERADlg@@IEAAXXZ 0000000140018158     TO_CAMERADlg.obj
 0002:0000616c       $chain$1$?OnPaint@CTO_CAMERADlg@@IEAAXXZ 000000014001816c     TO_CAMERADlg.obj
 0002:00006184       $chain$2$?OnPaint@CTO_CAMERADlg@@IEAAXXZ 0000000140018184     TO_CAMERADlg.obj
 0002:00006194       $unwind$?OnBnClickedRodown13@CTO_CAMERADlg@@QEAAXXZ 0000000140018194     TO_CAMERADlg.obj
 0002:00006194       $unwind$?OnBnClickedRodown12@CTO_CAMERADlg@@QEAAXXZ 0000000140018194     TO_CAMERADlg.obj
 0002:00006194       $unwind$?OnBnClickedRodown14@CTO_CAMERADlg@@QEAAXXZ 0000000140018194     TO_CAMERADlg.obj
 0002:00006194       $unwind$?OnBnClickedDebugScodeT@CTO_CAMERADlg@@QEAAXXZ 0000000140018194     TO_CAMERADlg.obj
 0002:00006194       $unwind$?OnBnClickedDebugPlsoff@CTO_CAMERADlg@@QEAAXXZ 0000000140018194     TO_CAMERADlg.obj
 0002:00006194       $unwind$?OnBnClickedRoup19@CTO_CAMERADlg@@QEAAXXZ 0000000140018194     TO_CAMERADlg.obj
 0002:00006194       $unwind$?OnBnClickedDebugScodeB@CTO_CAMERADlg@@QEAAXXZ 0000000140018194     TO_CAMERADlg.obj
 0002:00006194       $unwind$?OnBnClickedDebugInit@CTO_CAMERADlg@@QEAAXXZ 0000000140018194     TO_CAMERADlg.obj
 0002:00006194       $unwind$?OnBnClickedDebugPlson@CTO_CAMERADlg@@QEAAXXZ 0000000140018194     TO_CAMERADlg.obj
 0002:00006194       $unwind$?OnBnClickedRodown10@CTO_CAMERADlg@@QEAAXXZ 0000000140018194     TO_CAMERADlg.obj
 0002:00006194       $unwind$?OnBnClickedDebugAgc@CTO_CAMERADlg@@QEAAXXZ 0000000140018194     TO_CAMERADlg.obj
 0002:00006194       $unwind$?OnBnClickedRodown11@CTO_CAMERADlg@@QEAAXXZ 0000000140018194     TO_CAMERADlg.obj
 0002:00006194       $unwind$?OnBnClickedRodown26@CTO_CAMERADlg@@QEAAXXZ 0000000140018194     TO_CAMERADlg.obj
 0002:00006194       $unwind$?OnBnClickedDebugParam@CTO_CAMERADlg@@QEAAXXZ 0000000140018194     TO_CAMERADlg.obj
 0002:00006194       $unwind$?OnBnClickedRodown15@CTO_CAMERADlg@@QEAAXXZ 0000000140018194     TO_CAMERADlg.obj
 0002:00006194       $unwind$?OnBnClickedRodown9@CTO_CAMERADlg@@QEAAXXZ 0000000140018194     TO_CAMERADlg.obj
 0002:00006194       $unwind$?OnBnClickedRoup2@CTO_CAMERADlg@@QEAAXXZ 0000000140018194     TO_CAMERADlg.obj
 0002:00006194       $unwind$?OnBnClickedRodown8@CTO_CAMERADlg@@QEAAXXZ 0000000140018194     TO_CAMERADlg.obj
 0002:00006194       $unwind$?OnBnClickedRoup3@CTO_CAMERADlg@@QEAAXXZ 0000000140018194     TO_CAMERADlg.obj
 0002:00006194       $unwind$?OnBnClickedRodown7@CTO_CAMERADlg@@QEAAXXZ 0000000140018194     TO_CAMERADlg.obj
 0002:00006194       $unwind$?OnBnClickedRoup4@CTO_CAMERADlg@@QEAAXXZ 0000000140018194     TO_CAMERADlg.obj
 0002:00006194       $unwind$?OnBnClickedRodown6@CTO_CAMERADlg@@QEAAXXZ 0000000140018194     TO_CAMERADlg.obj
 0002:00006194       $unwind$?OnBnClickedRoup5@CTO_CAMERADlg@@QEAAXXZ 0000000140018194     TO_CAMERADlg.obj
 0002:00006194       $unwind$?OnBnClickedRodown5@CTO_CAMERADlg@@QEAAXXZ 0000000140018194     TO_CAMERADlg.obj
 0002:00006194       $unwind$?OnBnClickedRoup25@CTO_CAMERADlg@@QEAAXXZ 0000000140018194     TO_CAMERADlg.obj
 0002:00006194       $unwind$?OnBnClickedRodown16@CTO_CAMERADlg@@QEAAXXZ 0000000140018194     TO_CAMERADlg.obj
 0002:00006194       $unwind$?OnBnClickedRoup6@CTO_CAMERADlg@@QEAAXXZ 0000000140018194     TO_CAMERADlg.obj
 0002:00006194       $unwind$?OnBnClickedRodown4@CTO_CAMERADlg@@QEAAXXZ 0000000140018194     TO_CAMERADlg.obj
 0002:00006194       $unwind$?OnBnClickedRodown3@CTO_CAMERADlg@@QEAAXXZ 0000000140018194     TO_CAMERADlg.obj
 0002:00006194       $unwind$?OnBnClickedCmdSend@CTO_CAMERADlg@@QEAAXXZ 0000000140018194     TO_CAMERADlg.obj
 0002:00006194       $unwind$?OnBnClickedRodown27@CTO_CAMERADlg@@QEAAXXZ 0000000140018194     TO_CAMERADlg.obj
 0002:00006194       $unwind$?OnBnClickedRoup7@CTO_CAMERADlg@@QEAAXXZ 0000000140018194     TO_CAMERADlg.obj
 0002:00006194       $unwind$?OnBnClickedRodown2@CTO_CAMERADlg@@QEAAXXZ 0000000140018194     TO_CAMERADlg.obj
 0002:00006194       $unwind$?OnBnClickedRodown1@CTO_CAMERADlg@@QEAAXXZ 0000000140018194     TO_CAMERADlg.obj
 0002:00006194       $unwind$?OnBnClickedRoup8@CTO_CAMERADlg@@QEAAXXZ 0000000140018194     TO_CAMERADlg.obj
 0002:00006194       $unwind$?OnBnClickedDebugCheckInit@CTO_CAMERADlg@@QEAAXXZ 0000000140018194     TO_CAMERADlg.obj
 0002:00006194       $unwind$?OnBnClickedOk@CTO_CAMERADlg@@QEAAXXZ 0000000140018194     TO_CAMERADlg.obj
 0002:00006194       $unwind$?OnBnClickedRodown17@CTO_CAMERADlg@@QEAAXXZ 0000000140018194     TO_CAMERADlg.obj
 0002:00006194       $unwind$?OnBnClickedRodown32@CTO_CAMERADlg@@QEAAXXZ 0000000140018194     TO_CAMERADlg.obj
 0002:00006194       $unwind$?OnBnClickedRoup32@CTO_CAMERADlg@@QEAAXXZ 0000000140018194     TO_CAMERADlg.obj
 0002:00006194       $unwind$?OnBnClickedRodown18@CTO_CAMERADlg@@QEAAXXZ 0000000140018194     TO_CAMERADlg.obj
 0002:00006194       $unwind$?OnBnClickedRoup31@CTO_CAMERADlg@@QEAAXXZ 0000000140018194     TO_CAMERADlg.obj
 0002:00006194       $unwind$?OnBnClickedRodown19@CTO_CAMERADlg@@QEAAXXZ 0000000140018194     TO_CAMERADlg.obj
 0002:00006194       $unwind$?OnBnClickedRodown28@CTO_CAMERADlg@@QEAAXXZ 0000000140018194     TO_CAMERADlg.obj
 0002:00006194       $unwind$?OnBnClickedRoup9@CTO_CAMERADlg@@QEAAXXZ 0000000140018194     TO_CAMERADlg.obj
 0002:00006194       $unwind$?OnBnClickedRodown20@CTO_CAMERADlg@@QEAAXXZ 0000000140018194     TO_CAMERADlg.obj
 0002:00006194       $unwind$?OnBnClickedRoup15@CTO_CAMERADlg@@QEAAXXZ 0000000140018194     TO_CAMERADlg.obj
 0002:00006194       $unwind$?OnBnClickedRodown31@CTO_CAMERADlg@@QEAAXXZ 0000000140018194     TO_CAMERADlg.obj
 0002:00006194       $unwind$?OnBnClickedRodown21@CTO_CAMERADlg@@QEAAXXZ 0000000140018194     TO_CAMERADlg.obj
 0002:00006194       $unwind$?OnBnClickedRoup30@CTO_CAMERADlg@@QEAAXXZ 0000000140018194     TO_CAMERADlg.obj
 0002:00006194       $unwind$?OnBnClickedRodown22@CTO_CAMERADlg@@QEAAXXZ 0000000140018194     TO_CAMERADlg.obj
 0002:00006194       $unwind$?OnBnClickedRoup20@CTO_CAMERADlg@@QEAAXXZ 0000000140018194     TO_CAMERADlg.obj
 0002:00006194       $unwind$?OnBnClickedRoup10@CTO_CAMERADlg@@QEAAXXZ 0000000140018194     TO_CAMERADlg.obj
 0002:00006194       $unwind$?OnBnClickedRoup16@CTO_CAMERADlg@@QEAAXXZ 0000000140018194     TO_CAMERADlg.obj
 0002:00006194       $unwind$?OnBnClickedRoup21@CTO_CAMERADlg@@QEAAXXZ 0000000140018194     TO_CAMERADlg.obj
 0002:00006194       $unwind$?OnBnClickedRoup29@CTO_CAMERADlg@@QEAAXXZ 0000000140018194     TO_CAMERADlg.obj
 0002:00006194       $unwind$?OnBnClickedRodown23@CTO_CAMERADlg@@QEAAXXZ 0000000140018194     TO_CAMERADlg.obj
 0002:00006194       $unwind$?OnBnClickedRoup11@CTO_CAMERADlg@@QEAAXXZ 0000000140018194     TO_CAMERADlg.obj
 0002:00006194       $unwind$?OnBnClickedRodown30@CTO_CAMERADlg@@QEAAXXZ 0000000140018194     TO_CAMERADlg.obj
 0002:00006194       $unwind$?OnBnClickedRoup18@CTO_CAMERADlg@@QEAAXXZ 0000000140018194     TO_CAMERADlg.obj
 0002:00006194       $unwind$?OnBnClickedRoup22@CTO_CAMERADlg@@QEAAXXZ 0000000140018194     TO_CAMERADlg.obj
 0002:00006194       $unwind$?OnBnClickedRodown24@CTO_CAMERADlg@@QEAAXXZ 0000000140018194     TO_CAMERADlg.obj
 0002:00006194       $unwind$?OnBnClickedRoup28@CTO_CAMERADlg@@QEAAXXZ 0000000140018194     TO_CAMERADlg.obj
 0002:00006194       $unwind$?OnBnClickedRoup17@CTO_CAMERADlg@@QEAAXXZ 0000000140018194     TO_CAMERADlg.obj
 0002:00006194       $unwind$?OnBnClickedRodown29@CTO_CAMERADlg@@QEAAXXZ 0000000140018194     TO_CAMERADlg.obj
 0002:00006194       $unwind$?OnBnClickedRoup12@CTO_CAMERADlg@@QEAAXXZ 0000000140018194     TO_CAMERADlg.obj
 0002:00006194       $unwind$?OnBnClickedRoup23@CTO_CAMERADlg@@QEAAXXZ 0000000140018194     TO_CAMERADlg.obj
 0002:00006194       $unwind$?OnBnClickedRoup1@CTO_CAMERADlg@@QEAAXXZ 0000000140018194     TO_CAMERADlg.obj
 0002:00006194       $unwind$?OnBnClickedRoup27@CTO_CAMERADlg@@QEAAXXZ 0000000140018194     TO_CAMERADlg.obj
 0002:00006194       $unwind$?OnBnClickedRodown25@CTO_CAMERADlg@@QEAAXXZ 0000000140018194     TO_CAMERADlg.obj
 0002:00006194       $unwind$?OnBnClickedRoup13@CTO_CAMERADlg@@QEAAXXZ 0000000140018194     TO_CAMERADlg.obj
 0002:00006194       $unwind$?OnBnClickedRoup26@CTO_CAMERADlg@@QEAAXXZ 0000000140018194     TO_CAMERADlg.obj
 0002:00006194       $unwind$?OnBnClickedRoup24@CTO_CAMERADlg@@QEAAXXZ 0000000140018194     TO_CAMERADlg.obj
 0002:00006194       $unwind$?OnBnClickedRoup14@CTO_CAMERADlg@@QEAAXXZ 0000000140018194     TO_CAMERADlg.obj
 0002:000061a0       $unwind$?InitProcess@CTO_CAMERADlg@@AEAAXXZ 00000001400181a0     TO_CAMERADlg.obj
 0002:000061b8       $stateUnwindMap$?InitProcess@CTO_CAMERADlg@@AEAAXXZ 00000001400181b8     TO_CAMERADlg.obj
 0002:000061c0       $ip2state$?InitProcess@CTO_CAMERADlg@@AEAAXXZ 00000001400181c0     TO_CAMERADlg.obj
 0002:000061d8       $unwind$?MainThread@CTO_CAMERADlg@@CAIPEAX@Z 00000001400181d8     TO_CAMERADlg.obj
 0002:000061f0       $unwind$?CommandSender@CTO_CAMERADlg@@AEAAXPEAUCOMMON_QUE@@@Z 00000001400181f0     TO_CAMERADlg.obj
 0002:000061fc       $chain$1$?CommandSender@CTO_CAMERADlg@@AEAAXPEAUCOMMON_QUE@@@Z 00000001400181fc     TO_CAMERADlg.obj
 0002:00006214       $chain$2$?CommandSender@CTO_CAMERADlg@@AEAAXPEAUCOMMON_QUE@@@Z 0000000140018214     TO_CAMERADlg.obj
 0002:00006224       $unwind$?OnTimer@CTO_CAMERADlg@@QEAAX_K@Z 0000000140018224     TO_CAMERADlg.obj
 0002:00006250       $ip2state$?OnTimer@CTO_CAMERADlg@@QEAAX_K@Z 0000000140018250     TO_CAMERADlg.obj
 0002:00006268       $chain$0$?OnBnClickedDebugInit@CTO_CAMERADlg@@QEAAXXZ 0000000140018268     TO_CAMERADlg.obj
 0002:0000627c       $chain$1$?OnBnClickedDebugInit@CTO_CAMERADlg@@QEAAXXZ 000000014001827c     TO_CAMERADlg.obj
 0002:0000628c       $chain$0$?OnBnClickedDebugCheckInit@CTO_CAMERADlg@@QEAAXXZ 000000014001828c     TO_CAMERADlg.obj
 0002:000062a0       $chain$1$?OnBnClickedDebugCheckInit@CTO_CAMERADlg@@QEAAXXZ 00000001400182a0     TO_CAMERADlg.obj
 0002:000062b0       $chain$0$?OnBnClickedDebugScodeT@CTO_CAMERADlg@@QEAAXXZ 00000001400182b0     TO_CAMERADlg.obj
 0002:000062c4       $chain$1$?OnBnClickedDebugScodeT@CTO_CAMERADlg@@QEAAXXZ 00000001400182c4     TO_CAMERADlg.obj
 0002:000062d4       $chain$0$?OnBnClickedDebugScodeB@CTO_CAMERADlg@@QEAAXXZ 00000001400182d4     TO_CAMERADlg.obj
 0002:000062e8       $chain$1$?OnBnClickedDebugScodeB@CTO_CAMERADlg@@QEAAXXZ 00000001400182e8     TO_CAMERADlg.obj
 0002:000062f8       $chain$0$?OnBnClickedDebugAgc@CTO_CAMERADlg@@QEAAXXZ 00000001400182f8     TO_CAMERADlg.obj
 0002:0000630c       $chain$1$?OnBnClickedDebugAgc@CTO_CAMERADlg@@QEAAXXZ 000000014001830c     TO_CAMERADlg.obj
 0002:0000631c       $chain$0$?OnBnClickedRoup1@CTO_CAMERADlg@@QEAAXXZ 000000014001831c     TO_CAMERADlg.obj
 0002:00006330       $chain$1$?OnBnClickedRoup1@CTO_CAMERADlg@@QEAAXXZ 0000000140018330     TO_CAMERADlg.obj
 0002:00006340       $chain$0$?OnBnClickedRoup2@CTO_CAMERADlg@@QEAAXXZ 0000000140018340     TO_CAMERADlg.obj
 0002:00006354       $chain$1$?OnBnClickedRoup2@CTO_CAMERADlg@@QEAAXXZ 0000000140018354     TO_CAMERADlg.obj
 0002:00006364       $chain$0$?OnBnClickedRoup3@CTO_CAMERADlg@@QEAAXXZ 0000000140018364     TO_CAMERADlg.obj
 0002:00006378       $chain$1$?OnBnClickedRoup3@CTO_CAMERADlg@@QEAAXXZ 0000000140018378     TO_CAMERADlg.obj
 0002:00006388       $chain$0$?OnBnClickedRoup4@CTO_CAMERADlg@@QEAAXXZ 0000000140018388     TO_CAMERADlg.obj
 0002:0000639c       $chain$1$?OnBnClickedRoup4@CTO_CAMERADlg@@QEAAXXZ 000000014001839c     TO_CAMERADlg.obj
 0002:000063ac       $chain$0$?OnBnClickedRoup5@CTO_CAMERADlg@@QEAAXXZ 00000001400183ac     TO_CAMERADlg.obj
 0002:000063c0       $chain$1$?OnBnClickedRoup5@CTO_CAMERADlg@@QEAAXXZ 00000001400183c0     TO_CAMERADlg.obj
 0002:000063d0       $chain$0$?OnBnClickedRoup6@CTO_CAMERADlg@@QEAAXXZ 00000001400183d0     TO_CAMERADlg.obj
 0002:000063e4       $chain$1$?OnBnClickedRoup6@CTO_CAMERADlg@@QEAAXXZ 00000001400183e4     TO_CAMERADlg.obj
 0002:000063f4       $chain$0$?OnBnClickedRoup7@CTO_CAMERADlg@@QEAAXXZ 00000001400183f4     TO_CAMERADlg.obj
 0002:00006408       $chain$1$?OnBnClickedRoup7@CTO_CAMERADlg@@QEAAXXZ 0000000140018408     TO_CAMERADlg.obj
 0002:00006418       $chain$0$?OnBnClickedRoup8@CTO_CAMERADlg@@QEAAXXZ 0000000140018418     TO_CAMERADlg.obj
 0002:0000642c       $chain$1$?OnBnClickedRoup8@CTO_CAMERADlg@@QEAAXXZ 000000014001842c     TO_CAMERADlg.obj
 0002:0000643c       $chain$0$?OnBnClickedRoup9@CTO_CAMERADlg@@QEAAXXZ 000000014001843c     TO_CAMERADlg.obj
 0002:00006450       $chain$1$?OnBnClickedRoup9@CTO_CAMERADlg@@QEAAXXZ 0000000140018450     TO_CAMERADlg.obj
 0002:00006460       $chain$0$?OnBnClickedRoup10@CTO_CAMERADlg@@QEAAXXZ 0000000140018460     TO_CAMERADlg.obj
 0002:00006474       $chain$1$?OnBnClickedRoup10@CTO_CAMERADlg@@QEAAXXZ 0000000140018474     TO_CAMERADlg.obj
 0002:00006484       $chain$0$?OnBnClickedRoup11@CTO_CAMERADlg@@QEAAXXZ 0000000140018484     TO_CAMERADlg.obj
 0002:00006498       $chain$1$?OnBnClickedRoup11@CTO_CAMERADlg@@QEAAXXZ 0000000140018498     TO_CAMERADlg.obj
 0002:000064a8       $chain$0$?OnBnClickedRoup12@CTO_CAMERADlg@@QEAAXXZ 00000001400184a8     TO_CAMERADlg.obj
 0002:000064bc       $chain$1$?OnBnClickedRoup12@CTO_CAMERADlg@@QEAAXXZ 00000001400184bc     TO_CAMERADlg.obj
 0002:000064cc       $chain$0$?OnBnClickedRoup13@CTO_CAMERADlg@@QEAAXXZ 00000001400184cc     TO_CAMERADlg.obj
 0002:000064e0       $chain$1$?OnBnClickedRoup13@CTO_CAMERADlg@@QEAAXXZ 00000001400184e0     TO_CAMERADlg.obj
 0002:000064f0       $chain$0$?OnBnClickedRoup14@CTO_CAMERADlg@@QEAAXXZ 00000001400184f0     TO_CAMERADlg.obj
 0002:00006504       $chain$1$?OnBnClickedRoup14@CTO_CAMERADlg@@QEAAXXZ 0000000140018504     TO_CAMERADlg.obj
 0002:00006514       $chain$0$?OnBnClickedRoup15@CTO_CAMERADlg@@QEAAXXZ 0000000140018514     TO_CAMERADlg.obj
 0002:00006528       $chain$1$?OnBnClickedRoup15@CTO_CAMERADlg@@QEAAXXZ 0000000140018528     TO_CAMERADlg.obj
 0002:00006538       $chain$0$?OnBnClickedRoup16@CTO_CAMERADlg@@QEAAXXZ 0000000140018538     TO_CAMERADlg.obj
 0002:0000654c       $chain$1$?OnBnClickedRoup16@CTO_CAMERADlg@@QEAAXXZ 000000014001854c     TO_CAMERADlg.obj
 0002:0000655c       $chain$0$?OnBnClickedRoup17@CTO_CAMERADlg@@QEAAXXZ 000000014001855c     TO_CAMERADlg.obj
 0002:00006570       $chain$1$?OnBnClickedRoup17@CTO_CAMERADlg@@QEAAXXZ 0000000140018570     TO_CAMERADlg.obj
 0002:00006580       $chain$0$?OnBnClickedRoup18@CTO_CAMERADlg@@QEAAXXZ 0000000140018580     TO_CAMERADlg.obj
 0002:00006594       $chain$1$?OnBnClickedRoup18@CTO_CAMERADlg@@QEAAXXZ 0000000140018594     TO_CAMERADlg.obj
 0002:000065a4       $chain$0$?OnBnClickedRoup19@CTO_CAMERADlg@@QEAAXXZ 00000001400185a4     TO_CAMERADlg.obj
 0002:000065b8       $chain$1$?OnBnClickedRoup19@CTO_CAMERADlg@@QEAAXXZ 00000001400185b8     TO_CAMERADlg.obj
 0002:000065c8       $chain$0$?OnBnClickedRoup20@CTO_CAMERADlg@@QEAAXXZ 00000001400185c8     TO_CAMERADlg.obj
 0002:000065dc       $chain$1$?OnBnClickedRoup20@CTO_CAMERADlg@@QEAAXXZ 00000001400185dc     TO_CAMERADlg.obj
 0002:000065ec       $chain$0$?OnBnClickedRoup21@CTO_CAMERADlg@@QEAAXXZ 00000001400185ec     TO_CAMERADlg.obj
 0002:00006600       $chain$1$?OnBnClickedRoup21@CTO_CAMERADlg@@QEAAXXZ 0000000140018600     TO_CAMERADlg.obj
 0002:00006610       $chain$0$?OnBnClickedRoup22@CTO_CAMERADlg@@QEAAXXZ 0000000140018610     TO_CAMERADlg.obj
 0002:00006624       $chain$1$?OnBnClickedRoup22@CTO_CAMERADlg@@QEAAXXZ 0000000140018624     TO_CAMERADlg.obj
 0002:00006634       $chain$0$?OnBnClickedRoup23@CTO_CAMERADlg@@QEAAXXZ 0000000140018634     TO_CAMERADlg.obj
 0002:00006648       $chain$1$?OnBnClickedRoup23@CTO_CAMERADlg@@QEAAXXZ 0000000140018648     TO_CAMERADlg.obj
 0002:00006658       $chain$0$?OnBnClickedRoup24@CTO_CAMERADlg@@QEAAXXZ 0000000140018658     TO_CAMERADlg.obj
 0002:0000666c       $chain$1$?OnBnClickedRoup24@CTO_CAMERADlg@@QEAAXXZ 000000014001866c     TO_CAMERADlg.obj
 0002:0000667c       $chain$0$?OnBnClickedRoup25@CTO_CAMERADlg@@QEAAXXZ 000000014001867c     TO_CAMERADlg.obj
 0002:00006690       $chain$1$?OnBnClickedRoup25@CTO_CAMERADlg@@QEAAXXZ 0000000140018690     TO_CAMERADlg.obj
 0002:000066a0       $chain$0$?OnBnClickedRoup26@CTO_CAMERADlg@@QEAAXXZ 00000001400186a0     TO_CAMERADlg.obj
 0002:000066b4       $chain$1$?OnBnClickedRoup26@CTO_CAMERADlg@@QEAAXXZ 00000001400186b4     TO_CAMERADlg.obj
 0002:000066c4       $chain$0$?OnBnClickedRoup27@CTO_CAMERADlg@@QEAAXXZ 00000001400186c4     TO_CAMERADlg.obj
 0002:000066d8       $chain$1$?OnBnClickedRoup27@CTO_CAMERADlg@@QEAAXXZ 00000001400186d8     TO_CAMERADlg.obj
 0002:000066e8       $chain$0$?OnBnClickedRoup28@CTO_CAMERADlg@@QEAAXXZ 00000001400186e8     TO_CAMERADlg.obj
 0002:000066fc       $chain$1$?OnBnClickedRoup28@CTO_CAMERADlg@@QEAAXXZ 00000001400186fc     TO_CAMERADlg.obj
 0002:0000670c       $chain$0$?OnBnClickedRoup29@CTO_CAMERADlg@@QEAAXXZ 000000014001870c     TO_CAMERADlg.obj
 0002:00006720       $chain$1$?OnBnClickedRoup29@CTO_CAMERADlg@@QEAAXXZ 0000000140018720     TO_CAMERADlg.obj
 0002:00006730       $chain$0$?OnBnClickedRoup30@CTO_CAMERADlg@@QEAAXXZ 0000000140018730     TO_CAMERADlg.obj
 0002:00006744       $chain$1$?OnBnClickedRoup30@CTO_CAMERADlg@@QEAAXXZ 0000000140018744     TO_CAMERADlg.obj
 0002:00006754       $chain$0$?OnBnClickedRoup31@CTO_CAMERADlg@@QEAAXXZ 0000000140018754     TO_CAMERADlg.obj
 0002:00006768       $chain$1$?OnBnClickedRoup31@CTO_CAMERADlg@@QEAAXXZ 0000000140018768     TO_CAMERADlg.obj
 0002:00006778       $chain$0$?OnBnClickedRoup32@CTO_CAMERADlg@@QEAAXXZ 0000000140018778     TO_CAMERADlg.obj
 0002:0000678c       $chain$1$?OnBnClickedRoup32@CTO_CAMERADlg@@QEAAXXZ 000000014001878c     TO_CAMERADlg.obj
 0002:0000679c       $chain$0$?OnBnClickedRodown1@CTO_CAMERADlg@@QEAAXXZ 000000014001879c     TO_CAMERADlg.obj
 0002:000067b0       $chain$1$?OnBnClickedRodown1@CTO_CAMERADlg@@QEAAXXZ 00000001400187b0     TO_CAMERADlg.obj
 0002:000067c0       $chain$0$?OnBnClickedRodown2@CTO_CAMERADlg@@QEAAXXZ 00000001400187c0     TO_CAMERADlg.obj
 0002:000067d4       $chain$1$?OnBnClickedRodown2@CTO_CAMERADlg@@QEAAXXZ 00000001400187d4     TO_CAMERADlg.obj
 0002:000067e4       $chain$0$?OnBnClickedRodown3@CTO_CAMERADlg@@QEAAXXZ 00000001400187e4     TO_CAMERADlg.obj
 0002:000067f8       $chain$1$?OnBnClickedRodown3@CTO_CAMERADlg@@QEAAXXZ 00000001400187f8     TO_CAMERADlg.obj
 0002:00006808       $chain$0$?OnBnClickedRodown4@CTO_CAMERADlg@@QEAAXXZ 0000000140018808     TO_CAMERADlg.obj
 0002:0000681c       $chain$1$?OnBnClickedRodown4@CTO_CAMERADlg@@QEAAXXZ 000000014001881c     TO_CAMERADlg.obj
 0002:0000682c       $chain$0$?OnBnClickedRodown5@CTO_CAMERADlg@@QEAAXXZ 000000014001882c     TO_CAMERADlg.obj
 0002:00006840       $chain$1$?OnBnClickedRodown5@CTO_CAMERADlg@@QEAAXXZ 0000000140018840     TO_CAMERADlg.obj
 0002:00006850       $chain$0$?OnBnClickedRodown6@CTO_CAMERADlg@@QEAAXXZ 0000000140018850     TO_CAMERADlg.obj
 0002:00006864       $chain$1$?OnBnClickedRodown6@CTO_CAMERADlg@@QEAAXXZ 0000000140018864     TO_CAMERADlg.obj
 0002:00006874       $chain$0$?OnBnClickedRodown7@CTO_CAMERADlg@@QEAAXXZ 0000000140018874     TO_CAMERADlg.obj
 0002:00006888       $chain$1$?OnBnClickedRodown7@CTO_CAMERADlg@@QEAAXXZ 0000000140018888     TO_CAMERADlg.obj
 0002:00006898       $chain$0$?OnBnClickedRodown8@CTO_CAMERADlg@@QEAAXXZ 0000000140018898     TO_CAMERADlg.obj
 0002:000068ac       $chain$1$?OnBnClickedRodown8@CTO_CAMERADlg@@QEAAXXZ 00000001400188ac     TO_CAMERADlg.obj
 0002:000068bc       $chain$0$?OnBnClickedRodown9@CTO_CAMERADlg@@QEAAXXZ 00000001400188bc     TO_CAMERADlg.obj
 0002:000068d0       $chain$1$?OnBnClickedRodown9@CTO_CAMERADlg@@QEAAXXZ 00000001400188d0     TO_CAMERADlg.obj
 0002:000068e0       $chain$0$?OnBnClickedRodown10@CTO_CAMERADlg@@QEAAXXZ 00000001400188e0     TO_CAMERADlg.obj
 0002:000068f4       $chain$1$?OnBnClickedRodown10@CTO_CAMERADlg@@QEAAXXZ 00000001400188f4     TO_CAMERADlg.obj
 0002:00006904       $chain$0$?OnBnClickedRodown11@CTO_CAMERADlg@@QEAAXXZ 0000000140018904     TO_CAMERADlg.obj
 0002:00006918       $chain$1$?OnBnClickedRodown11@CTO_CAMERADlg@@QEAAXXZ 0000000140018918     TO_CAMERADlg.obj
 0002:00006928       $chain$0$?OnBnClickedRodown12@CTO_CAMERADlg@@QEAAXXZ 0000000140018928     TO_CAMERADlg.obj
 0002:0000693c       $chain$1$?OnBnClickedRodown12@CTO_CAMERADlg@@QEAAXXZ 000000014001893c     TO_CAMERADlg.obj
 0002:0000694c       $chain$0$?OnBnClickedRodown13@CTO_CAMERADlg@@QEAAXXZ 000000014001894c     TO_CAMERADlg.obj
 0002:00006960       $chain$1$?OnBnClickedRodown13@CTO_CAMERADlg@@QEAAXXZ 0000000140018960     TO_CAMERADlg.obj
 0002:00006970       $chain$0$?OnBnClickedRodown14@CTO_CAMERADlg@@QEAAXXZ 0000000140018970     TO_CAMERADlg.obj
 0002:00006984       $chain$1$?OnBnClickedRodown14@CTO_CAMERADlg@@QEAAXXZ 0000000140018984     TO_CAMERADlg.obj
 0002:00006994       $chain$0$?OnBnClickedRodown15@CTO_CAMERADlg@@QEAAXXZ 0000000140018994     TO_CAMERADlg.obj
 0002:000069a8       $chain$1$?OnBnClickedRodown15@CTO_CAMERADlg@@QEAAXXZ 00000001400189a8     TO_CAMERADlg.obj
 0002:000069b8       $chain$0$?OnBnClickedRodown16@CTO_CAMERADlg@@QEAAXXZ 00000001400189b8     TO_CAMERADlg.obj
 0002:000069cc       $chain$1$?OnBnClickedRodown16@CTO_CAMERADlg@@QEAAXXZ 00000001400189cc     TO_CAMERADlg.obj
 0002:000069dc       $chain$0$?OnBnClickedRodown17@CTO_CAMERADlg@@QEAAXXZ 00000001400189dc     TO_CAMERADlg.obj
 0002:000069f0       $chain$1$?OnBnClickedRodown17@CTO_CAMERADlg@@QEAAXXZ 00000001400189f0     TO_CAMERADlg.obj
 0002:00006a00       $chain$0$?OnBnClickedRodown18@CTO_CAMERADlg@@QEAAXXZ 0000000140018a00     TO_CAMERADlg.obj
 0002:00006a14       $chain$1$?OnBnClickedRodown18@CTO_CAMERADlg@@QEAAXXZ 0000000140018a14     TO_CAMERADlg.obj
 0002:00006a24       $chain$0$?OnBnClickedRodown19@CTO_CAMERADlg@@QEAAXXZ 0000000140018a24     TO_CAMERADlg.obj
 0002:00006a38       $chain$1$?OnBnClickedRodown19@CTO_CAMERADlg@@QEAAXXZ 0000000140018a38     TO_CAMERADlg.obj
 0002:00006a48       $chain$0$?OnBnClickedRodown20@CTO_CAMERADlg@@QEAAXXZ 0000000140018a48     TO_CAMERADlg.obj
 0002:00006a5c       $chain$1$?OnBnClickedRodown20@CTO_CAMERADlg@@QEAAXXZ 0000000140018a5c     TO_CAMERADlg.obj
 0002:00006a6c       $chain$0$?OnBnClickedRodown21@CTO_CAMERADlg@@QEAAXXZ 0000000140018a6c     TO_CAMERADlg.obj
 0002:00006a80       $chain$1$?OnBnClickedRodown21@CTO_CAMERADlg@@QEAAXXZ 0000000140018a80     TO_CAMERADlg.obj
 0002:00006a90       $chain$0$?OnBnClickedRodown22@CTO_CAMERADlg@@QEAAXXZ 0000000140018a90     TO_CAMERADlg.obj
 0002:00006aa4       $chain$1$?OnBnClickedRodown22@CTO_CAMERADlg@@QEAAXXZ 0000000140018aa4     TO_CAMERADlg.obj
 0002:00006ab4       $chain$0$?OnBnClickedRodown23@CTO_CAMERADlg@@QEAAXXZ 0000000140018ab4     TO_CAMERADlg.obj
 0002:00006ac8       $chain$1$?OnBnClickedRodown23@CTO_CAMERADlg@@QEAAXXZ 0000000140018ac8     TO_CAMERADlg.obj
 0002:00006ad8       $chain$0$?OnBnClickedRodown24@CTO_CAMERADlg@@QEAAXXZ 0000000140018ad8     TO_CAMERADlg.obj
 0002:00006aec       $chain$1$?OnBnClickedRodown24@CTO_CAMERADlg@@QEAAXXZ 0000000140018aec     TO_CAMERADlg.obj
 0002:00006afc       $chain$0$?OnBnClickedRodown25@CTO_CAMERADlg@@QEAAXXZ 0000000140018afc     TO_CAMERADlg.obj
 0002:00006b10       $chain$1$?OnBnClickedRodown25@CTO_CAMERADlg@@QEAAXXZ 0000000140018b10     TO_CAMERADlg.obj
 0002:00006b20       $chain$0$?OnBnClickedRodown26@CTO_CAMERADlg@@QEAAXXZ 0000000140018b20     TO_CAMERADlg.obj
 0002:00006b34       $chain$1$?OnBnClickedRodown26@CTO_CAMERADlg@@QEAAXXZ 0000000140018b34     TO_CAMERADlg.obj
 0002:00006b44       $chain$0$?OnBnClickedRodown27@CTO_CAMERADlg@@QEAAXXZ 0000000140018b44     TO_CAMERADlg.obj
 0002:00006b58       $chain$1$?OnBnClickedRodown27@CTO_CAMERADlg@@QEAAXXZ 0000000140018b58     TO_CAMERADlg.obj
 0002:00006b68       $chain$0$?OnBnClickedRodown28@CTO_CAMERADlg@@QEAAXXZ 0000000140018b68     TO_CAMERADlg.obj
 0002:00006b7c       $chain$1$?OnBnClickedRodown28@CTO_CAMERADlg@@QEAAXXZ 0000000140018b7c     TO_CAMERADlg.obj
 0002:00006b8c       $chain$0$?OnBnClickedRodown29@CTO_CAMERADlg@@QEAAXXZ 0000000140018b8c     TO_CAMERADlg.obj
 0002:00006ba0       $chain$1$?OnBnClickedRodown29@CTO_CAMERADlg@@QEAAXXZ 0000000140018ba0     TO_CAMERADlg.obj
 0002:00006bb0       $chain$0$?OnBnClickedRodown30@CTO_CAMERADlg@@QEAAXXZ 0000000140018bb0     TO_CAMERADlg.obj
 0002:00006bc4       $chain$1$?OnBnClickedRodown30@CTO_CAMERADlg@@QEAAXXZ 0000000140018bc4     TO_CAMERADlg.obj
 0002:00006bd4       $chain$0$?OnBnClickedRodown31@CTO_CAMERADlg@@QEAAXXZ 0000000140018bd4     TO_CAMERADlg.obj
 0002:00006be8       $chain$1$?OnBnClickedRodown31@CTO_CAMERADlg@@QEAAXXZ 0000000140018be8     TO_CAMERADlg.obj
 0002:00006bf8       $chain$0$?OnBnClickedRodown32@CTO_CAMERADlg@@QEAAXXZ 0000000140018bf8     TO_CAMERADlg.obj
 0002:00006c0c       $chain$1$?OnBnClickedRodown32@CTO_CAMERADlg@@QEAAXXZ 0000000140018c0c     TO_CAMERADlg.obj
 0002:00006c1c       $chain$0$?OnBnClickedCmdSend@CTO_CAMERADlg@@QEAAXXZ 0000000140018c1c     TO_CAMERADlg.obj
 0002:00006c30       $chain$1$?OnBnClickedCmdSend@CTO_CAMERADlg@@QEAAXXZ 0000000140018c30     TO_CAMERADlg.obj
 0002:00006c40       $unwind$??HATL@@YA?AV?$CStringT@DV?$StrTraitMFC_DLL@DV?$ChTraitsCRT@D@ATL@@@@@0@PEBDAEBV10@@Z 0000000140018c40     TO_CAMERADlg.obj
 0002:00006c54       $stateUnwindMap$??HATL@@YA?AV?$CStringT@DV?$StrTraitMFC_DLL@DV?$ChTraitsCRT@D@ATL@@@@@0@PEBDAEBV10@@Z 0000000140018c54     TO_CAMERADlg.obj
 0002:00006c60       $ip2state$??HATL@@YA?AV?$CStringT@DV?$StrTraitMFC_DLL@DV?$ChTraitsCRT@D@ATL@@@@@0@PEBDAEBV10@@Z 0000000140018c60     TO_CAMERADlg.obj
 0002:00006c70       $unwind$?_Growmap@?$deque@PEAUCOMMON_QUE@@V?$allocator@PEAUCOMMON_QUE@@@std@@@std@@IEAAX_K@Z 0000000140018c70     TO_CAMERADlg.obj
 0002:00006c70       $unwind$?_Growmap@?$deque@PEADV?$allocator@PEAD@std@@@std@@IEAAX_K@Z 0000000140018c70     KizuLibMFC:LogFileManager.obj
 0002:00006c7c       $chain$5$?_Growmap@?$deque@PEAUCOMMON_QUE@@V?$allocator@PEAUCOMMON_QUE@@@std@@@std@@IEAAX_K@Z 0000000140018c7c     TO_CAMERADlg.obj
 0002:00006c7c       $chain$5$?_Growmap@?$deque@PEADV?$allocator@PEAD@std@@@std@@IEAAX_K@Z 0000000140018c7c     KizuLibMFC:LogFileManager.obj
 0002:00006ca4       $chain$6$?_Growmap@?$deque@PEAUCOMMON_QUE@@V?$allocator@PEAUCOMMON_QUE@@@std@@@std@@IEAAX_K@Z 0000000140018ca4     TO_CAMERADlg.obj
 0002:00006ca4       $chain$6$?_Growmap@?$deque@PEADV?$allocator@PEAD@std@@@std@@IEAAX_K@Z 0000000140018ca4     KizuLibMFC:LogFileManager.obj
 0002:00006cb8       $chain$7$?_Growmap@?$deque@PEAUCOMMON_QUE@@V?$allocator@PEAUCOMMON_QUE@@@std@@@std@@IEAAX_K@Z 0000000140018cb8     TO_CAMERADlg.obj
 0002:00006cb8       $chain$7$?_Growmap@?$deque@PEADV?$allocator@PEAD@std@@@std@@IEAAX_K@Z 0000000140018cb8     KizuLibMFC:LogFileManager.obj
 0002:00006cc8       $unwind$??0Rs232cBase@Kizu232C@@QEAA@PEBD0KKKK_N@Z 0000000140018cc8     Kizu232C:Rs232cBase.obj
 0002:00006ce8       $unwind$?MainThread@Rs232cBase@Kizu232C@@CAIPEAX@Z 0000000140018ce8     Kizu232C:Rs232cBase.obj
 0002:00006d0c       $unwind$??1locale@std@@QEAA@XZ 0000000140018d0c     KizuLibMFC:LogFileManager.obj
 0002:00006d20       $ip2state$??1locale@std@@QEAA@XZ 0000000140018d20     KizuLibMFC:LogFileManager.obj
 0002:00006d28       $unwind$??0LogFileManager@KizuLib@@QEAA@PEBDPEAVCListBox@@HH@Z 0000000140018d28     KizuLibMFC:LogFileManager.obj
 0002:00006d50       $stateUnwindMap$??0LogFileManager@KizuLib@@QEAA@PEBDPEAVCListBox@@HH@Z 0000000140018d50     KizuLibMFC:LogFileManager.obj
 0002:00006d90       $ip2state$??0LogFileManager@KizuLib@@QEAA@PEBDPEAVCListBox@@HH@Z 0000000140018d90     KizuLibMFC:LogFileManager.obj
 0002:00006df0       $unwind$??1LogFileManager@KizuLib@@UEAA@XZ 0000000140018df0     KizuLibMFC:LogFileManager.obj
 0002:00006e08       $ip2state$??1LogFileManager@KizuLib@@UEAA@XZ 0000000140018e08     KizuLibMFC:LogFileManager.obj
 0002:00006e10       $unwind$?Write@LogFileManager@KizuLib@@QEAAXW4LNO@12@PEBDZZ 0000000140018e10     KizuLibMFC:LogFileManager.obj
 0002:00006e34       $stateUnwindMap$?Write@LogFileManager@KizuLib@@QEAAXW4LNO@12@PEBDZZ 0000000140018e34     KizuLibMFC:LogFileManager.obj
 0002:00006e40       $ip2state$?Write@LogFileManager@KizuLib@@QEAAXW4LNO@12@PEBDZZ 0000000140018e40     KizuLibMFC:LogFileManager.obj
 0002:00006e58       $unwind$?WriteFile@LogFileManager@KizuLib@@QEAAXPEBD@Z 0000000140018e58     KizuLibMFC:LogFileManager.obj
 0002:00006e74       $stateUnwindMap$?WriteFile@LogFileManager@KizuLib@@QEAAXPEBD@Z 0000000140018e74     KizuLibMFC:LogFileManager.obj
 0002:00006e88       $ip2state$?WriteFile@LogFileManager@KizuLib@@QEAAXPEBD@Z 0000000140018e88     KizuLibMFC:LogFileManager.obj
 0002:00006eb0       $unwind$?AllGetQueue@LogFileManager@KizuLib@@QEAAHXZ 0000000140018eb0     KizuLibMFC:LogFileManager.obj
 0002:00006ec4       $unwind$?ShowEdit@LogFileManager@KizuLib@@QEAAXXZ 0000000140018ec4     KizuLibMFC:LogFileManager.obj
 0002:00006edc       $chain$2$?MainThread@LogFileManager@KizuLib@@CAIPEAX@Z 0000000140018edc     KizuLibMFC:LogFileManager.obj
 0002:00006ef8       $chain$3$?MainThread@LogFileManager@KizuLib@@CAIPEAX@Z 0000000140018ef8     KizuLibMFC:LogFileManager.obj
 0002:00006f08       $unwind$??0?$basic_ofstream@DU?$char_traits@D@std@@@std@@QEAA@XZ 0000000140018f08     KizuLibMFC:LogFileManager.obj
 0002:00006f1c       $stateUnwindMap$??0?$basic_ofstream@DU?$char_traits@D@std@@@std@@QEAA@XZ 0000000140018f1c     KizuLibMFC:LogFileManager.obj
 0002:00006f38       $ip2state$??0?$basic_ofstream@DU?$char_traits@D@std@@@std@@QEAA@XZ 0000000140018f38     KizuLibMFC:LogFileManager.obj
 0002:00006f60       $unwind$?setbuf@?$basic_filebuf@DU?$char_traits@D@std@@@std@@MEAAPEAV?$basic_streambuf@DU?$char_traits@D@std@@@2@PEAD_J@Z 0000000140018f60     KizuLibMFC:LogFileManager.obj
 0002:00006f6c       $chain$0$?setbuf@?$basic_filebuf@DU?$char_traits@D@std@@@std@@MEAAPEAV?$basic_streambuf@DU?$char_traits@D@std@@@2@PEAD_J@Z 0000000140018f6c     KizuLibMFC:LogFileManager.obj
 0002:00006f80       $chain$1$?setbuf@?$basic_filebuf@DU?$char_traits@D@std@@@std@@MEAAPEAV?$basic_streambuf@DU?$char_traits@D@std@@@2@PEAD_J@Z 0000000140018f80     KizuLibMFC:LogFileManager.obj
 0002:00006f90       $unwind$?seekpos@?$basic_filebuf@DU?$char_traits@D@std@@@std@@MEAA?AV?$fpos@U_Mbstatet@@@2@V32@H@Z 0000000140018f90     KizuLibMFC:LogFileManager.obj
 0002:00006fa4       $unwind$?seekoff@?$basic_filebuf@DU?$char_traits@D@std@@@std@@MEAA?AV?$fpos@U_Mbstatet@@@2@_JHH@Z 0000000140018fa4     KizuLibMFC:LogFileManager.obj
 0002:00006fb8       $unwind$?uflow@?$basic_filebuf@DU?$char_traits@D@std@@@std@@MEAAHXZ 0000000140018fb8     KizuLibMFC:LogFileManager.obj
 0002:00006fdc       $stateUnwindMap$?overflow@?$basic_filebuf@DU?$char_traits@D@std@@@std@@MEAAHH@Z 0000000140018fdc     KizuLibMFC:LogFileManager.obj
 0002:00006fdc       $stateUnwindMap$?uflow@?$basic_filebuf@DU?$char_traits@D@std@@@std@@MEAAHXZ 0000000140018fdc     KizuLibMFC:LogFileManager.obj
 0002:00006fe8       $ip2state$?uflow@?$basic_filebuf@DU?$char_traits@D@std@@@std@@MEAAHXZ 0000000140018fe8     KizuLibMFC:LogFileManager.obj
 0002:00007000       $chain$0$?underflow@?$basic_filebuf@DU?$char_traits@D@std@@@std@@MEAAHXZ 0000000140019000     KizuLibMFC:LogFileManager.obj
 0002:00007014       $chain$2$?underflow@?$basic_filebuf@DU?$char_traits@D@std@@@std@@MEAAHXZ 0000000140019014     KizuLibMFC:LogFileManager.obj
 0002:00007028       $unwind$?overflow@?$basic_filebuf@DU?$char_traits@D@std@@@std@@MEAAHH@Z 0000000140019028     KizuLibMFC:LogFileManager.obj
 0002:00007050       $ip2state$?overflow@?$basic_filebuf@DU?$char_traits@D@std@@@std@@MEAAHH@Z 0000000140019050     KizuLibMFC:LogFileManager.obj
 0002:00007068       $unwind$??1?$basic_filebuf@DU?$char_traits@D@std@@@std@@UEAA@XZ 0000000140019068     KizuLibMFC:LogFileManager.obj
 0002:00007078       $ip2state$??1?$basic_filebuf@DU?$char_traits@D@std@@@std@@UEAA@XZ 0000000140019078     KizuLibMFC:LogFileManager.obj
 0002:00007080       $unwind$?_Endwrite@?$basic_filebuf@DU?$char_traits@D@std@@@std@@IEAA_NXZ 0000000140019080     KizuLibMFC:LogFileManager.obj
 0002:000070a0       $stateUnwindMap$?_Endwrite@?$basic_filebuf@DU?$char_traits@D@std@@@std@@IEAA_NXZ 00000001400190a0     KizuLibMFC:LogFileManager.obj
 0002:000070a8       $ip2state$?_Endwrite@?$basic_filebuf@DU?$char_traits@D@std@@@std@@IEAA_NXZ 00000001400190a8     KizuLibMFC:LogFileManager.obj
 0002:000070c0       $unwind$?open@?$basic_filebuf@DU?$char_traits@D@std@@@std@@QEAAPEAV12@PEBDHH@Z 00000001400190c0     KizuLibMFC:LogFileManager.obj
 0002:000070d8       $stateUnwindMap$?open@?$basic_filebuf@DU?$char_traits@D@std@@@std@@QEAAPEAV12@PEBDHH@Z 00000001400190d8     KizuLibMFC:LogFileManager.obj
 0002:000070e8       $ip2state$?open@?$basic_filebuf@DU?$char_traits@D@std@@@std@@QEAAPEAV12@PEBDHH@Z 00000001400190e8     KizuLibMFC:LogFileManager.obj
 0002:00007108       $unwind$?_Copy@?$basic_string@DU?$char_traits@D@std@@V?$allocator@D@2@@std@@QEAAX_K0@Z 0000000140019108     KizuLibMFC:LogFileManager.obj
 0002:00007120       $stateUnwindMap$?_Copy@?$basic_string@DU?$char_traits@D@std@@V?$allocator@D@2@@std@@QEAAX_K0@Z 0000000140019120     KizuLibMFC:LogFileManager.obj
 0002:00007140       $tryMap$?_Copy@?$basic_string@DU?$char_traits@D@std@@V?$allocator@D@2@@std@@QEAAX_K0@Z 0000000140019140     KizuLibMFC:LogFileManager.obj
 0002:00007168       $handlerMap$0$?_Copy@?$basic_string@DU?$char_traits@D@std@@V?$allocator@D@2@@std@@QEAAX_K0@Z 0000000140019168     KizuLibMFC:LogFileManager.obj
 0002:0000717c       $handlerMap$1$?_Copy@?$basic_string@DU?$char_traits@D@std@@V?$allocator@D@2@@std@@QEAAX_K0@Z 000000014001917c     KizuLibMFC:LogFileManager.obj
 0002:00007190       $ip2state$?_Copy@?$basic_string@DU?$char_traits@D@std@@V?$allocator@D@2@@std@@QEAAX_K0@Z 0000000140019190     KizuLibMFC:LogFileManager.obj
 0002:000071d0       $unwind$?catch$107@?0??_Copy@?$basic_string@DU?$char_traits@D@std@@V?$allocator@D@2@@std@@QEAAX_K0@Z@4HA 00000001400191d0     KizuLibMFC:LogFileManager.obj
 0002:000071e0       $unwind$?catch$106@?0??_Copy@?$basic_string@DU?$char_traits@D@std@@V?$allocator@D@2@@std@@QEAAX_K0@Z@4HA 00000001400191e0     KizuLibMFC:LogFileManager.obj
 0002:000071f4       $chain$0$?Free@?$ThreadQueue@D@KizuLib@@QEAAXXZ 00000001400191f4     KizuLibMFC:LogFileManager.obj
 0002:00007208       $chain$1$?Free@?$ThreadQueue@D@KizuLib@@QEAAXXZ 0000000140019208     KizuLibMFC:LogFileManager.obj
 0002:00007218       $unwind$??$?6U?$char_traits@D@std@@@std@@YAAEAV?$basic_ostream@DU?$char_traits@D@std@@@0@AEAV10@PEBD@Z 0000000140019218     KizuLibMFC:LogFileManager.obj
 0002:00007234       $stateUnwindMap$??$?6U?$char_traits@D@std@@@std@@YAAEAV?$basic_ostream@DU?$char_traits@D@std@@@0@AEAV10@PEBD@Z 0000000140019234     KizuLibMFC:LogFileManager.obj
 0002:00007264       $tryMap$??$?6U?$char_traits@D@std@@@std@@YAAEAV?$basic_ostream@DU?$char_traits@D@std@@@0@AEAV10@PEBD@Z 0000000140019264     KizuLibMFC:LogFileManager.obj
 0002:00007278       $handlerMap$0$??$?6U?$char_traits@D@std@@@std@@YAAEAV?$basic_ostream@DU?$char_traits@D@std@@@0@AEAV10@PEBD@Z 0000000140019278     KizuLibMFC:LogFileManager.obj
 0002:00007290       $ip2state$??$?6U?$char_traits@D@std@@@std@@YAAEAV?$basic_ostream@DU?$char_traits@D@std@@@0@AEAV10@PEBD@Z 0000000140019290     KizuLibMFC:LogFileManager.obj
 0002:000072e8       $unwind$?catch$8@?0???$?6U?$char_traits@D@std@@@std@@YAAEAV?$basic_ostream@DU?$char_traits@D@std@@@0@AEAV10@PEBD@Z@4HA 00000001400192e8     KizuLibMFC:LogFileManager.obj
 0002:000072f8       $unwind$??$use_facet@V?$codecvt@DDU_Mbstatet@@@std@@@std@@YAAEBV?$codecvt@DDU_Mbstatet@@@0@AEBVlocale@0@@Z 00000001400192f8     KizuLibMFC:LogFileManager.obj
 0002:00007310       $stateUnwindMap$??$use_facet@V?$codecvt@DDU_Mbstatet@@@std@@@std@@YAAEBV?$codecvt@DDU_Mbstatet@@@0@AEBVlocale@0@@Z 0000000140019310     KizuLibMFC:LogFileManager.obj
 0002:00007318       $ip2state$??$use_facet@V?$codecvt@DDU_Mbstatet@@@std@@@std@@YAAEBV?$codecvt@DDU_Mbstatet@@@0@AEBVlocale@0@@Z 0000000140019318     KizuLibMFC:LogFileManager.obj
 0002:00007330       $unwind$?push_back@?$deque@PEADV?$allocator@PEAD@std@@@std@@QEAAXAEBQEAD@Z 0000000140019330     KizuLibMFC:LogFileManager.obj
 0002:00007344       $unwind$??1sentry@?$basic_ostream@DU?$char_traits@D@std@@@std@@QEAA@XZ 0000000140019344     KizuLibMFC:LogFileManager.obj
 0002:00007354       $stateUnwindMap$??_G_Fac_node@std@@QEAAPEAXI@Z 0000000140019354     msvcprt:locale0_implib.obj
 0002:00007354       $stateUnwindMap$??1sentry@?$basic_ostream@DU?$char_traits@D@std@@@std@@QEAA@XZ 0000000140019354     KizuLibMFC:LogFileManager.obj
 0002:00007354       $stateUnwindMap$??_GOdbcBase@KizuODBC@@UEAAPEAXI@Z 0000000140019354     KizuODBC:OdbcBase.obj
 0002:00007360       $ip2state$??1sentry@?$basic_ostream@DU?$char_traits@D@std@@@std@@QEAA@XZ 0000000140019360     KizuLibMFC:LogFileManager.obj
 0002:00007378       $unwind$??1_Sentry_base@?$basic_ostream@DU?$char_traits@D@std@@@std@@QEAA@XZ 0000000140019378     KizuLibMFC:LogFileManager.obj
 0002:00007388       $ip2state$??1_Sentry_base@?$basic_ostream@DU?$char_traits@D@std@@@std@@QEAA@XZ 0000000140019388     KizuLibMFC:LogFileManager.obj
 0002:00007390       $unwind$?task_init@@YAHPEBDH@Z 0000000140019390     KizuLib:KizuLib.obj
 0002:00007398       $chain$0$?task_init@@YAHPEBDH@Z 0000000140019398     KizuLib:KizuLib.obj
 0002:000073ac       $chain$2$?task_init@@YAHPEBDH@Z 00000001400193ac     KizuLib:KizuLib.obj
 0002:000073ac       $chain$4$?task_init@@YAHPEBDH@Z 00000001400193ac     KizuLib:KizuLib.obj
 0002:000073c0       $unwind$?syslog@@YAHJPEBDZZ 00000001400193c0     KizuLib:KizuLib.obj
 0002:000073d8       $unwind$?statelog@@YAHJJJPEBDZZ 00000001400193d8     KizuLib:KizuLib.obj
 0002:000073f4       $unwind$?SetStatus@KizuFunction@KizuLib@@SA_NHH_NPEBD@Z 00000001400193f4     KizuLib:KizuFunction.obj
 0002:00007418       $stateUnwindMap$?SetStatus@KizuFunction@KizuLib@@SA_NHH_NPEBD@Z 0000000140019418     KizuLib:KizuFunction.obj
 0002:00007418       $stateUnwindMap$?SetPcName@KizuPcInfManager@KizuLib@@QEAA_NPEADPEBD1@Z 0000000140019418     KizuLib:KizuPcInfManager.obj
 0002:00007438       $ip2state$?SetStatus@KizuFunction@KizuLib@@SA_NHH_NPEBD@Z 0000000140019438     KizuLib:KizuFunction.obj
 0002:00007450       $unwind$??0KizuPcInfManager@KizuLib@@QEAA@H@Z 0000000140019450     KizuLib:KizuPcInfManager.obj
 0002:00007450       $unwind$?Create@MailSlotManager@KizuLib@@QEAA_NPEBDK@Z 0000000140019450     KizuLib:MailSlotManager.obj
 0002:00007464       $unwind$?SetPcName@KizuPcInfManager@KizuLib@@QEAA_NPEADPEBD1@Z 0000000140019464     KizuLib:KizuPcInfManager.obj
 0002:00007490       $ip2state$?SetPcName@KizuPcInfManager@KizuLib@@QEAA_NPEADPEBD1@Z 0000000140019490     KizuLib:KizuPcInfManager.obj
 0002:000074a8       $unwind$?SendMail@MailSlotManager@KizuLib@@SAHPEBD0PEBXK@Z 00000001400194a8     KizuLib:MailSlotManager.obj
 0002:000074c0       $unwind$?Recv@MailSlotManager@KizuLib@@UEAAHPEAXK@Z 00000001400194c0     KizuLib:MailSlotManager.obj
 0002:000074dc       $unwind$?Send@MailSlotManager@KizuLib@@UEAAHPEBXK@Z 00000001400194dc     KizuLib:MailSlotManager.obj
 0002:000074e4       $unwind$??_GOdbcBase@KizuODBC@@UEAAPEAXI@Z 00000001400194e4     KizuODBC:OdbcBase.obj
 0002:000074f8       $ip2state$??_GOdbcBase@KizuODBC@@UEAAPEAXI@Z 00000001400194f8     KizuODBC:OdbcBase.obj
 0002:00007510       $unwind$??1OdbcBase@KizuODBC@@UEAA@XZ 0000000140019510     KizuODBC:OdbcBase.obj
 0002:00007520       $ip2state$??1OdbcBase@KizuODBC@@UEAA@XZ 0000000140019520     KizuODBC:OdbcBase.obj
 0002:00007528       $unwind$?GetErrMsg@OdbcEnv@KizuODBC@@QEAAXXZ 0000000140019528     KizuODBC:OdbcEnv.obj
 0002:00007530       $unwind$?Alloc@OdbcManager@KizuODBC@@IEAAXXZ 0000000140019530     KizuODBC:OdbcManager.obj
 0002:0000753c       $unwind$?Connect@OdbcManager@KizuODBC@@QEAAHPEBD0@Z 000000014001953c     KizuODBC:OdbcManager.obj
 0002:00007558       $unwind$?Connect@OdbcManager@KizuODBC@@QEAAHPEBD00@Z 0000000140019558     KizuODBC:OdbcManager.obj
 0002:0000756c       $unwind$?GetErrMsg@OdbcManager@KizuODBC@@QEAAXXZ 000000014001956c     KizuODBC:OdbcManager.obj
 0002:00007580       $unwind$?GetErrMsg@OdbcManager@KizuODBC@@QEAAXF@Z 0000000140019580     KizuODBC:OdbcManager.obj
 0002:00007598       $xdatasym                  0000000140019598     msvcrt:_amdsecgs_.obj
 0002:0000759c       $unwind$__scrt_is_nonwritable_in_current_image 000000014001959c     msvcrt:utility.obj
 0002:000075bc       $unwind$__scrt_is_nonwritable_in_current_image$filt$0 00000001400195bc     msvcrt:utility.obj
 0002:000075c4       $unwind$__scrt_initialize_onexit_tables 00000001400195c4     msvcrt:utility.obj
 0002:000075d0       $unwind$?__scrt_common_main_seh@@YAHXZ 00000001400195d0     msvcrt:exe_winmain.obj
 0002:000075f4       $unwind$__report_gsfailure 00000001400195f4     msvcrt:gs_report.obj
 0002:000075fc       $unwind$capture_previous_context 00000001400195fc     msvcrt:gs_report.obj
 0002:00007608       $unwind$__scrt_get_show_window_mode 0000000140019608     msvcrt:utility_desktop.obj
 0002:00007610       $unwind$__scrt_fastfail    0000000140019610     msvcrt:utility_desktop.obj
 0002:00007620       $unwind$__isa_available_init 0000000140019620     msvcrt:_cpu_disp_.obj
 0002:00007630       $unwind$__security_init_cookie 0000000140019630     msvcrt:gs_support.obj
 0002:0000763c       $unwind$__GSHandlerCheckCommon 000000014001963c     msvcrt:_gshandler_.obj
 0002:00007648       $xdatasym                  0000000140019648     msvcrt:_guard_dispatch_.obj
 0002:0000764c       $unwind$??_G_Fac_node@std@@QEAAPEAXI@Z 000000014001964c     msvcprt:locale0_implib.obj
 0002:00007668       $ip2state$??_G_Fac_node@std@@QEAAPEAXI@Z 0000000140019668     msvcprt:locale0_implib.obj
 0002:00007680       $unwind$__GSHandlerCheck_EH 0000000140019680     msvcrt:gshandlereh.obj
 0002:00007698       $xdatasym                  0000000140019698     msvcrt:_chkstk_.obj
 0002:000084f0       .idata$6                   000000014001a4f0     KizuODBC:ODBC32.dll
 0002:000084fc       .idata$6                   000000014001a4fc     mfc140:mfc140.dll
 0002:000089ae       .idata$6                   000000014001a9ae     kernel32:KERNEL32.dll
 0002:00008ab2       .idata$6                   000000014001aab2     user32:USER32.dll
 0002:00008ad6       .idata$6                   000000014001aad6     comctl32:COMCTL32.dll
 0002:000092f2       .idata$6                   000000014001b2f2     msvcprt:MSVCP140.dll
 0002:000093ac       .idata$6                   000000014001b3ac     vcruntime:VCRUNTIME140.dll
 0002:0000969e       .idata$6                   000000014001b69e     ucrt:api-ms-win-crt-runtime-l1-1-0.dll
 0002:000096c0       .idata$6                   000000014001b6c0     ucrt:api-ms-win-crt-stdio-l1-1-0.dll
 0002:000096e0       .idata$6                   000000014001b6e0     ucrt:api-ms-win-crt-heap-l1-1-0.dll
 0002:00009700       .idata$6                   000000014001b700     ucrt:api-ms-win-crt-locale-l1-1-0.dll
 0002:00009722       .idata$6                   000000014001b722     ucrt:api-ms-win-crt-filesystem-l1-1-0.dll
 0002:00009748       .idata$6                   000000014001b748     ucrt:api-ms-win-crt-math-l1-1-0.dll
 0003:000006c8       ?_Tss_mutex@@3U_RTL_CRITICAL_SECTION@@A 000000014001c6c8     msvcrt:thread_safe_statics.obj
 0003:000006f0       ?_Tss_cv@@3U_RTL_CONDITION_VARIABLE@@A 000000014001c6f0     msvcrt:thread_safe_statics.obj
 0003:000006f8       ?_Tss_event@@3PEAXEA       000000014001c6f8     msvcrt:thread_safe_statics.obj
 0003:00000700       ?encoded_sleep_condition_variable_cs@@3P6AHPEAU_RTL_CONDITION_VARIABLE@@PEAU_RTL_CRITICAL_SECTION@@K@ZEA 000000014001c700     msvcrt:thread_safe_statics.obj
 0003:00000708       ?encoded_wake_all_condition_variable@@3P6AXPEAU_RTL_CONDITION_VARIABLE@@@ZEA 000000014001c708     msvcrt:thread_safe_statics.obj
 0003:00000720       ?module_local_atexit_table@@3U_onexit_table_t@@A 000000014001c720     msvcrt:utility.obj
 0003:00000738       ?module_local_at_quick_exit_table@@3U_onexit_table_t@@A 000000014001c738     msvcrt:utility.obj
 0003:00000750       ?is_initialized_as_dll@@3_NA 000000014001c750     msvcrt:utility.obj
 0003:00000760       GS_ExceptionRecord         000000014001c760     msvcrt:gs_report.obj
 0003:00000800       GS_ContextRecord           000000014001c800     msvcrt:gs_report.obj
 0003:00000d68       ?_Fac_head@std@@3PEAU_Fac_node@1@EA 000000014001cd68     msvcprt:locale0_implib.obj
 0003:00000d70       ?_Fac_tidy_reg@std@@3U_Fac_tidy_reg_t@1@B 000000014001cd70     msvcprt:locale0_implib.obj
 0003:00000db0       ?g_nLineID@@3HA            000000014001cdb0     KizuLib:KizuLib.obj
 0003:00000db8       ?mcls_pPcInf@@3PEAVKizuPcInfManager@KizuLib@@EA 000000014001cdb8     KizuLib:KizuLib.obj
 0003:00000dc0       ?mcls_pMail@@3PEAVMailSlotManager@KizuLib@@EA 000000014001cdc0     KizuLib:KizuLib.obj
 0003:00001590       ?g_cMyTaskName@@3PADA      000000014001d590     KizuLib:KizuLib.obj
 0004:00000000       $pdata$??__EtheApp@@YAXXZ  000000014001e000     TO_CAMERA.obj
 0004:0000000c       $pdata$??__E?m_inst@OdbcEnv@KizuODBC@@0V12@A@@YAXXZ 000000014001e00c     KizuODBC:OdbcEnv.obj
 0004:00000018       $pdata$??__E_AtlBaseModule@ATL@@YAXXZ 000000014001e018     atls:atlbase.obj
 0004:00000024       $pdata$??__E_afxInitAppState@@YAXXZ 000000014001e024     mfcs140:appmodul.obj
 0004:00000030       $pdata$?_Allocate@std@@YAPEAX_K0_N@Z 000000014001e030     CameraManager.obj
 0004:0000003c       $pdata$??0CameraManager@@QEAA@XZ 000000014001e03c     CameraManager.obj
 0004:00000048       $pdata$??_GCameraManager@@UEAAPEAXI@Z 000000014001e048     CameraManager.obj
 0004:00000054       $pdata$??1CameraManager@@UEAA@XZ 000000014001e054     CameraManager.obj
 0004:00000060       $pdata$?SetClass@CameraManager@@QEAAXHPEAD@Z 000000014001e060     CameraManager.obj
 0004:0000006c       $pdata$?MainThread@CameraManager@@CAIPEAX@Z 000000014001e06c     CameraManager.obj
 0004:00000078       $pdata$?SetDataMailCommand@CameraManager@@AEAA_NPEAUCOMMON_QUE@@@Z 000000014001e078     CameraManager.obj
 0004:00000084       $pdata$0$?SetDataMailCommand@CameraManager@@AEAA_NPEAUCOMMON_QUE@@@Z 000000014001e084     CameraManager.obj
 0004:00000090       $pdata$2$?SetDataMailCommand@CameraManager@@AEAA_NPEAUCOMMON_QUE@@@Z 000000014001e090     CameraManager.obj
 0004:0000009c       $pdata$4$?SetDataMailCommand@CameraManager@@AEAA_NPEAUCOMMON_QUE@@@Z 000000014001e09c     CameraManager.obj
 0004:000000a8       $pdata$6$?SetDataMailCommand@CameraManager@@AEAA_NPEAUCOMMON_QUE@@@Z 000000014001e0a8     CameraManager.obj
 0004:000000b4       $pdata$10$?SetDataMailCommand@CameraManager@@AEAA_NPEAUCOMMON_QUE@@@Z 000000014001e0b4     CameraManager.obj
 0004:000000c0       $pdata$11$?SetDataMailCommand@CameraManager@@AEAA_NPEAUCOMMON_QUE@@@Z 000000014001e0c0     CameraManager.obj
 0004:000000cc       $pdata$12$?SetDataMailCommand@CameraManager@@AEAA_NPEAUCOMMON_QUE@@@Z 000000014001e0cc     CameraManager.obj
 0004:000000d8       $pdata$8$?SetDataMailCommand@CameraManager@@AEAA_NPEAUCOMMON_QUE@@@Z 000000014001e0d8     CameraManager.obj
 0004:000000e4       $pdata$14$?SetDataMailCommand@CameraManager@@AEAA_NPEAUCOMMON_QUE@@@Z 000000014001e0e4     CameraManager.obj
 0004:000000f0       $pdata$16$?SetDataMailCommand@CameraManager@@AEAA_NPEAUCOMMON_QUE@@@Z 000000014001e0f0     CameraManager.obj
 0004:000000fc       $pdata$18$?SetDataMailCommand@CameraManager@@AEAA_NPEAUCOMMON_QUE@@@Z 000000014001e0fc     CameraManager.obj
 0004:00000108       $pdata$19$?SetDataMailCommand@CameraManager@@AEAA_NPEAUCOMMON_QUE@@@Z 000000014001e108     CameraManager.obj
 0004:00000114       $pdata$?SetExposureTime@CameraManager@@AEAA_NHHH@Z 000000014001e114     CameraManager.obj
 0004:00000120       $pdata$?CheckNextSend@CameraManager@@AEAA_NXZ 000000014001e120     CameraManager.obj
 0004:0000012c       $pdata$3$?CheckNextSend@CameraManager@@AEAA_NXZ 000000014001e12c     CameraManager.obj
 0004:00000138       $pdata$5$?CheckNextSend@CameraManager@@AEAA_NXZ 000000014001e138     CameraManager.obj
 0004:00000144       $pdata$6$?CheckNextSend@CameraManager@@AEAA_NXZ 000000014001e144     CameraManager.obj
 0004:00000150       $pdata$7$?CheckNextSend@CameraManager@@AEAA_NXZ 000000014001e150     CameraManager.obj
 0004:0000015c       $pdata$?CheckDataRecv@CameraManager@@AEAA_NXZ 000000014001e15c     CameraManager.obj
 0004:00000168       $pdata$?Open@CameraManager@@AEAA_N_N@Z 000000014001e168     CameraManager.obj
 0004:00000174       $pdata$?Close@CameraManager@@AEAAXXZ 000000014001e174     CameraManager.obj
 0004:00000180       $pdata$?Recv@CameraManager@@AEAA_NXZ 000000014001e180     CameraManager.obj
 0004:0000018c       $pdata$1$?Recv@CameraManager@@AEAA_NXZ 000000014001e18c     CameraManager.obj
 0004:00000198       $pdata$3$?Recv@CameraManager@@AEAA_NXZ 000000014001e198     CameraManager.obj
 0004:000001a4       $pdata$?Send@CameraManager@@AEAA_NXZ 000000014001e1a4     CameraManager.obj
 0004:000001b0       $pdata$0$?Send@CameraManager@@AEAA_NXZ 000000014001e1b0     CameraManager.obj
 0004:000001bc       $pdata$2$?Send@CameraManager@@AEAA_NXZ 000000014001e1bc     CameraManager.obj
 0004:000001c8       $pdata$?GetParam@CameraManager@@AEAA_NXZ 000000014001e1c8     CameraManager.obj
 0004:000001d4       $pdata$?GetParamStatic@CameraManager@@AEAA_NXZ 000000014001e1d4     CameraManager.obj
 0004:000001e0       $pdata$??1?$vector@V?$CStringT@DV?$StrTraitMFC_DLL@DV?$ChTraitsCRT@D@ATL@@@@@ATL@@V?$allocator@V?$CStringT@DV?$StrTraitMFC_DLL@DV?$ChTraitsCRT@D@ATL@@@@@ATL@@@std@@@std@@QEAA@XZ 000000014001e1e0     CameraManager.obj
 0004:000001ec       $pdata$0$??1?$vector@V?$CStringT@DV?$StrTraitMFC_DLL@DV?$ChTraitsCRT@D@ATL@@@@@ATL@@V?$allocator@V?$CStringT@DV?$StrTraitMFC_DLL@DV?$ChTraitsCRT@D@ATL@@@@@ATL@@@std@@@std@@QEAA@XZ 000000014001e1ec     CameraManager.obj
 0004:000001f8       $pdata$1$??1?$vector@V?$CStringT@DV?$StrTraitMFC_DLL@DV?$ChTraitsCRT@D@ATL@@@@@ATL@@V?$allocator@V?$CStringT@DV?$StrTraitMFC_DLL@DV?$ChTraitsCRT@D@ATL@@@@@ATL@@@std@@@std@@QEAA@XZ 000000014001e1f8     CameraManager.obj
 0004:00000204       $pdata$?push_back@?$vector@V?$CStringT@DV?$StrTraitMFC_DLL@DV?$ChTraitsCRT@D@ATL@@@@@ATL@@V?$allocator@V?$CStringT@DV?$StrTraitMFC_DLL@DV?$ChTraitsCRT@D@ATL@@@@@ATL@@@std@@@std@@QEAAX$$QEAV?$CStringT@DV?$StrTraitMFC_DLL@DV?$ChTraitsCRT@D@ATL@@@@@ATL@@@Z 000000014001e204     CameraManager.obj
 0004:00000210       $pdata$?deallocate@?$_Wrap_alloc@V?$allocator@V?$CStringT@DV?$StrTraitMFC_DLL@DV?$ChTraitsCRT@D@ATL@@@@@ATL@@@std@@@std@@QEAAXPEAV?$CStringT@DV?$StrTraitMFC_DLL@DV?$ChTraitsCRT@D@ATL@@@@@ATL@@_K@Z 000000014001e210     CameraManager.obj
 0004:0000021c       $pdata$?_Reallocate@?$vector@V?$CStringT@DV?$StrTraitMFC_DLL@DV?$ChTraitsCRT@D@ATL@@@@@ATL@@V?$allocator@V?$CStringT@DV?$StrTraitMFC_DLL@DV?$ChTraitsCRT@D@ATL@@@@@ATL@@@std@@@std@@IEAAX_K@Z 000000014001e21c     CameraManager.obj
 0004:00000228       $pdata$??0?$ThreadQueue@UCOMMON_QUE@@@KizuLib@@QEAA@H@Z 000000014001e228     CameraManager.obj
 0004:00000234       $pdata$??1?$ThreadQueue@UCOMMON_QUE@@@KizuLib@@UEAA@XZ 000000014001e234     CameraManager.obj
 0004:00000240       $pdata$?GetFromHead@?$ThreadQueue@D@KizuLib@@QEAAPEADXZ 000000014001e240     KizuLibMFC:LogFileManager.obj
 0004:00000240       $pdata$?GetFromHead@?$ThreadQueue@UCOMMON_QUE@@@KizuLib@@QEAAPEAUCOMMON_QUE@@XZ 000000014001e240     CameraManager.obj
 0004:0000024c       $pdata$??_G?$ThreadQueue@UCOMMON_QUE@@@KizuLib@@UEAAPEAXI@Z 000000014001e24c     CameraManager.obj
 0004:00000258       $pdata$?_Tidy@?$deque@PEADV?$allocator@PEAD@std@@@std@@IEAAXXZ 000000014001e258     KizuLibMFC:LogFileManager.obj
 0004:00000258       $pdata$?_Tidy@?$deque@PEAUCOMMON_QUE@@V?$allocator@PEAUCOMMON_QUE@@@std@@@std@@IEAAXXZ 000000014001e258     CameraManager.obj
 0004:00000264       $pdata$?Free@?$ThreadQueue@UCOMMON_QUE@@@KizuLib@@QEAAXXZ 000000014001e264     CameraManager.obj
 0004:00000270       $pdata$0$?Free@?$ThreadQueue@UCOMMON_QUE@@@KizuLib@@QEAAXXZ 000000014001e270     CameraManager.obj
 0004:0000027c       $pdata$1$?Free@?$ThreadQueue@UCOMMON_QUE@@@KizuLib@@QEAAXXZ 000000014001e27c     CameraManager.obj
 0004:00000288       $pdata$??$_Uninitialized_move_al_unchecked1@PEAV?$CStringT@DV?$StrTraitMFC_DLL@DV?$ChTraitsCRT@D@ATL@@@@@ATL@@PEAV12@V?$allocator@V?$CStringT@DV?$StrTraitMFC_DLL@DV?$ChTraitsCRT@D@ATL@@@@@ATL@@@std@@@std@@YAPEAV?$CStringT@DV?$StrTraitMFC_DLL@DV?$ChTraitsCRT@D@ATL@@@@@ATL@@PEAV12@00AEAU?$_Wrap_alloc@V?$allocator@V?$CStringT@DV?$StrTraitMFC_DLL@DV?$ChTraitsCRT@D@ATL@@@@@ATL@@@std@@@0@U_General_ptr_iterator_tag@0@U_Any_tag@0@@Z 000000014001e288     CameraManager.obj
 0004:00000294       $pdata$sprintf             000000014001e294     CameraManager.obj
 0004:000002a0       $pdata$??0MainInctance@@QEAA@XZ 000000014001e2a0     MainInctance.obj
 0004:000002ac       $pdata$??_GMainInctance@@UEAAPEAXI@Z 000000014001e2ac     MainInctance.obj
 0004:000002b8       $pdata$??1MainInctance@@UEAA@XZ 000000014001e2b8     MainInctance.obj
 0004:000002c4       $pdata$?Init@MainInctance@@QEAAHXZ 000000014001e2c4     MainInctance.obj
 0004:000002d0       $pdata$?Exit@MainInctance@@QEAAXXZ 000000014001e2d0     MainInctance.obj
 0004:000002dc       $pdata$?MainThread@MainInctance@@CAIPEAX@Z 000000014001e2dc     MainInctance.obj
 0004:000002e8       $pdata$??_GCTO_CAMERAApp@@UEAAPEAXI@Z 000000014001e2e8     TO_CAMERA.obj
 0004:000002f4       $pdata$?InitInstance@CTO_CAMERAApp@@UEAAHXZ 000000014001e2f4     TO_CAMERA.obj
 0004:00000300       $pdata$??1CTO_CAMERADlg@@UEAA@XZ 000000014001e300     TO_CAMERA.obj
 0004:0000030c       $pdata$?GetMySession@CameraManager@@QEAA?AV?$CStringT@DV?$StrTraitMFC_DLL@DV?$ChTraitsCRT@D@ATL@@@@@ATL@@XZ 000000014001e30c     TO_CAMERADlg.obj
 0004:00000318       $pdata$??0CTO_CAMERADlg@@QEAA@PEAVCWnd@@@Z 000000014001e318     TO_CAMERADlg.obj
 0004:00000324       $pdata$??_GCTO_CAMERADlg@@UEAAPEAXI@Z 000000014001e324     TO_CAMERADlg.obj
 0004:00000330       $pdata$?DoDataExchange@CTO_CAMERADlg@@MEAAXPEAVCDataExchange@@@Z 000000014001e330     TO_CAMERADlg.obj
 0004:0000033c       $pdata$?OnInitDialog@CTO_CAMERADlg@@MEAAHXZ 000000014001e33c     TO_CAMERADlg.obj
 0004:00000348       $pdata$?OnPaint@CTO_CAMERADlg@@IEAAXXZ 000000014001e348     TO_CAMERADlg.obj
 0004:00000354       $pdata$1$?OnPaint@CTO_CAMERADlg@@IEAAXXZ 000000014001e354     TO_CAMERADlg.obj
 0004:00000360       $pdata$2$?OnPaint@CTO_CAMERADlg@@IEAAXXZ 000000014001e360     TO_CAMERADlg.obj
 0004:0000036c       $pdata$?OnBnClickedOk@CTO_CAMERADlg@@QEAAXXZ 000000014001e36c     TO_CAMERADlg.obj
 0004:00000378       $pdata$?InitProcess@CTO_CAMERADlg@@AEAAXXZ 000000014001e378     TO_CAMERADlg.obj
 0004:00000384       $pdata$?ExitProcess@CTO_CAMERADlg@@AEAAXXZ 000000014001e384     TO_CAMERADlg.obj
 0004:00000390       $pdata$?MainThread@CTO_CAMERADlg@@CAIPEAX@Z 000000014001e390     TO_CAMERADlg.obj
 0004:0000039c       $pdata$?CommandSender@CTO_CAMERADlg@@AEAAXPEAUCOMMON_QUE@@@Z 000000014001e39c     TO_CAMERADlg.obj
 0004:000003a8       $pdata$1$?CommandSender@CTO_CAMERADlg@@AEAAXPEAUCOMMON_QUE@@@Z 000000014001e3a8     TO_CAMERADlg.obj
 0004:000003b4       $pdata$2$?CommandSender@CTO_CAMERADlg@@AEAAXPEAUCOMMON_QUE@@@Z 000000014001e3b4     TO_CAMERADlg.obj
 0004:000003c0       $pdata$?OnTimer@CTO_CAMERADlg@@QEAAX_K@Z 000000014001e3c0     TO_CAMERADlg.obj
 0004:000003cc       $pdata$?OnBnClickedDebugParam@CTO_CAMERADlg@@QEAAXXZ 000000014001e3cc     TO_CAMERADlg.obj
 0004:000003d8       $pdata$?OnBnClickedDebugInit@CTO_CAMERADlg@@QEAAXXZ 000000014001e3d8     TO_CAMERADlg.obj
 0004:000003e4       $pdata$0$?OnBnClickedDebugInit@CTO_CAMERADlg@@QEAAXXZ 000000014001e3e4     TO_CAMERADlg.obj
 0004:000003f0       $pdata$1$?OnBnClickedDebugInit@CTO_CAMERADlg@@QEAAXXZ 000000014001e3f0     TO_CAMERADlg.obj
 0004:000003fc       $pdata$?OnBnClickedDebugCheckInit@CTO_CAMERADlg@@QEAAXXZ 000000014001e3fc     TO_CAMERADlg.obj
 0004:00000408       $pdata$0$?OnBnClickedDebugCheckInit@CTO_CAMERADlg@@QEAAXXZ 000000014001e408     TO_CAMERADlg.obj
 0004:00000414       $pdata$1$?OnBnClickedDebugCheckInit@CTO_CAMERADlg@@QEAAXXZ 000000014001e414     TO_CAMERADlg.obj
 0004:00000420       $pdata$?OnBnClickedDebugPlson@CTO_CAMERADlg@@QEAAXXZ 000000014001e420     TO_CAMERADlg.obj
 0004:0000042c       $pdata$?OnBnClickedDebugPlsoff@CTO_CAMERADlg@@QEAAXXZ 000000014001e42c     TO_CAMERADlg.obj
 0004:00000438       $pdata$?OnBnClickedDebugScodeT@CTO_CAMERADlg@@QEAAXXZ 000000014001e438     TO_CAMERADlg.obj
 0004:00000444       $pdata$0$?OnBnClickedDebugScodeT@CTO_CAMERADlg@@QEAAXXZ 000000014001e444     TO_CAMERADlg.obj
 0004:00000450       $pdata$1$?OnBnClickedDebugScodeT@CTO_CAMERADlg@@QEAAXXZ 000000014001e450     TO_CAMERADlg.obj
 0004:0000045c       $pdata$?OnBnClickedDebugScodeB@CTO_CAMERADlg@@QEAAXXZ 000000014001e45c     TO_CAMERADlg.obj
 0004:00000468       $pdata$0$?OnBnClickedDebugScodeB@CTO_CAMERADlg@@QEAAXXZ 000000014001e468     TO_CAMERADlg.obj
 0004:00000474       $pdata$1$?OnBnClickedDebugScodeB@CTO_CAMERADlg@@QEAAXXZ 000000014001e474     TO_CAMERADlg.obj
 0004:00000480       $pdata$?OnBnClickedDebugAgc@CTO_CAMERADlg@@QEAAXXZ 000000014001e480     TO_CAMERADlg.obj
 0004:0000048c       $pdata$0$?OnBnClickedDebugAgc@CTO_CAMERADlg@@QEAAXXZ 000000014001e48c     TO_CAMERADlg.obj
 0004:00000498       $pdata$1$?OnBnClickedDebugAgc@CTO_CAMERADlg@@QEAAXXZ 000000014001e498     TO_CAMERADlg.obj
 0004:000004a4       $pdata$?OnBnClickedRoup1@CTO_CAMERADlg@@QEAAXXZ 000000014001e4a4     TO_CAMERADlg.obj
 0004:000004b0       $pdata$0$?OnBnClickedRoup1@CTO_CAMERADlg@@QEAAXXZ 000000014001e4b0     TO_CAMERADlg.obj
 0004:000004bc       $pdata$1$?OnBnClickedRoup1@CTO_CAMERADlg@@QEAAXXZ 000000014001e4bc     TO_CAMERADlg.obj
 0004:000004c8       $pdata$?OnBnClickedRoup2@CTO_CAMERADlg@@QEAAXXZ 000000014001e4c8     TO_CAMERADlg.obj
 0004:000004d4       $pdata$0$?OnBnClickedRoup2@CTO_CAMERADlg@@QEAAXXZ 000000014001e4d4     TO_CAMERADlg.obj
 0004:000004e0       $pdata$1$?OnBnClickedRoup2@CTO_CAMERADlg@@QEAAXXZ 000000014001e4e0     TO_CAMERADlg.obj
 0004:000004ec       $pdata$?OnBnClickedRoup3@CTO_CAMERADlg@@QEAAXXZ 000000014001e4ec     TO_CAMERADlg.obj
 0004:000004f8       $pdata$0$?OnBnClickedRoup3@CTO_CAMERADlg@@QEAAXXZ 000000014001e4f8     TO_CAMERADlg.obj
 0004:00000504       $pdata$1$?OnBnClickedRoup3@CTO_CAMERADlg@@QEAAXXZ 000000014001e504     TO_CAMERADlg.obj
 0004:00000510       $pdata$?OnBnClickedRoup4@CTO_CAMERADlg@@QEAAXXZ 000000014001e510     TO_CAMERADlg.obj
 0004:0000051c       $pdata$0$?OnBnClickedRoup4@CTO_CAMERADlg@@QEAAXXZ 000000014001e51c     TO_CAMERADlg.obj
 0004:00000528       $pdata$1$?OnBnClickedRoup4@CTO_CAMERADlg@@QEAAXXZ 000000014001e528     TO_CAMERADlg.obj
 0004:00000534       $pdata$?OnBnClickedRoup5@CTO_CAMERADlg@@QEAAXXZ 000000014001e534     TO_CAMERADlg.obj
 0004:00000540       $pdata$0$?OnBnClickedRoup5@CTO_CAMERADlg@@QEAAXXZ 000000014001e540     TO_CAMERADlg.obj
 0004:0000054c       $pdata$1$?OnBnClickedRoup5@CTO_CAMERADlg@@QEAAXXZ 000000014001e54c     TO_CAMERADlg.obj
 0004:00000558       $pdata$?OnBnClickedRoup6@CTO_CAMERADlg@@QEAAXXZ 000000014001e558     TO_CAMERADlg.obj
 0004:00000564       $pdata$0$?OnBnClickedRoup6@CTO_CAMERADlg@@QEAAXXZ 000000014001e564     TO_CAMERADlg.obj
 0004:00000570       $pdata$1$?OnBnClickedRoup6@CTO_CAMERADlg@@QEAAXXZ 000000014001e570     TO_CAMERADlg.obj
 0004:0000057c       $pdata$?OnBnClickedRoup7@CTO_CAMERADlg@@QEAAXXZ 000000014001e57c     TO_CAMERADlg.obj
 0004:00000588       $pdata$0$?OnBnClickedRoup7@CTO_CAMERADlg@@QEAAXXZ 000000014001e588     TO_CAMERADlg.obj
 0004:00000594       $pdata$1$?OnBnClickedRoup7@CTO_CAMERADlg@@QEAAXXZ 000000014001e594     TO_CAMERADlg.obj
 0004:000005a0       $pdata$?OnBnClickedRoup8@CTO_CAMERADlg@@QEAAXXZ 000000014001e5a0     TO_CAMERADlg.obj
 0004:000005ac       $pdata$0$?OnBnClickedRoup8@CTO_CAMERADlg@@QEAAXXZ 000000014001e5ac     TO_CAMERADlg.obj
 0004:000005b8       $pdata$1$?OnBnClickedRoup8@CTO_CAMERADlg@@QEAAXXZ 000000014001e5b8     TO_CAMERADlg.obj
 0004:000005c4       $pdata$?OnBnClickedRoup9@CTO_CAMERADlg@@QEAAXXZ 000000014001e5c4     TO_CAMERADlg.obj
 0004:000005d0       $pdata$0$?OnBnClickedRoup9@CTO_CAMERADlg@@QEAAXXZ 000000014001e5d0     TO_CAMERADlg.obj
 0004:000005dc       $pdata$1$?OnBnClickedRoup9@CTO_CAMERADlg@@QEAAXXZ 000000014001e5dc     TO_CAMERADlg.obj
 0004:000005e8       $pdata$?OnBnClickedRoup10@CTO_CAMERADlg@@QEAAXXZ 000000014001e5e8     TO_CAMERADlg.obj
 0004:000005f4       $pdata$0$?OnBnClickedRoup10@CTO_CAMERADlg@@QEAAXXZ 000000014001e5f4     TO_CAMERADlg.obj
 0004:00000600       $pdata$1$?OnBnClickedRoup10@CTO_CAMERADlg@@QEAAXXZ 000000014001e600     TO_CAMERADlg.obj
 0004:0000060c       $pdata$?OnBnClickedRoup11@CTO_CAMERADlg@@QEAAXXZ 000000014001e60c     TO_CAMERADlg.obj
 0004:00000618       $pdata$0$?OnBnClickedRoup11@CTO_CAMERADlg@@QEAAXXZ 000000014001e618     TO_CAMERADlg.obj
 0004:00000624       $pdata$1$?OnBnClickedRoup11@CTO_CAMERADlg@@QEAAXXZ 000000014001e624     TO_CAMERADlg.obj
 0004:00000630       $pdata$?OnBnClickedRoup12@CTO_CAMERADlg@@QEAAXXZ 000000014001e630     TO_CAMERADlg.obj
 0004:0000063c       $pdata$0$?OnBnClickedRoup12@CTO_CAMERADlg@@QEAAXXZ 000000014001e63c     TO_CAMERADlg.obj
 0004:00000648       $pdata$1$?OnBnClickedRoup12@CTO_CAMERADlg@@QEAAXXZ 000000014001e648     TO_CAMERADlg.obj
 0004:00000654       $pdata$?OnBnClickedRoup13@CTO_CAMERADlg@@QEAAXXZ 000000014001e654     TO_CAMERADlg.obj
 0004:00000660       $pdata$0$?OnBnClickedRoup13@CTO_CAMERADlg@@QEAAXXZ 000000014001e660     TO_CAMERADlg.obj
 0004:0000066c       $pdata$1$?OnBnClickedRoup13@CTO_CAMERADlg@@QEAAXXZ 000000014001e66c     TO_CAMERADlg.obj
 0004:00000678       $pdata$?OnBnClickedRoup14@CTO_CAMERADlg@@QEAAXXZ 000000014001e678     TO_CAMERADlg.obj
 0004:00000684       $pdata$0$?OnBnClickedRoup14@CTO_CAMERADlg@@QEAAXXZ 000000014001e684     TO_CAMERADlg.obj
 0004:00000690       $pdata$1$?OnBnClickedRoup14@CTO_CAMERADlg@@QEAAXXZ 000000014001e690     TO_CAMERADlg.obj
 0004:0000069c       $pdata$?OnBnClickedRoup15@CTO_CAMERADlg@@QEAAXXZ 000000014001e69c     TO_CAMERADlg.obj
 0004:000006a8       $pdata$0$?OnBnClickedRoup15@CTO_CAMERADlg@@QEAAXXZ 000000014001e6a8     TO_CAMERADlg.obj
 0004:000006b4       $pdata$1$?OnBnClickedRoup15@CTO_CAMERADlg@@QEAAXXZ 000000014001e6b4     TO_CAMERADlg.obj
 0004:000006c0       $pdata$?OnBnClickedRoup16@CTO_CAMERADlg@@QEAAXXZ 000000014001e6c0     TO_CAMERADlg.obj
 0004:000006cc       $pdata$0$?OnBnClickedRoup16@CTO_CAMERADlg@@QEAAXXZ 000000014001e6cc     TO_CAMERADlg.obj
 0004:000006d8       $pdata$1$?OnBnClickedRoup16@CTO_CAMERADlg@@QEAAXXZ 000000014001e6d8     TO_CAMERADlg.obj
 0004:000006e4       $pdata$?OnBnClickedRoup17@CTO_CAMERADlg@@QEAAXXZ 000000014001e6e4     TO_CAMERADlg.obj
 0004:000006f0       $pdata$0$?OnBnClickedRoup17@CTO_CAMERADlg@@QEAAXXZ 000000014001e6f0     TO_CAMERADlg.obj
 0004:000006fc       $pdata$1$?OnBnClickedRoup17@CTO_CAMERADlg@@QEAAXXZ 000000014001e6fc     TO_CAMERADlg.obj
 0004:00000708       $pdata$?OnBnClickedRoup18@CTO_CAMERADlg@@QEAAXXZ 000000014001e708     TO_CAMERADlg.obj
 0004:00000714       $pdata$0$?OnBnClickedRoup18@CTO_CAMERADlg@@QEAAXXZ 000000014001e714     TO_CAMERADlg.obj
 0004:00000720       $pdata$1$?OnBnClickedRoup18@CTO_CAMERADlg@@QEAAXXZ 000000014001e720     TO_CAMERADlg.obj
 0004:0000072c       $pdata$?OnBnClickedRoup19@CTO_CAMERADlg@@QEAAXXZ 000000014001e72c     TO_CAMERADlg.obj
 0004:00000738       $pdata$0$?OnBnClickedRoup19@CTO_CAMERADlg@@QEAAXXZ 000000014001e738     TO_CAMERADlg.obj
 0004:00000744       $pdata$1$?OnBnClickedRoup19@CTO_CAMERADlg@@QEAAXXZ 000000014001e744     TO_CAMERADlg.obj
 0004:00000750       $pdata$?OnBnClickedRoup20@CTO_CAMERADlg@@QEAAXXZ 000000014001e750     TO_CAMERADlg.obj
 0004:0000075c       $pdata$0$?OnBnClickedRoup20@CTO_CAMERADlg@@QEAAXXZ 000000014001e75c     TO_CAMERADlg.obj
 0004:00000768       $pdata$1$?OnBnClickedRoup20@CTO_CAMERADlg@@QEAAXXZ 000000014001e768     TO_CAMERADlg.obj
 0004:00000774       $pdata$?OnBnClickedRoup21@CTO_CAMERADlg@@QEAAXXZ 000000014001e774     TO_CAMERADlg.obj
 0004:00000780       $pdata$0$?OnBnClickedRoup21@CTO_CAMERADlg@@QEAAXXZ 000000014001e780     TO_CAMERADlg.obj
 0004:0000078c       $pdata$1$?OnBnClickedRoup21@CTO_CAMERADlg@@QEAAXXZ 000000014001e78c     TO_CAMERADlg.obj
 0004:00000798       $pdata$?OnBnClickedRoup22@CTO_CAMERADlg@@QEAAXXZ 000000014001e798     TO_CAMERADlg.obj
 0004:000007a4       $pdata$0$?OnBnClickedRoup22@CTO_CAMERADlg@@QEAAXXZ 000000014001e7a4     TO_CAMERADlg.obj
 0004:000007b0       $pdata$1$?OnBnClickedRoup22@CTO_CAMERADlg@@QEAAXXZ 000000014001e7b0     TO_CAMERADlg.obj
 0004:000007bc       $pdata$?OnBnClickedRoup23@CTO_CAMERADlg@@QEAAXXZ 000000014001e7bc     TO_CAMERADlg.obj
 0004:000007c8       $pdata$0$?OnBnClickedRoup23@CTO_CAMERADlg@@QEAAXXZ 000000014001e7c8     TO_CAMERADlg.obj
 0004:000007d4       $pdata$1$?OnBnClickedRoup23@CTO_CAMERADlg@@QEAAXXZ 000000014001e7d4     TO_CAMERADlg.obj
 0004:000007e0       $pdata$?OnBnClickedRoup24@CTO_CAMERADlg@@QEAAXXZ 000000014001e7e0     TO_CAMERADlg.obj
 0004:000007ec       $pdata$0$?OnBnClickedRoup24@CTO_CAMERADlg@@QEAAXXZ 000000014001e7ec     TO_CAMERADlg.obj
 0004:000007f8       $pdata$1$?OnBnClickedRoup24@CTO_CAMERADlg@@QEAAXXZ 000000014001e7f8     TO_CAMERADlg.obj
 0004:00000804       $pdata$?OnBnClickedRoup25@CTO_CAMERADlg@@QEAAXXZ 000000014001e804     TO_CAMERADlg.obj
 0004:00000810       $pdata$0$?OnBnClickedRoup25@CTO_CAMERADlg@@QEAAXXZ 000000014001e810     TO_CAMERADlg.obj
 0004:0000081c       $pdata$1$?OnBnClickedRoup25@CTO_CAMERADlg@@QEAAXXZ 000000014001e81c     TO_CAMERADlg.obj
 0004:00000828       $pdata$?OnBnClickedRoup26@CTO_CAMERADlg@@QEAAXXZ 000000014001e828     TO_CAMERADlg.obj
 0004:00000834       $pdata$0$?OnBnClickedRoup26@CTO_CAMERADlg@@QEAAXXZ 000000014001e834     TO_CAMERADlg.obj
 0004:00000840       $pdata$1$?OnBnClickedRoup26@CTO_CAMERADlg@@QEAAXXZ 000000014001e840     TO_CAMERADlg.obj
 0004:0000084c       $pdata$?OnBnClickedRoup27@CTO_CAMERADlg@@QEAAXXZ 000000014001e84c     TO_CAMERADlg.obj
 0004:00000858       $pdata$0$?OnBnClickedRoup27@CTO_CAMERADlg@@QEAAXXZ 000000014001e858     TO_CAMERADlg.obj
 0004:00000864       $pdata$1$?OnBnClickedRoup27@CTO_CAMERADlg@@QEAAXXZ 000000014001e864     TO_CAMERADlg.obj
 0004:00000870       $pdata$?OnBnClickedRoup28@CTO_CAMERADlg@@QEAAXXZ 000000014001e870     TO_CAMERADlg.obj
 0004:0000087c       $pdata$0$?OnBnClickedRoup28@CTO_CAMERADlg@@QEAAXXZ 000000014001e87c     TO_CAMERADlg.obj
 0004:00000888       $pdata$1$?OnBnClickedRoup28@CTO_CAMERADlg@@QEAAXXZ 000000014001e888     TO_CAMERADlg.obj
 0004:00000894       $pdata$?OnBnClickedRoup29@CTO_CAMERADlg@@QEAAXXZ 000000014001e894     TO_CAMERADlg.obj
 0004:000008a0       $pdata$0$?OnBnClickedRoup29@CTO_CAMERADlg@@QEAAXXZ 000000014001e8a0     TO_CAMERADlg.obj
 0004:000008ac       $pdata$1$?OnBnClickedRoup29@CTO_CAMERADlg@@QEAAXXZ 000000014001e8ac     TO_CAMERADlg.obj
 0004:000008b8       $pdata$?OnBnClickedRoup30@CTO_CAMERADlg@@QEAAXXZ 000000014001e8b8     TO_CAMERADlg.obj
 0004:000008c4       $pdata$0$?OnBnClickedRoup30@CTO_CAMERADlg@@QEAAXXZ 000000014001e8c4     TO_CAMERADlg.obj
 0004:000008d0       $pdata$1$?OnBnClickedRoup30@CTO_CAMERADlg@@QEAAXXZ 000000014001e8d0     TO_CAMERADlg.obj
 0004:000008dc       $pdata$?OnBnClickedRoup31@CTO_CAMERADlg@@QEAAXXZ 000000014001e8dc     TO_CAMERADlg.obj
 0004:000008e8       $pdata$0$?OnBnClickedRoup31@CTO_CAMERADlg@@QEAAXXZ 000000014001e8e8     TO_CAMERADlg.obj
 0004:000008f4       $pdata$1$?OnBnClickedRoup31@CTO_CAMERADlg@@QEAAXXZ 000000014001e8f4     TO_CAMERADlg.obj
 0004:00000900       $pdata$?OnBnClickedRoup32@CTO_CAMERADlg@@QEAAXXZ 000000014001e900     TO_CAMERADlg.obj
 0004:0000090c       $pdata$0$?OnBnClickedRoup32@CTO_CAMERADlg@@QEAAXXZ 000000014001e90c     TO_CAMERADlg.obj
 0004:00000918       $pdata$1$?OnBnClickedRoup32@CTO_CAMERADlg@@QEAAXXZ 000000014001e918     TO_CAMERADlg.obj
 0004:00000924       $pdata$?OnBnClickedRodown1@CTO_CAMERADlg@@QEAAXXZ 000000014001e924     TO_CAMERADlg.obj
 0004:00000930       $pdata$0$?OnBnClickedRodown1@CTO_CAMERADlg@@QEAAXXZ 000000014001e930     TO_CAMERADlg.obj
 0004:0000093c       $pdata$1$?OnBnClickedRodown1@CTO_CAMERADlg@@QEAAXXZ 000000014001e93c     TO_CAMERADlg.obj
 0004:00000948       $pdata$?OnBnClickedRodown2@CTO_CAMERADlg@@QEAAXXZ 000000014001e948     TO_CAMERADlg.obj
 0004:00000954       $pdata$0$?OnBnClickedRodown2@CTO_CAMERADlg@@QEAAXXZ 000000014001e954     TO_CAMERADlg.obj
 0004:00000960       $pdata$1$?OnBnClickedRodown2@CTO_CAMERADlg@@QEAAXXZ 000000014001e960     TO_CAMERADlg.obj
 0004:0000096c       $pdata$?OnBnClickedRodown3@CTO_CAMERADlg@@QEAAXXZ 000000014001e96c     TO_CAMERADlg.obj
 0004:00000978       $pdata$0$?OnBnClickedRodown3@CTO_CAMERADlg@@QEAAXXZ 000000014001e978     TO_CAMERADlg.obj
 0004:00000984       $pdata$1$?OnBnClickedRodown3@CTO_CAMERADlg@@QEAAXXZ 000000014001e984     TO_CAMERADlg.obj
 0004:00000990       $pdata$?OnBnClickedRodown4@CTO_CAMERADlg@@QEAAXXZ 000000014001e990     TO_CAMERADlg.obj
 0004:0000099c       $pdata$0$?OnBnClickedRodown4@CTO_CAMERADlg@@QEAAXXZ 000000014001e99c     TO_CAMERADlg.obj
 0004:000009a8       $pdata$1$?OnBnClickedRodown4@CTO_CAMERADlg@@QEAAXXZ 000000014001e9a8     TO_CAMERADlg.obj
 0004:000009b4       $pdata$?OnBnClickedRodown5@CTO_CAMERADlg@@QEAAXXZ 000000014001e9b4     TO_CAMERADlg.obj
 0004:000009c0       $pdata$0$?OnBnClickedRodown5@CTO_CAMERADlg@@QEAAXXZ 000000014001e9c0     TO_CAMERADlg.obj
 0004:000009cc       $pdata$1$?OnBnClickedRodown5@CTO_CAMERADlg@@QEAAXXZ 000000014001e9cc     TO_CAMERADlg.obj
 0004:000009d8       $pdata$?OnBnClickedRodown6@CTO_CAMERADlg@@QEAAXXZ 000000014001e9d8     TO_CAMERADlg.obj
 0004:000009e4       $pdata$0$?OnBnClickedRodown6@CTO_CAMERADlg@@QEAAXXZ 000000014001e9e4     TO_CAMERADlg.obj
 0004:000009f0       $pdata$1$?OnBnClickedRodown6@CTO_CAMERADlg@@QEAAXXZ 000000014001e9f0     TO_CAMERADlg.obj
 0004:000009fc       $pdata$?OnBnClickedRodown7@CTO_CAMERADlg@@QEAAXXZ 000000014001e9fc     TO_CAMERADlg.obj
 0004:00000a08       $pdata$0$?OnBnClickedRodown7@CTO_CAMERADlg@@QEAAXXZ 000000014001ea08     TO_CAMERADlg.obj
 0004:00000a14       $pdata$1$?OnBnClickedRodown7@CTO_CAMERADlg@@QEAAXXZ 000000014001ea14     TO_CAMERADlg.obj
 0004:00000a20       $pdata$?OnBnClickedRodown8@CTO_CAMERADlg@@QEAAXXZ 000000014001ea20     TO_CAMERADlg.obj
 0004:00000a2c       $pdata$0$?OnBnClickedRodown8@CTO_CAMERADlg@@QEAAXXZ 000000014001ea2c     TO_CAMERADlg.obj
 0004:00000a38       $pdata$1$?OnBnClickedRodown8@CTO_CAMERADlg@@QEAAXXZ 000000014001ea38     TO_CAMERADlg.obj
 0004:00000a44       $pdata$?OnBnClickedRodown9@CTO_CAMERADlg@@QEAAXXZ 000000014001ea44     TO_CAMERADlg.obj
 0004:00000a50       $pdata$0$?OnBnClickedRodown9@CTO_CAMERADlg@@QEAAXXZ 000000014001ea50     TO_CAMERADlg.obj
 0004:00000a5c       $pdata$1$?OnBnClickedRodown9@CTO_CAMERADlg@@QEAAXXZ 000000014001ea5c     TO_CAMERADlg.obj
 0004:00000a68       $pdata$?OnBnClickedRodown10@CTO_CAMERADlg@@QEAAXXZ 000000014001ea68     TO_CAMERADlg.obj
 0004:00000a74       $pdata$0$?OnBnClickedRodown10@CTO_CAMERADlg@@QEAAXXZ 000000014001ea74     TO_CAMERADlg.obj
 0004:00000a80       $pdata$1$?OnBnClickedRodown10@CTO_CAMERADlg@@QEAAXXZ 000000014001ea80     TO_CAMERADlg.obj
 0004:00000a8c       $pdata$?OnBnClickedRodown11@CTO_CAMERADlg@@QEAAXXZ 000000014001ea8c     TO_CAMERADlg.obj
 0004:00000a98       $pdata$0$?OnBnClickedRodown11@CTO_CAMERADlg@@QEAAXXZ 000000014001ea98     TO_CAMERADlg.obj
 0004:00000aa4       $pdata$1$?OnBnClickedRodown11@CTO_CAMERADlg@@QEAAXXZ 000000014001eaa4     TO_CAMERADlg.obj
 0004:00000ab0       $pdata$?OnBnClickedRodown12@CTO_CAMERADlg@@QEAAXXZ 000000014001eab0     TO_CAMERADlg.obj
 0004:00000abc       $pdata$0$?OnBnClickedRodown12@CTO_CAMERADlg@@QEAAXXZ 000000014001eabc     TO_CAMERADlg.obj
 0004:00000ac8       $pdata$1$?OnBnClickedRodown12@CTO_CAMERADlg@@QEAAXXZ 000000014001eac8     TO_CAMERADlg.obj
 0004:00000ad4       $pdata$?OnBnClickedRodown13@CTO_CAMERADlg@@QEAAXXZ 000000014001ead4     TO_CAMERADlg.obj
 0004:00000ae0       $pdata$0$?OnBnClickedRodown13@CTO_CAMERADlg@@QEAAXXZ 000000014001eae0     TO_CAMERADlg.obj
 0004:00000aec       $pdata$1$?OnBnClickedRodown13@CTO_CAMERADlg@@QEAAXXZ 000000014001eaec     TO_CAMERADlg.obj
 0004:00000af8       $pdata$?OnBnClickedRodown14@CTO_CAMERADlg@@QEAAXXZ 000000014001eaf8     TO_CAMERADlg.obj
 0004:00000b04       $pdata$0$?OnBnClickedRodown14@CTO_CAMERADlg@@QEAAXXZ 000000014001eb04     TO_CAMERADlg.obj
 0004:00000b10       $pdata$1$?OnBnClickedRodown14@CTO_CAMERADlg@@QEAAXXZ 000000014001eb10     TO_CAMERADlg.obj
 0004:00000b1c       $pdata$?OnBnClickedRodown15@CTO_CAMERADlg@@QEAAXXZ 000000014001eb1c     TO_CAMERADlg.obj
 0004:00000b28       $pdata$0$?OnBnClickedRodown15@CTO_CAMERADlg@@QEAAXXZ 000000014001eb28     TO_CAMERADlg.obj
 0004:00000b34       $pdata$1$?OnBnClickedRodown15@CTO_CAMERADlg@@QEAAXXZ 000000014001eb34     TO_CAMERADlg.obj
 0004:00000b40       $pdata$?OnBnClickedRodown16@CTO_CAMERADlg@@QEAAXXZ 000000014001eb40     TO_CAMERADlg.obj
 0004:00000b4c       $pdata$0$?OnBnClickedRodown16@CTO_CAMERADlg@@QEAAXXZ 000000014001eb4c     TO_CAMERADlg.obj
 0004:00000b58       $pdata$1$?OnBnClickedRodown16@CTO_CAMERADlg@@QEAAXXZ 000000014001eb58     TO_CAMERADlg.obj
 0004:00000b64       $pdata$?OnBnClickedRodown17@CTO_CAMERADlg@@QEAAXXZ 000000014001eb64     TO_CAMERADlg.obj
 0004:00000b70       $pdata$0$?OnBnClickedRodown17@CTO_CAMERADlg@@QEAAXXZ 000000014001eb70     TO_CAMERADlg.obj
 0004:00000b7c       $pdata$1$?OnBnClickedRodown17@CTO_CAMERADlg@@QEAAXXZ 000000014001eb7c     TO_CAMERADlg.obj
 0004:00000b88       $pdata$?OnBnClickedRodown18@CTO_CAMERADlg@@QEAAXXZ 000000014001eb88     TO_CAMERADlg.obj
 0004:00000b94       $pdata$0$?OnBnClickedRodown18@CTO_CAMERADlg@@QEAAXXZ 000000014001eb94     TO_CAMERADlg.obj
 0004:00000ba0       $pdata$1$?OnBnClickedRodown18@CTO_CAMERADlg@@QEAAXXZ 000000014001eba0     TO_CAMERADlg.obj
 0004:00000bac       $pdata$?OnBnClickedRodown19@CTO_CAMERADlg@@QEAAXXZ 000000014001ebac     TO_CAMERADlg.obj
 0004:00000bb8       $pdata$0$?OnBnClickedRodown19@CTO_CAMERADlg@@QEAAXXZ 000000014001ebb8     TO_CAMERADlg.obj
 0004:00000bc4       $pdata$1$?OnBnClickedRodown19@CTO_CAMERADlg@@QEAAXXZ 000000014001ebc4     TO_CAMERADlg.obj
 0004:00000bd0       $pdata$?OnBnClickedRodown20@CTO_CAMERADlg@@QEAAXXZ 000000014001ebd0     TO_CAMERADlg.obj
 0004:00000bdc       $pdata$0$?OnBnClickedRodown20@CTO_CAMERADlg@@QEAAXXZ 000000014001ebdc     TO_CAMERADlg.obj
 0004:00000be8       $pdata$1$?OnBnClickedRodown20@CTO_CAMERADlg@@QEAAXXZ 000000014001ebe8     TO_CAMERADlg.obj
 0004:00000bf4       $pdata$?OnBnClickedRodown21@CTO_CAMERADlg@@QEAAXXZ 000000014001ebf4     TO_CAMERADlg.obj
 0004:00000c00       $pdata$0$?OnBnClickedRodown21@CTO_CAMERADlg@@QEAAXXZ 000000014001ec00     TO_CAMERADlg.obj
 0004:00000c0c       $pdata$1$?OnBnClickedRodown21@CTO_CAMERADlg@@QEAAXXZ 000000014001ec0c     TO_CAMERADlg.obj
 0004:00000c18       $pdata$?OnBnClickedRodown22@CTO_CAMERADlg@@QEAAXXZ 000000014001ec18     TO_CAMERADlg.obj
 0004:00000c24       $pdata$0$?OnBnClickedRodown22@CTO_CAMERADlg@@QEAAXXZ 000000014001ec24     TO_CAMERADlg.obj
 0004:00000c30       $pdata$1$?OnBnClickedRodown22@CTO_CAMERADlg@@QEAAXXZ 000000014001ec30     TO_CAMERADlg.obj
 0004:00000c3c       $pdata$?OnBnClickedRodown23@CTO_CAMERADlg@@QEAAXXZ 000000014001ec3c     TO_CAMERADlg.obj
 0004:00000c48       $pdata$0$?OnBnClickedRodown23@CTO_CAMERADlg@@QEAAXXZ 000000014001ec48     TO_CAMERADlg.obj
 0004:00000c54       $pdata$1$?OnBnClickedRodown23@CTO_CAMERADlg@@QEAAXXZ 000000014001ec54     TO_CAMERADlg.obj
 0004:00000c60       $pdata$?OnBnClickedRodown24@CTO_CAMERADlg@@QEAAXXZ 000000014001ec60     TO_CAMERADlg.obj
 0004:00000c6c       $pdata$0$?OnBnClickedRodown24@CTO_CAMERADlg@@QEAAXXZ 000000014001ec6c     TO_CAMERADlg.obj
 0004:00000c78       $pdata$1$?OnBnClickedRodown24@CTO_CAMERADlg@@QEAAXXZ 000000014001ec78     TO_CAMERADlg.obj
 0004:00000c84       $pdata$?OnBnClickedRodown25@CTO_CAMERADlg@@QEAAXXZ 000000014001ec84     TO_CAMERADlg.obj
 0004:00000c90       $pdata$0$?OnBnClickedRodown25@CTO_CAMERADlg@@QEAAXXZ 000000014001ec90     TO_CAMERADlg.obj
 0004:00000c9c       $pdata$1$?OnBnClickedRodown25@CTO_CAMERADlg@@QEAAXXZ 000000014001ec9c     TO_CAMERADlg.obj
 0004:00000ca8       $pdata$?OnBnClickedRodown26@CTO_CAMERADlg@@QEAAXXZ 000000014001eca8     TO_CAMERADlg.obj
 0004:00000cb4       $pdata$0$?OnBnClickedRodown26@CTO_CAMERADlg@@QEAAXXZ 000000014001ecb4     TO_CAMERADlg.obj
 0004:00000cc0       $pdata$1$?OnBnClickedRodown26@CTO_CAMERADlg@@QEAAXXZ 000000014001ecc0     TO_CAMERADlg.obj
 0004:00000ccc       $pdata$?OnBnClickedRodown27@CTO_CAMERADlg@@QEAAXXZ 000000014001eccc     TO_CAMERADlg.obj
 0004:00000cd8       $pdata$0$?OnBnClickedRodown27@CTO_CAMERADlg@@QEAAXXZ 000000014001ecd8     TO_CAMERADlg.obj
 0004:00000ce4       $pdata$1$?OnBnClickedRodown27@CTO_CAMERADlg@@QEAAXXZ 000000014001ece4     TO_CAMERADlg.obj
 0004:00000cf0       $pdata$?OnBnClickedRodown28@CTO_CAMERADlg@@QEAAXXZ 000000014001ecf0     TO_CAMERADlg.obj
 0004:00000cfc       $pdata$0$?OnBnClickedRodown28@CTO_CAMERADlg@@QEAAXXZ 000000014001ecfc     TO_CAMERADlg.obj
 0004:00000d08       $pdata$1$?OnBnClickedRodown28@CTO_CAMERADlg@@QEAAXXZ 000000014001ed08     TO_CAMERADlg.obj
 0004:00000d14       $pdata$?OnBnClickedRodown29@CTO_CAMERADlg@@QEAAXXZ 000000014001ed14     TO_CAMERADlg.obj
 0004:00000d20       $pdata$0$?OnBnClickedRodown29@CTO_CAMERADlg@@QEAAXXZ 000000014001ed20     TO_CAMERADlg.obj
 0004:00000d2c       $pdata$1$?OnBnClickedRodown29@CTO_CAMERADlg@@QEAAXXZ 000000014001ed2c     TO_CAMERADlg.obj
 0004:00000d38       $pdata$?OnBnClickedRodown30@CTO_CAMERADlg@@QEAAXXZ 000000014001ed38     TO_CAMERADlg.obj
 0004:00000d44       $pdata$0$?OnBnClickedRodown30@CTO_CAMERADlg@@QEAAXXZ 000000014001ed44     TO_CAMERADlg.obj
 0004:00000d50       $pdata$1$?OnBnClickedRodown30@CTO_CAMERADlg@@QEAAXXZ 000000014001ed50     TO_CAMERADlg.obj
 0004:00000d5c       $pdata$?OnBnClickedRodown31@CTO_CAMERADlg@@QEAAXXZ 000000014001ed5c     TO_CAMERADlg.obj
 0004:00000d68       $pdata$0$?OnBnClickedRodown31@CTO_CAMERADlg@@QEAAXXZ 000000014001ed68     TO_CAMERADlg.obj
 0004:00000d74       $pdata$1$?OnBnClickedRodown31@CTO_CAMERADlg@@QEAAXXZ 000000014001ed74     TO_CAMERADlg.obj
 0004:00000d80       $pdata$?OnBnClickedRodown32@CTO_CAMERADlg@@QEAAXXZ 000000014001ed80     TO_CAMERADlg.obj
 0004:00000d8c       $pdata$0$?OnBnClickedRodown32@CTO_CAMERADlg@@QEAAXXZ 000000014001ed8c     TO_CAMERADlg.obj
 0004:00000d98       $pdata$1$?OnBnClickedRodown32@CTO_CAMERADlg@@QEAAXXZ 000000014001ed98     TO_CAMERADlg.obj
 0004:00000da4       $pdata$?OnBnClickedCmdSend@CTO_CAMERADlg@@QEAAXXZ 000000014001eda4     TO_CAMERADlg.obj
 0004:00000db0       $pdata$0$?OnBnClickedCmdSend@CTO_CAMERADlg@@QEAAXXZ 000000014001edb0     TO_CAMERADlg.obj
 0004:00000dbc       $pdata$1$?OnBnClickedCmdSend@CTO_CAMERADlg@@QEAAXXZ 000000014001edbc     TO_CAMERADlg.obj
 0004:00000dc8       $pdata$??HATL@@YA?AV?$CStringT@DV?$StrTraitMFC_DLL@DV?$ChTraitsCRT@D@ATL@@@@@0@PEBDAEBV10@@Z 000000014001edc8     TO_CAMERADlg.obj
 0004:00000dd4       $pdata$?AddToTail@?$ThreadQueue@UCOMMON_QUE@@@KizuLib@@QEAAHPEAUCOMMON_QUE@@@Z 000000014001edd4     TO_CAMERADlg.obj
 0004:00000de0       $pdata$?_Growmap@?$deque@PEAUCOMMON_QUE@@V?$allocator@PEAUCOMMON_QUE@@@std@@@std@@IEAAX_K@Z 000000014001ede0     TO_CAMERADlg.obj
 0004:00000de0       $pdata$?_Growmap@?$deque@PEADV?$allocator@PEAD@std@@@std@@IEAAX_K@Z 000000014001ede0     KizuLibMFC:LogFileManager.obj
 0004:00000dec       $pdata$5$?_Growmap@?$deque@PEAUCOMMON_QUE@@V?$allocator@PEAUCOMMON_QUE@@@std@@@std@@IEAAX_K@Z 000000014001edec     TO_CAMERADlg.obj
 0004:00000dec       $pdata$5$?_Growmap@?$deque@PEADV?$allocator@PEAD@std@@@std@@IEAAX_K@Z 000000014001edec     KizuLibMFC:LogFileManager.obj
 0004:00000df8       $pdata$6$?_Growmap@?$deque@PEAUCOMMON_QUE@@V?$allocator@PEAUCOMMON_QUE@@@std@@@std@@IEAAX_K@Z 000000014001edf8     TO_CAMERADlg.obj
 0004:00000df8       $pdata$6$?_Growmap@?$deque@PEADV?$allocator@PEAD@std@@@std@@IEAAX_K@Z 000000014001edf8     KizuLibMFC:LogFileManager.obj
 0004:00000e04       $pdata$7$?_Growmap@?$deque@PEADV?$allocator@PEAD@std@@@std@@IEAAX_K@Z 000000014001ee04     KizuLibMFC:LogFileManager.obj
 0004:00000e04       $pdata$7$?_Growmap@?$deque@PEAUCOMMON_QUE@@V?$allocator@PEAUCOMMON_QUE@@@std@@@std@@IEAAX_K@Z 000000014001ee04     TO_CAMERADlg.obj
 0004:00000e10       $pdata$??_GCComboBox@@UEAAPEAXI@Z 000000014001ee10     TO_CAMERADlg.obj
 0004:00000e1c       $pdata$??_GCListBox@@UEAAPEAXI@Z 000000014001ee1c     TO_CAMERADlg.obj
 0004:00000e28       $pdata$??0Rs232cBase@Kizu232C@@QEAA@PEBD0KKKK_N@Z 000000014001ee28     Kizu232C:Rs232cBase.obj
 0004:00000e34       $pdata$??_GRs232cBase@Kizu232C@@UEAAPEAXI@Z 000000014001ee34     Kizu232C:Rs232cBase.obj
 0004:00000e40       $pdata$??1Rs232cBase@Kizu232C@@UEAA@XZ 000000014001ee40     Kizu232C:Rs232cBase.obj
 0004:00000e4c       $pdata$?Send@Rs232cBase@Kizu232C@@QEAAHPEBXKPEAX@Z 000000014001ee4c     Kizu232C:Rs232cBase.obj
 0004:00000e58       $pdata$?MainThread@Rs232cBase@Kizu232C@@CAIPEAX@Z 000000014001ee58     Kizu232C:Rs232cBase.obj
 0004:00000e64       $pdata$??0exception@std@@QEAA@AEBV01@@Z 000000014001ee64     KizuLibMFC:LogFileManager.obj
 0004:00000e70       $pdata$??_Gexception@std@@UEAAPEAXI@Z 000000014001ee70     KizuLibMFC:LogFileManager.obj
 0004:00000e70       $pdata$??_Gbad_cast@std@@UEAAPEAXI@Z 000000014001ee70     KizuLibMFC:LogFileManager.obj
 0004:00000e7c       $pdata$??1locale@std@@QEAA@XZ 000000014001ee7c     KizuLibMFC:LogFileManager.obj
 0004:00000e88       $pdata$??1AutoLock@KizuLib@@UEAA@XZ 000000014001ee88     KizuLibMFC:LogFileManager.obj
 0004:00000e94       $pdata$??_GAutoLock@KizuLib@@UEAAPEAXI@Z 000000014001ee94     KizuLibMFC:LogFileManager.obj
 0004:00000ea0       $pdata$?GetNowLogPath@LogFileManager@KizuLib@@QEAA?AV?$CStringT@DV?$StrTraitMFC_DLL@DV?$ChTraitsCRT@D@ATL@@@@@ATL@@XZ 000000014001eea0     KizuLibMFC:LogFileManager.obj
 0004:00000eac       $pdata$??0LogFileManager@KizuLib@@QEAA@PEBDPEAVCListBox@@HH@Z 000000014001eeac     KizuLibMFC:LogFileManager.obj
 0004:00000eb8       $pdata$??_GLogFileManager@KizuLib@@UEAAPEAXI@Z 000000014001eeb8     KizuLibMFC:LogFileManager.obj
 0004:00000ec4       $pdata$??_D?$basic_ofstream@DU?$char_traits@D@std@@@std@@QEAAXXZ 000000014001eec4     KizuLibMFC:LogFileManager.obj
 0004:00000ed0       $pdata$??1LogFileManager@KizuLib@@UEAA@XZ 000000014001eed0     KizuLibMFC:LogFileManager.obj
 0004:00000edc       $pdata$?Write@LogFileManager@KizuLib@@QEAAXW4LNO@12@PEBDZZ 000000014001eedc     KizuLibMFC:LogFileManager.obj
 0004:00000ee8       $pdata$?WriteFile@LogFileManager@KizuLib@@QEAAXPEBD@Z 000000014001eee8     KizuLibMFC:LogFileManager.obj
 0004:00000ef4       $pdata$?WriteList@LogFileManager@KizuLib@@AEAAXPEBD@Z 000000014001eef4     KizuLibMFC:LogFileManager.obj
 0004:00000f00       $pdata$?AllGetQueue@LogFileManager@KizuLib@@QEAAHXZ 000000014001ef00     KizuLibMFC:LogFileManager.obj
 0004:00000f0c       $pdata$?ShowEdit@LogFileManager@KizuLib@@QEAAXXZ 000000014001ef0c     KizuLibMFC:LogFileManager.obj
 0004:00000f18       $pdata$?MainThread@LogFileManager@KizuLib@@CAIPEAX@Z 000000014001ef18     KizuLibMFC:LogFileManager.obj
 0004:00000f24       $pdata$2$?MainThread@LogFileManager@KizuLib@@CAIPEAX@Z 000000014001ef24     KizuLibMFC:LogFileManager.obj
 0004:00000f30       $pdata$3$?MainThread@LogFileManager@KizuLib@@CAIPEAX@Z 000000014001ef30     KizuLibMFC:LogFileManager.obj
 0004:00000f3c       $pdata$??1?$basic_string@DU?$char_traits@D@std@@V?$allocator@D@2@@std@@QEAA@XZ 000000014001ef3c     KizuLibMFC:LogFileManager.obj
 0004:00000f48       $pdata$??0?$basic_ofstream@DU?$char_traits@D@std@@@std@@QEAA@XZ 000000014001ef48     KizuLibMFC:LogFileManager.obj
 0004:00000f54       $pdata$?imbue@?$basic_filebuf@DU?$char_traits@D@std@@@std@@MEAAXAEBVlocale@2@@Z 000000014001ef54     KizuLibMFC:LogFileManager.obj
 0004:00000f60       $pdata$?sync@?$basic_filebuf@DU?$char_traits@D@std@@@std@@MEAAHXZ 000000014001ef60     KizuLibMFC:LogFileManager.obj
 0004:00000f6c       $pdata$?setbuf@?$basic_filebuf@DU?$char_traits@D@std@@@std@@MEAAPEAV?$basic_streambuf@DU?$char_traits@D@std@@@2@PEAD_J@Z 000000014001ef6c     KizuLibMFC:LogFileManager.obj
 0004:00000f78       $pdata$0$?setbuf@?$basic_filebuf@DU?$char_traits@D@std@@@std@@MEAAPEAV?$basic_streambuf@DU?$char_traits@D@std@@@2@PEAD_J@Z 000000014001ef78     KizuLibMFC:LogFileManager.obj
 0004:00000f84       $pdata$1$?setbuf@?$basic_filebuf@DU?$char_traits@D@std@@@std@@MEAAPEAV?$basic_streambuf@DU?$char_traits@D@std@@@2@PEAD_J@Z 000000014001ef84     KizuLibMFC:LogFileManager.obj
 0004:00000f90       $pdata$?seekpos@?$basic_filebuf@DU?$char_traits@D@std@@@std@@MEAA?AV?$fpos@U_Mbstatet@@@2@V32@H@Z 000000014001ef90     KizuLibMFC:LogFileManager.obj
 0004:00000f9c       $pdata$?seekoff@?$basic_filebuf@DU?$char_traits@D@std@@@std@@MEAA?AV?$fpos@U_Mbstatet@@@2@_JHH@Z 000000014001ef9c     KizuLibMFC:LogFileManager.obj
 0004:00000fa8       $pdata$?uflow@?$basic_filebuf@DU?$char_traits@D@std@@@std@@MEAAHXZ 000000014001efa8     KizuLibMFC:LogFileManager.obj
 0004:00000fb4       $pdata$?underflow@?$basic_filebuf@DU?$char_traits@D@std@@@std@@MEAAHXZ 000000014001efb4     KizuLibMFC:LogFileManager.obj
 0004:00000fc0       $pdata$0$?underflow@?$basic_filebuf@DU?$char_traits@D@std@@@std@@MEAAHXZ 000000014001efc0     KizuLibMFC:LogFileManager.obj
 0004:00000fcc       $pdata$2$?underflow@?$basic_filebuf@DU?$char_traits@D@std@@@std@@MEAAHXZ 000000014001efcc     KizuLibMFC:LogFileManager.obj
 0004:00000fd8       $pdata$?pbackfail@?$basic_filebuf@DU?$char_traits@D@std@@@std@@MEAAHH@Z 000000014001efd8     KizuLibMFC:LogFileManager.obj
 0004:00000fe4       $pdata$?overflow@?$basic_filebuf@DU?$char_traits@D@std@@@std@@MEAAHH@Z 000000014001efe4     KizuLibMFC:LogFileManager.obj
 0004:00000ff0       $pdata$??1?$basic_filebuf@DU?$char_traits@D@std@@@std@@UEAA@XZ 000000014001eff0     KizuLibMFC:LogFileManager.obj
 0004:00000ffc       $pdata$??_G?$basic_ofstream@DU?$char_traits@D@std@@@std@@UEAAPEAXI@Z 000000014001effc     KizuLibMFC:LogFileManager.obj
 0004:00001008       $pdata$??_G?$basic_filebuf@DU?$char_traits@D@std@@@std@@UEAAPEAXI@Z 000000014001f008     KizuLibMFC:LogFileManager.obj
 0004:00001014       $pdata$?_Endwrite@?$basic_filebuf@DU?$char_traits@D@std@@@std@@IEAA_NXZ 000000014001f014     KizuLibMFC:LogFileManager.obj
 0004:00001020       $pdata$?close@?$basic_filebuf@DU?$char_traits@D@std@@@std@@QEAAPEAV12@XZ 000000014001f020     KizuLibMFC:LogFileManager.obj
 0004:0000102c       $pdata$?open@?$basic_filebuf@DU?$char_traits@D@std@@@std@@QEAAPEAV12@PEBDHH@Z 000000014001f02c     KizuLibMFC:LogFileManager.obj
 0004:00001038       $pdata$?_Copy@?$basic_string@DU?$char_traits@D@std@@V?$allocator@D@2@@std@@QEAAX_K0@Z 000000014001f038     KizuLibMFC:LogFileManager.obj
 0004:00001044       $pdata$??0?$ThreadQueue@D@KizuLib@@QEAA@H@Z 000000014001f044     KizuLibMFC:LogFileManager.obj
 0004:00001050       $pdata$??1?$ThreadQueue@D@KizuLib@@UEAA@XZ 000000014001f050     KizuLibMFC:LogFileManager.obj
 0004:0000105c       $pdata$?Free@?$ThreadQueue@D@KizuLib@@QEAAXXZ 000000014001f05c     KizuLibMFC:LogFileManager.obj
 0004:00001068       $pdata$0$?Free@?$ThreadQueue@D@KizuLib@@QEAAXXZ 000000014001f068     KizuLibMFC:LogFileManager.obj
 0004:00001074       $pdata$1$?Free@?$ThreadQueue@D@KizuLib@@QEAAXXZ 000000014001f074     KizuLibMFC:LogFileManager.obj
 0004:00001080       $pdata$??$?6U?$char_traits@D@std@@@std@@YAAEAV?$basic_ostream@DU?$char_traits@D@std@@@0@AEAV10@PEBD@Z 000000014001f080     KizuLibMFC:LogFileManager.obj
 0004:0000108c       $pdata$??$endl@DU?$char_traits@D@std@@@std@@YAAEAV?$basic_ostream@DU?$char_traits@D@std@@@0@AEAV10@@Z 000000014001f08c     KizuLibMFC:LogFileManager.obj
 0004:00001098       $pdata$??$use_facet@V?$codecvt@DDU_Mbstatet@@@std@@@std@@YAAEBV?$codecvt@DDU_Mbstatet@@@0@AEBVlocale@0@@Z 000000014001f098     KizuLibMFC:LogFileManager.obj
 0004:000010a4       $pdata$??0bad_cast@std@@QEAA@AEBV01@@Z 000000014001f0a4     KizuLibMFC:LogFileManager.obj
 0004:000010b0       $pdata$??_G?$ThreadQueue@D@KizuLib@@UEAAPEAXI@Z 000000014001f0b0     KizuLibMFC:LogFileManager.obj
 0004:000010bc       $pdata$?push_back@?$deque@PEADV?$allocator@PEAD@std@@@std@@QEAAXAEBQEAD@Z 000000014001f0bc     KizuLibMFC:LogFileManager.obj
 0004:000010c8       $pdata$??1sentry@?$basic_ostream@DU?$char_traits@D@std@@@std@@QEAA@XZ 000000014001f0c8     KizuLibMFC:LogFileManager.obj
 0004:000010d4       $pdata$??1_Sentry_base@?$basic_ostream@DU?$char_traits@D@std@@@std@@QEAA@XZ 000000014001f0d4     KizuLibMFC:LogFileManager.obj
 0004:000010e0       $pdata$??_GWorkThread@KizuLib@@UEAAPEAXI@Z 000000014001f0e0     KizuLib:WorkThread.obj
 0004:000010ec       $pdata$?MainThread@WorkThread@KizuLib@@MEAAIXZ 000000014001f0ec     KizuLib:WorkThread.obj
 0004:000010f8       $pdata$?StopMSG@WorkThread@KizuLib@@QEAAXHH@Z 000000014001f0f8     KizuLib:WorkThread.obj
 0004:00001104       $pdata$?task_init@@YAHPEBDH@Z 000000014001f104     KizuLib:KizuLib.obj
 0004:00001110       $pdata$0$?task_init@@YAHPEBDH@Z 000000014001f110     KizuLib:KizuLib.obj
 0004:0000111c       $pdata$2$?task_init@@YAHPEBDH@Z 000000014001f11c     KizuLib:KizuLib.obj
 0004:00001128       $pdata$4$?task_init@@YAHPEBDH@Z 000000014001f128     KizuLib:KizuLib.obj
 0004:00001134       $pdata$?syslog@@YAHJPEBDZZ 000000014001f134     KizuLib:KizuLib.obj
 0004:00001140       $pdata$?statelog@@YAHJJJPEBDZZ 000000014001f140     KizuLib:KizuLib.obj
 0004:0000114c       $pdata$?SetStatus@KizuFunction@KizuLib@@SA_NHH_NPEBD@Z 000000014001f14c     KizuLib:KizuFunction.obj
 0004:00001158       $pdata$??0KizuPcInfManager@KizuLib@@QEAA@H@Z 000000014001f158     KizuLib:KizuPcInfManager.obj
 0004:00001164       $pdata$??_GKizuPcInfManager@KizuLib@@UEAAPEAXI@Z 000000014001f164     KizuLib:KizuPcInfManager.obj
 0004:00001170       $pdata$?SetPcName@KizuPcInfManager@KizuLib@@QEAA_NPEADPEBD1@Z 000000014001f170     KizuLib:KizuPcInfManager.obj
 0004:0000117c       $pdata$??_GMailSlotManager@KizuLib@@UEAAPEAXI@Z 000000014001f17c     KizuLib:MailSlotManager.obj
 0004:00001188       $pdata$?SendMail@MailSlotManager@KizuLib@@SAHPEBD0PEBXK@Z 000000014001f188     KizuLib:MailSlotManager.obj
 0004:00001194       $pdata$?Create@MailSlotManager@KizuLib@@QEAA_NPEBDK@Z 000000014001f194     KizuLib:MailSlotManager.obj
 0004:000011a0       $pdata$?Recv@MailSlotManager@KizuLib@@UEAAHPEAXK@Z 000000014001f1a0     KizuLib:MailSlotManager.obj
 0004:000011ac       $pdata$?Send@MailSlotManager@KizuLib@@UEAAHPEBXK@Z 000000014001f1ac     KizuLib:MailSlotManager.obj
 0004:000011b8       $pdata$?Recv@MailSlotManager@KizuLib@@UEAA_NPEAXKPEAU_OVERLAPPED@@@Z 000000014001f1b8     KizuLib:MailSlotManager.obj
 0004:000011c4       $pdata$?Send@MailSlotManager@KizuLib@@UEAA_NPEBXKPEAU_OVERLAPPED@@@Z 000000014001f1c4     KizuLib:MailSlotManager.obj
 0004:000011d0       $pdata$?GetResult@MailSlotManager@KizuLib@@UEAA_NPEAU_OVERLAPPED@@@Z 000000014001f1d0     KizuLib:MailSlotManager.obj
 0004:000011dc       $pdata$??_GOdbcBase@KizuODBC@@UEAAPEAXI@Z 000000014001f1dc     KizuODBC:OdbcBase.obj
 0004:000011e8       $pdata$??1OdbcBase@KizuODBC@@UEAA@XZ 000000014001f1e8     KizuODBC:OdbcBase.obj
 0004:000011f4       $pdata$?DisConnect@OdbcBase@KizuODBC@@QEAAXXZ 000000014001f1f4     KizuODBC:OdbcBase.obj
 0004:00001200       $pdata$??0OdbcEnv@KizuODBC@@AEAA@XZ 000000014001f200     KizuODBC:OdbcEnv.obj
 0004:0000120c       $pdata$??_GOdbcEnv@KizuODBC@@UEAAPEAXI@Z 000000014001f20c     KizuODBC:OdbcEnv.obj
 0004:00001218       $pdata$?GetErrMsg@OdbcEnv@KizuODBC@@QEAAXXZ 000000014001f218     KizuODBC:OdbcEnv.obj
 0004:00001224       $pdata$??_GOdbcManager@KizuODBC@@UEAAPEAXI@Z 000000014001f224     KizuODBC:OdbcManager.obj
 0004:00001230       $pdata$??1OdbcManager@KizuODBC@@UEAA@XZ 000000014001f230     KizuODBC:OdbcManager.obj
 0004:0000123c       $pdata$?Alloc@OdbcManager@KizuODBC@@IEAAXXZ 000000014001f23c     KizuODBC:OdbcManager.obj
 0004:00001248       $pdata$?Connect@OdbcManager@KizuODBC@@QEAAHPEBD0@Z 000000014001f248     KizuODBC:OdbcManager.obj
 0004:00001254       $pdata$?Connect@OdbcManager@KizuODBC@@QEAAHPEBD00@Z 000000014001f254     KizuODBC:OdbcManager.obj
 0004:00001260       $pdata$?DisConnect@OdbcManager@KizuODBC@@QEAAXXZ 000000014001f260     KizuODBC:OdbcManager.obj
 0004:0000126c       $pdata$?ExecuteDirect@OdbcManager@KizuODBC@@QEAAFPEBD@Z 000000014001f26c     KizuODBC:OdbcManager.obj
 0004:00001278       $pdata$?GetErrMsg@OdbcManager@KizuODBC@@QEAAXXZ 000000014001f278     KizuODBC:OdbcManager.obj
 0004:00001284       $pdata$?GetErrMsg@OdbcManager@KizuODBC@@QEAAXF@Z 000000014001f284     KizuODBC:OdbcManager.obj
 0004:0000129c       $pdata$??_Gtype_info@@UEAAPEAXI@Z 000000014001f29c     msvcrt:std_type_info_static.obj
 0004:000012a8       $pdata$?__scrt_initialize_thread_safe_statics@@YAHXZ 000000014001f2a8     msvcrt:thread_safe_statics.obj
 0004:000012b4       $pdata$?__scrt_uninitialize_thread_safe_statics@@YAXXZ 000000014001f2b4     msvcrt:thread_safe_statics.obj
 0004:000012c0       $pdata$__scrt_acquire_startup_lock 000000014001f2c0     msvcrt:utility.obj
 0004:000012cc       $pdata$__scrt_initialize_crt 000000014001f2cc     msvcrt:utility.obj
 0004:000012d8       $pdata$__scrt_initialize_onexit_tables 000000014001f2d8     msvcrt:utility.obj
 0004:000012e4       $pdata$__scrt_is_nonwritable_in_current_image 000000014001f2e4     msvcrt:utility.obj
 0004:000012f0       $pdata$__scrt_release_startup_lock 000000014001f2f0     msvcrt:utility.obj
 0004:000012fc       $pdata$__scrt_uninitialize_crt 000000014001f2fc     msvcrt:utility.obj
 0004:00001308       $pdata$_onexit             000000014001f308     msvcrt:utility.obj
 0004:00001314       $pdata$atexit              000000014001f314     msvcrt:utility.obj
 0004:00001320       $pdata$?pre_c_initialization@@YAHXZ 000000014001f320     msvcrt:exe_winmain.obj
 0004:0000132c       $pdata$?post_pgo_initialization@@YAHXZ 000000014001f32c     msvcrt:exe_winmain.obj
 0004:00001338       $pdata$?pre_cpp_initialization@@YAXXZ 000000014001f338     msvcrt:exe_winmain.obj
 0004:00001344       $pdata$?__scrt_common_main_seh@@YAHXZ 000000014001f344     msvcrt:exe_winmain.obj
 0004:00001350       $pdata$WinMainCRTStartup   000000014001f350     msvcrt:exe_winmain.obj
 0004:0000135c       $pdata$__raise_securityfailure 000000014001f35c     msvcrt:gs_report.obj
 0004:00001368       $pdata$__report_gsfailure  000000014001f368     msvcrt:gs_report.obj
 0004:00001374       $pdata$capture_previous_context 000000014001f374     msvcrt:gs_report.obj
 0004:00001380       $pdata$__scrt_fastfail     000000014001f380     msvcrt:utility_desktop.obj
 0004:0000138c       $pdata$__scrt_get_show_window_mode 000000014001f38c     msvcrt:utility_desktop.obj
 0004:00001398       $pdata$__scrt_is_managed_app 000000014001f398     msvcrt:utility_desktop.obj
 0004:000013a4       $pdata$__scrt_unhandled_exception_filter 000000014001f3a4     msvcrt:utility_desktop.obj
 0004:000013b0       $pdata$__isa_available_init 000000014001f3b0     msvcrt:_cpu_disp_.obj
 0004:000013bc       $pdata$__security_init_cookie 000000014001f3bc     msvcrt:gs_support.obj
 0004:000013c8       $pdata$__scrt_initialize_default_local_stdio_options 000000014001f3c8     msvcrt:default_local_stdio_options.obj
 0004:000013d4       $pdata$_RTC_Initialize     000000014001f3d4     msvcrt:_initsect_.obj
 0004:000013e0       $pdata$_RTC_Terminate      000000014001f3e0     msvcrt:_initsect_.obj
 0004:000013ec       $pdata$__GSHandlerCheck    000000014001f3ec     msvcrt:_gshandler_.obj
 0004:000013f8       $pdata$__GSHandlerCheckCommon 000000014001f3f8     msvcrt:_gshandler_.obj
 0004:00001404       $pdata$??0CAtlBaseModule@ATL@@QEAA@XZ 000000014001f404     atls:atlbase.obj
 0004:00001410       $pdata$??1CAtlBaseModule@ATL@@QEAA@XZ 000000014001f410     atls:atlbase.obj
 0004:0000141c       $pdata$??_G_Fac_node@std@@QEAAPEAXI@Z 000000014001f41c     msvcprt:locale0_implib.obj
 0004:00001428       $pdata$?_Facet_Register@std@@YAXPEAV_Facet_base@1@@Z 000000014001f428     msvcprt:locale0_implib.obj
 0004:00001434       $pdata$?AfxInitialize@@YAHHK@Z 000000014001f434     mfcs140:appmodul.obj
 0004:00001440       $pdata$__GSHandlerCheck_EH 000000014001f440     msvcrt:gshandlereh.obj
 0004:00001464       $pdata$?dtor$0@?0??Open@CameraManager@@AEAA_N_N@Z@4HA 000000014001f464     CameraManager.obj
 0004:00001470       $pdata$?catch$1@?0??Open@CameraManager@@AEAA_N_N@Z@4HA 000000014001f470     CameraManager.obj
 0004:0000147c       $pdata$?dtor$74@?0??push_back@?$vector@V?$CStringT@DV?$StrTraitMFC_DLL@DV?$ChTraitsCRT@D@ATL@@@@@ATL@@V?$allocator@V?$CStringT@DV?$StrTraitMFC_DLL@DV?$ChTraitsCRT@D@ATL@@@@@ATL@@@std@@@std@@QEAAX$$QEAV?$CStringT@DV?$StrTraitMFC_DLL@DV?$ChTraitsCRT@D@ATL@@@@@ATL@@@Z@4HA 000000014001f47c     CameraManager.obj
 0004:00001488       $pdata$?dtor$139@?0??push_back@?$vector@V?$CStringT@DV?$StrTraitMFC_DLL@DV?$ChTraitsCRT@D@ATL@@@@@ATL@@V?$allocator@V?$CStringT@DV?$StrTraitMFC_DLL@DV?$ChTraitsCRT@D@ATL@@@@@ATL@@@std@@@std@@QEAAX$$QEAV?$CStringT@DV?$StrTraitMFC_DLL@DV?$ChTraitsCRT@D@ATL@@@@@ATL@@@Z@4HA 000000014001f488     CameraManager.obj
 0004:00001494       $pdata$?catch$51@?0??_Reallocate@?$vector@V?$CStringT@DV?$StrTraitMFC_DLL@DV?$ChTraitsCRT@D@ATL@@@@@ATL@@V?$allocator@V?$CStringT@DV?$StrTraitMFC_DLL@DV?$ChTraitsCRT@D@ATL@@@@@ATL@@@std@@@std@@IEAAX_K@Z@4HA 000000014001f494     CameraManager.obj
 0004:000014a0       $pdata$?dtor$3@?0???$_Uninitialized_move_al_unchecked1@PEAV?$CStringT@DV?$StrTraitMFC_DLL@DV?$ChTraitsCRT@D@ATL@@@@@ATL@@PEAV12@V?$allocator@V?$CStringT@DV?$StrTraitMFC_DLL@DV?$ChTraitsCRT@D@ATL@@@@@ATL@@@std@@@std@@YAPEAV?$CStringT@DV?$StrTraitMFC_DLL@DV?$ChTraitsCRT@D@ATL@@@@@ATL@@PEAV12@00AEAU?$_Wrap_alloc@V?$allocator@V?$CStringT@DV?$StrTraitMFC_DLL@DV?$ChTraitsCRT@D@ATL@@@@@ATL@@@std@@@0@U_General_ptr_iterator_tag@0@U_Any_tag@0@@Z@4HA 000000014001f4a0     CameraManager.obj
 0004:000014ac       $pdata$?catch$5@?0???$_Uninitialized_move_al_unchecked1@PEAV?$CStringT@DV?$StrTraitMFC_DLL@DV?$ChTraitsCRT@D@ATL@@@@@ATL@@PEAV12@V?$allocator@V?$CStringT@DV?$StrTraitMFC_DLL@DV?$ChTraitsCRT@D@ATL@@@@@ATL@@@std@@@std@@YAPEAV?$CStringT@DV?$StrTraitMFC_DLL@DV?$ChTraitsCRT@D@ATL@@@@@ATL@@PEAV12@00AEAU?$_Wrap_alloc@V?$allocator@V?$CStringT@DV?$StrTraitMFC_DLL@DV?$ChTraitsCRT@D@ATL@@@@@ATL@@@std@@@0@U_General_ptr_iterator_tag@0@U_Any_tag@0@@Z@4HA 000000014001f4ac     CameraManager.obj
 0004:000014b8       $pdata$?dtor$2@?0??Init@MainInctance@@QEAAHXZ@4HA 000000014001f4b8     MainInctance.obj
 0004:000014c4       $pdata$?dtor$0@?0??InitProcess@CTO_CAMERADlg@@AEAAXXZ@4HA 000000014001f4c4     TO_CAMERADlg.obj
 0004:000014d0       $pdata$?dtor$0@?0???HATL@@YA?AV?$CStringT@DV?$StrTraitMFC_DLL@DV?$ChTraitsCRT@D@ATL@@@@@0@PEBDAEBV10@@Z@4HA 000000014001f4d0     TO_CAMERADlg.obj
 0004:000014dc       $pdata$?dtor$0@?0???0?$basic_ofstream@DU?$char_traits@D@std@@@std@@QEAA@XZ@4HA 000000014001f4dc     KizuLibMFC:LogFileManager.obj
 0004:000014e8       $pdata$?catch$107@?0??_Copy@?$basic_string@DU?$char_traits@D@std@@V?$allocator@D@2@@std@@QEAAX_K0@Z@4HA 000000014001f4e8     KizuLibMFC:LogFileManager.obj
 0004:000014f4       $pdata$?catch$106@?0??_Copy@?$basic_string@DU?$char_traits@D@std@@V?$allocator@D@2@@std@@QEAAX_K0@Z@4HA 000000014001f4f4     KizuLibMFC:LogFileManager.obj
 0004:00001500       $pdata$?catch$8@?0???$?6U?$char_traits@D@std@@@std@@YAAEAV?$basic_ostream@DU?$char_traits@D@std@@@0@AEAV10@PEBD@Z@4HA 000000014001f500     KizuLibMFC:LogFileManager.obj
 0004:0000150c       $pdata$__scrt_is_nonwritable_in_current_image$filt$0 000000014001f50c     msvcrt:utility.obj
 0004:00001518       $pdata$?filt$0@?0??__scrt_common_main_seh@@YAHXZ@4HA 000000014001f518     msvcrt:exe_winmain.obj
 0004:00001524       $pdata$??__F?m_inst@OdbcEnv@KizuODBC@@0V12@A@@YAXXZ 000000014001f524     KizuODBC:OdbcEnv.obj
 0004:00001530       $pdata$??__F_Fac_tidy_reg@std@@YAXXZ 000000014001f530     msvcprt:locale0_implib.obj
 0005:00000000       __guard_fids__             0000000140020000     msvcrt:std_type_info_static.obj
 0005:00000004       __guard_fids__             0000000140020004     msvcrt:thread_safe_statics.obj
 0005:00000008       __guard_fids_?__scrt_initialize_thread_safe_statics@@YAHXZ 0000000140020008     msvcrt:thread_safe_statics.obj
 0005:0000000c       __guard_fids__             000000014002000c     msvcrt:exe_winmain.obj
 0005:00000010       __guard_fids__             0000000140020010     msvcrt:exe_winmain.obj
 0005:00000014       __guard_fids__             0000000140020014     msvcrt:exe_winmain.obj
 0005:00000018       __guard_fids_?pre_c_initialization@@YAHXZ 0000000140020018     msvcrt:exe_winmain.obj
 0005:00000020       __guard_fids___scrt_set_unhandled_exception_filter 0000000140020020     msvcrt:utility_desktop.obj
 0005:00000024       __guard_fids__             0000000140020024     msvcrt:guard_support.obj
 0005:00000028       __guard_fids_??__E_Fac_tidy_reg@std@@YAXXZ 0000000140020028     msvcprt:locale0_implib.obj
 0005:0000002c       __guard_fids__             000000014002002c     msvcprt:locale0_implib.obj
 0005:00000030       __guard_fids__             0000000140020030     mfcs140:appmodul.obj
 0007:00000370       $R000000                   0000000140022370     TO_CAMERA.res
 0007:000009d8       $R000668                   00000001400229d8     TO_CAMERA.res
 0007:00000cc0       $R000950                   0000000140022cc0     TO_CAMERA.res
 0007:00000de8       $R000A78                   0000000140022de8     TO_CAMERA.res
 0007:00001c90       $R001920                   0000000140023c90     TO_CAMERA.res
 0007:00002538       $R0021C8                   0000000140024538     TO_CAMERA.res
 0007:00002aa0       $R002730                   0000000140024aa0     TO_CAMERA.res
 0007:00004748       $R0043D8                   0000000140026748     TO_CAMERA.res
 0007:000053f0       $R005080                   00000001400273f0     TO_CAMERA.res
 0007:00005758       $R0053E8                   0000000140027758     TO_CAMERA.res
 0007:000057e0       $R005470                   00000001400277e0     TO_CAMERA.res
 0007:00008a20       $R0086B0                   000000014002aa20     TO_CAMERA.res
 0007:00008d10       $R0089A0                   000000014002ad10     TO_CAMERA.res
 0007:00008d18       $R0089A8                   000000014002ad18     TO_CAMERA.res
