 TO_DEFECT

 Timestamp is 66665021 (Mon Jun 10 10:00:17 2024)

 Preferred load address is 0000000140000000

 Start         Length     Name                   Class
 0001:00000000 00004310H .text$di                CODE
 0001:00004310 00058680H .text$mn                CODE
 0001:0005c990 00000020H .text$mn$00             CODE
 0001:0005c9b0 000051a0H .text$x                 CODE
 0001:00061b50 000008afH .text$yd                CODE
 0002:00000000 00000f40H .idata$5                DATA
 0002:00000f40 00000010H .00cfg                  DATA
 0002:00000f50 00000008H .CRT$XCA                DATA
 0002:00000f58 00000008H .CRT$XCAA               DATA
 0002:00000f60 00000018H .CRT$XCL                DATA
 0002:00000f78 00000210H .CRT$XCU                DATA
 0002:00001188 00000008H .CRT$XCZ                DATA
 0002:00001190 00000008H .CRT$XIA                DATA
 0002:00001198 00000008H .CRT$XIAA               DATA
 0002:000011a0 00000008H .CRT$XIAC               DATA
 0002:000011a8 00000008H .CRT$XIC                DATA
 0002:000011b0 00000008H .CRT$XIZ                DATA
 0002:000011b8 00000008H .CRT$XLA                DATA
 0002:000011c0 00000008H .CRT$XLZ                DATA
 0002:000011c8 00000008H .CRT$XPA                DATA
 0002:000011d0 00000008H .CRT$XPZ                DATA
 0002:000011d8 00000008H .CRT$XTA                DATA
 0002:000011e0 00000010H .CRT$XTZ                DATA
 0002:000011f0 00011668H .rdata                  DATA
 0002:00012858 00000028H .rdata$T                DATA
 0002:00012880 00002ef4H .rdata$r                DATA
 0002:00015774 000003f4H .rdata$zzzdbg           DATA
 0002:00015b68 00000008H .rtc$IAA                DATA
 0002:00015b70 00000008H .rtc$IZZ                DATA
 0002:00015b78 00000008H .rtc$TAA                DATA
 0002:00015b80 00000010H .rtc$TZZ                DATA
 0002:00015b90 0000b938H .xdata                  DATA
 0002:000214c8 000000e0H .xdata$x                DATA
 0002:000215a8 00000000H ATL$__a                 DATA
 0002:000215a8 00000000H ATL$__z                 DATA
 0002:000215a8 00000000H .edata                  DATA
 0002:000215a8 00000168H .idata$2                DATA
 0002:00021710 00000018H .idata$3                DATA
 0002:00021728 00000f40H .idata$4                DATA
 0002:00022668 000014aeH .idata$6                DATA
 0003:00000000 00000050H .data                   DATA
 0003:00000050 00001200H .data$r                 DATA
 0003:00001250 0016b700H .bss                    DATA
 0004:00000000 000031b0H .pdata                  DATA
 0005:00000000 00000034H .gfids$y                DATA
 0006:00000000 00000004H .tls                    DATA
 0006:00000004 00000004H .tls$                   DATA
 0006:00000008 00000001H .tls$ZZZ                DATA
 0007:00000000 00000430H .rsrc$01                DATA
 0007:00000430 00011b00H .rsrc$02                DATA

  Address         Publics by Value              Rva+Base               Lib:Object

 0000:00000000       __dynamic_value_reloc_table 0000000000000000     <absolute>
 0000:00000000       __guard_iat_count          0000000000000000     <absolute>
 0000:00000000       __guard_iat_table          0000000000000000     <absolute>
 0000:00000000       __guard_fids_count         0000000000000000     <absolute>
 0000:00000000       ___safe_se_handler_table   0000000000000000     <absolute>
 0000:00000000       __guard_longjmp_count      0000000000000000     <absolute>
 0000:00000000       ___safe_se_handler_count   0000000000000000     <absolute>
 0000:00000000       __guard_fids_table         0000000000000000     <absolute>
 0000:00000000       __guard_longjmp_table      0000000000000000     <absolute>
 0000:00000100       __guard_flags              0000000000000100     <absolute>
 0000:00000000       __ImageBase                0000000140000000     <linker-defined>
 0001:00004310       ?_Allocate@std@@YAPEAX_K0_N@Z 0000000140005310 f i AlarmeManager.obj
 0001:00004390       ??1AutoLock@KizuLib@@UEAA@XZ 0000000140005390 f i AlarmeManager.obj
 0001:000043c0       ??_GAutoLock@KizuLib@@UEAAPEAXI@Z 00000001400053c0 f i AlarmeManager.obj
 0001:000043c0       ??_EAutoLock@KizuLib@@UEAAPEAXI@Z 00000001400053c0 f i * CIL library *:* CIL module *
 0001:00004420       ?ThreadFirst_AddHandle@HtRecvBaseManager@@MEAAXXZ 0000000140005420 f i HtRecv.obj
 0001:00004420       ?ThreadFirst_AddHandle@DbBaseManager@@MEAAXXZ 0000000140005420 f i DbBaseManager.obj
 0001:00004420       ?OnCancel@CTO_DEFECTDlg@@EEAAXXZ 0000000140005420 f i TO_DEFECTDlg.obj
 0001:00004420       ?AssertValid@CObject@@UEBAXXZ 0000000140005420 f i SListBox.obj
 0001:00004420       ?ThreadWaitFor@ThreadManager@@MEAAXHPEAH@Z 0000000140005420 f i AlarmeManager.obj
 0001:00004420       _initialize_denormal_control 0000000140005420 f i msvcrt:denormal_control.obj
 0001:00004420       ?OnQueDb@DbBaseManager@@MEAAXHPEAE@Z 0000000140005420 f i DbBaseManager.obj
 0001:00004420       ?OnOpNewConnect@HtRecvBaseManager@@MEAAXXZ 0000000140005420 f i HtRecvBaseManager.obj
 0001:00004420       ?_Orphan_all@?$_Vector_alloc@U?$_Vec_base_types@ULINKSW_CMD@LogicParaRunFunc@@V?$allocator@ULINKSW_CMD@LogicParaRunFunc@@@std@@@std@@@std@@QEAAXXZ 0000000140005420 f i LogicParaRunFunc.obj
 0001:00004420       _guard_check_icall_nop     0000000140005420 f i msvcrt:guard_support.obj
 0001:00004420       ?OnBnClickedSmyuPio@CTO_DEFECTDlg@@QEAAXXZ 0000000140005420 f i TO_DEFECTDlg.obj
 0001:00004420       ?OnFree@DbBaseManager@@MEAAXXZ 0000000140005420 f i DbBaseManager.obj
 0001:00004420       ?ThreadFirst_AddHandle@DBManager@@EEAAXXZ 0000000140005420 f i DBManager.obj
 0001:00004420       ?OnExecDetectRun@HtRecvBaseManager@@MEAAXXZ 0000000140005420 f i HtRecvBaseManager.obj
 0001:00004420       ?ThreadEvent@IPortViewerManager@@EEAAXH@Z 0000000140005420 f i IPortViewerManager.obj
 0001:00004420       ?__empty_global_delete@@YAXPEAX_K@Z 0000000140005420 f i AlarmeManager.obj
 0001:00004420       ?OnExecDetectStop@HtRecvBaseManager@@MEAAXXZ 0000000140005420 f i HtRecvBaseManager.obj
 0001:00004420       ?DoDataExchange@CWnd@@MEAAXPEAVCDataExchange@@@Z 0000000140005420 f i SListBox.obj
 0001:00004420       ?OnBcpAutoCommit@DBManager@@EEAAX_N@Z 0000000140005420 f i DBManager.obj
 0001:00004420       ?OnAddSignal@StatusBaseManager@@MEAAXH@Z 0000000140005420 f i StatusBaseManager.obj
 0001:00004420       ?OnMainHls@HtRecvBaseManager@@MEAAXPEAUSOCK_F_HEAD@@@Z 0000000140005420 f i HtRecvBaseManager.obj
 0001:00004420       ?OnBcpStatusCheck@DBManager@@EEAAXXZ 0000000140005420 f i DBManager.obj
 0001:00004420       _initialize_invalid_parameter_handler 0000000140005420 f i msvcrt:invalid_parameter_handler.obj
 0001:00004420       ?OnExecDetectWaitStart@HtRecvBaseManager@@MEAAXXZ 0000000140005420 f i HtRecvBaseManager.obj
 0001:00004420       ?OnClose@CTO_DEFECTDlg@@QEAAXXZ 0000000140005420 f i TO_DEFECTDlg.obj
 0001:00004420       ?OnAddSignal@DbBaseManager@@MEAAXH@Z 0000000140005420 f i DbBaseManager.obj
 0001:00004420       ?OnAddSignal@BCPSaveManager@@EEAAXH@Z 0000000140005420 f i BcpSaveManager.obj
 0001:00004420       ?OnBcpAutoCommit@DbBaseManager@@MEAAX_N@Z 0000000140005420 f i DbBaseManager.obj
 0001:00004420       ?OnMainDefect@HtRecvBaseManager@@MEAAXXZ 0000000140005420 f i HtRecvBaseManager.obj
 0001:00004420       ?__global_delete@@YAXPEAX_K@Z 0000000140005420 f i * CIL library *:* CIL module *
 0001:00004420       ?Serialize@CObject@@UEAAXAEAVCArchive@@@Z 0000000140005420 f i SListBox.obj
 0001:00004420       ?OnAlloc@DbBaseManager@@MEAAX_N@Z 0000000140005420 f i DbBaseManager.obj
 0001:00004420       ?OnReadKikiStatusEnd@StatusBaseManager@@MEAAX_N@Z 0000000140005420 f i StatusBaseManager.obj
 0001:00004420       ?OnAddSignal@HtRecvBaseManager@@MEAAXH@Z 0000000140005420 f i HtRecv.obj
 0001:00004420       ?OnBcpStatusCheck@DbBaseManager@@MEAAXXZ 0000000140005420 f i DbBaseManager.obj
 0001:00004420       ?ThreadFirst_AddHandle@StatusBaseManager@@MEAAXXZ 0000000140005420 f i StatusBaseManager.obj
 0001:00004420       ?OnBnClickedSmyuPlg@CTO_DEFECTDlg@@QEAAXXZ 0000000140005420 f i TO_DEFECTDlg.obj
 0001:00004420       ?_Destroy@?$vector@ULINKSW_CMD@LogicParaRunFunc@@V?$allocator@ULINKSW_CMD@LogicParaRunFunc@@@std@@@std@@IEAAXPEAULINKSW_CMD@LogicParaRunFunc@@0@Z 0000000140005420 f i LogicParaRunFunc.obj
 0001:00004420       ?ThreadFirst_AddHandle@BCPSaveManager@@EEAAXXZ 0000000140005420 f i BcpSaveManager.obj
 0001:00004420       ?Dump@CObject@@UEBAXAEAVCDumpContext@@@Z 0000000140005420 f i SListBox.obj
 0001:00004420       ?OnReSetMaxCount@DbBaseManager@@MEAAXXZ 0000000140005420 f i DbBaseManager.obj
 0001:00004420       ?OnAddSignal@DBManager@@EEAAXH@Z 0000000140005420 f i DBManager.obj
 0001:000046c0       ?GetStatusRead@StatusBaseManager@@QEAAAEBUTYP_STATUS_READ@@XZ 00000001400056c0 f i AlarmeManager.obj
 0001:00004700       ??0AlarmeManager@@QEAA@XZ  0000000140005700 f   AlarmeManager.obj
 0001:000047c0       ??_GAlarmeManager@@UEAAPEAXI@Z 00000001400057c0 f i AlarmeManager.obj
 0001:000047c0       ??_EAlarmeManager@@UEAAPEAXI@Z 00000001400057c0 f i * CIL library *:* CIL module *
 0001:00004800       ??1AlarmeManager@@UEAA@XZ  0000000140005800 f   AlarmeManager.obj
 0001:00004940       ?ThreadFirst@AlarmeManager@@EEAAHXZ 0000000140005940 f   AlarmeManager.obj
 0001:000049b0       ?ThreadLast@AlarmeManager@@EEAAHXZ 00000001400059b0 f   AlarmeManager.obj
 0001:000049d0       ?ThreadEvent@AlarmeManager@@EEAAXH@Z 00000001400059d0 f   AlarmeManager.obj
 0001:00004ab0       ?Output_Alarme@AlarmeManager@@AEAAXXZ 0000000140005ab0 f   AlarmeManager.obj
 0001:00005070       ?Check_Alarme@AlarmeManager@@AEAAXPEAUALARME_OUTPUT@@@Z 0000000140006070 f   AlarmeManager.obj
 0001:00005d20       ?Init_Pato@AlarmeManager@@QEAAXXZ 0000000140006d20 f   AlarmeManager.obj
 0001:00005ef0       ?Add_Pato@AlarmeManager@@QEAA_NPEBDHHJ@Z 0000000140006ef0 f   AlarmeManager.obj
 0001:000061b0       ?AlarmCancel_Pato@AlarmeManager@@QEAAXPEBD@Z 00000001400071b0 f   AlarmeManager.obj
 0001:000063d0       ?Reset_Pato@AlarmeManager@@QEAAXXZ 00000001400073d0 f   AlarmeManager.obj
 0001:00006690       ?Check_VoiceErr@AlarmeManager@@AEAAXXZ 0000000140007690 f   AlarmeManager.obj
 0001:00006c70       ?Check_DetectSekkin@AlarmeManager@@AEAAXXZ 0000000140007c70 f   AlarmeManager.obj
 0001:00006d00       ??1?$list@UTR_FRAME@@V?$allocator@UTR_FRAME@@@std@@@std@@QEAA@XZ 0000000140007d00 f i MainInstance.obj
 0001:00006d00       ??1?$list@PEAUPATO_INF@@V?$allocator@PEAUPATO_INF@@@std@@@std@@QEAA@XZ 0000000140007d00 f i AlarmeManager.obj
 0001:00006d60       ??0?$list@PEAUPATO_INF@@V?$allocator@PEAUPATO_INF@@@std@@@std@@QEAA@XZ 0000000140007d60 f i AlarmeManager.obj
 0001:00006d90       ?_Buynode0@?$_List_alloc@U?$_List_base_types@PEAUPATO_INF@@V?$allocator@PEAUPATO_INF@@@std@@@std@@@std@@QEAAPEAU?$_List_node@PEAUPATO_INF@@PEAX@2@PEAU32@0@Z 0000000140007d90 f i AlarmeManager.obj
 0001:00006de0       ?AddToTailFreeCheck@?$ThreadQueue@UTYP_MAE_REQUEST@MaeManager@@@KizuLib@@QEAAHPEAUTYP_MAE_REQUEST@MaeManager@@H@Z 0000000140007de0 f i MaeManager.obj
 0001:00006de0       ?AddToTailFreeCheck@?$ThreadQueue@UDELIVERYSTATUS@KikiManager@@@KizuLib@@QEAAHPEAUDELIVERYSTATUS@KikiManager@@H@Z 0000000140007de0 f i DefectLib:KikiManager.obj
 0001:00006de0       ?AddToTailFreeCheck@?$ThreadQueue@UDELIVERY@DmemManager@@@KizuLib@@QEAAHPEAUDELIVERY@DmemManager@@H@Z 0000000140007de0 f i AlarmeManager.obj
 0001:00006de0       ?AddToTailFreeCheck@?$ThreadQueue@UTYP_MY_ERRWAR_INF@StatusBaseManager@@@KizuLib@@QEAAHPEAUTYP_MY_ERRWAR_INF@StatusBaseManager@@H@Z 0000000140007de0 f i StatusBaseManager.obj
 0001:00006de0       ?AddToTailFreeCheck@?$ThreadQueue@UDELIVERY_MAIL@MainInstance@@@KizuLib@@QEAAHPEAUDELIVERY_MAIL@MainInstance@@H@Z 0000000140007de0 f i MainInstance.obj
 0001:00006e90       ??$_Buynode@AEBQEAUPATO_INF@@@?$_List_buy@PEAUPATO_INF@@V?$allocator@PEAUPATO_INF@@@std@@@std@@QEAAPEAU?$_List_node@PEAUPATO_INF@@PEAX@1@PEAU21@0AEBQEAUPATO_INF@@@Z 0000000140007e90 f i AlarmeManager.obj
 0001:00006ec0       ?push_back@?$deque@PEAUDELIVERY@DmemManager@@V?$allocator@PEAUDELIVERY@DmemManager@@@std@@@std@@QEAAXAEBQEAUDELIVERY@DmemManager@@@Z 0000000140007ec0 f i AlarmeManager.obj
 0001:00006ec0       ?push_back@?$deque@PEAUCOMMON_QUE@@V?$allocator@PEAUCOMMON_QUE@@@std@@@std@@QEAAXAEBQEAUCOMMON_QUE@@@Z 0000000140007ec0 f i MainInstance.obj
 0001:00006ec0       ?push_back@?$deque@PEAUTYP_MY_ERRWAR_INF@StatusBaseManager@@V?$allocator@PEAUTYP_MY_ERRWAR_INF@StatusBaseManager@@@std@@@std@@QEAAXAEBQEAUTYP_MY_ERRWAR_INF@StatusBaseManager@@@Z 0000000140007ec0 f i StatusBaseManager.obj
 0001:00006ec0       ?push_back@?$deque@PEAUSEND_UDP@CmdSender@@V?$allocator@PEAUSEND_UDP@CmdSender@@@std@@@std@@QEAAXAEBQEAUSEND_UDP@CmdSender@@@Z 0000000140007ec0 f i CmdSender.obj
 0001:00006ec0       ?push_back@?$deque@PEAUDELIVERYSQL@DBSaveManager@@V?$allocator@PEAUDELIVERYSQL@DBSaveManager@@@std@@@std@@QEAAXAEBQEAUDELIVERYSQL@DBSaveManager@@@Z 0000000140007ec0 f i DBManager.obj
 0001:00006ec0       ?push_back@?$deque@PEAUDELIVERY_DB@@V?$allocator@PEAUDELIVERY_DB@@@std@@@std@@QEAAXAEBQEAUDELIVERY_DB@@@Z 0000000140007ec0 f i StatusLogFunc.obj
 0001:00006ec0       ?push_back@?$deque@PEAUDeliveryDB@DbBaseManager@@V?$allocator@PEAUDeliveryDB@DbBaseManager@@@std@@@std@@QEAAXAEBQEAUDeliveryDB@DbBaseManager@@@Z 0000000140007ec0 f i CoilBaseManager.obj
 0001:00006ec0       ?push_back@?$deque@PEAUDELIVERY_MAIL@MainInstance@@V?$allocator@PEAUDELIVERY_MAIL@MainInstance@@@std@@@std@@QEAAXAEBQEAUDELIVERY_MAIL@MainInstance@@@Z 0000000140007ec0 f i MainInstance.obj
 0001:00006ec0       ?push_back@?$deque@PEAUNCL_EDGE_RESTRICT_DATA@@V?$allocator@PEAUNCL_EDGE_RESTRICT_DATA@@@std@@@std@@QEAAXAEBQEAUNCL_EDGE_RESTRICT_DATA@@@Z 0000000140007ec0 f i EdgeRestrictSender.obj
 0001:00006ec0       ?push_back@?$deque@PEAUTYP_MAE_REQUEST@MaeManager@@V?$allocator@PEAUTYP_MAE_REQUEST@MaeManager@@@std@@@std@@QEAAXAEBQEAUTYP_MAE_REQUEST@MaeManager@@@Z 0000000140007ec0 f i MaeManager.obj
 0001:00006ec0       ?push_back@?$deque@PEAUDELIVERYSTATUS@KikiManager@@V?$allocator@PEAUDELIVERYSTATUS@KikiManager@@@std@@@std@@QEAAXAEBQEAUDELIVERYSTATUS@KikiManager@@@Z 0000000140007ec0 f i DefectLib:KikiManager.obj
 0001:00006ec0       ?push_back@?$deque@PEAUSEQ_TYPE_DATA_FRAME@@V?$allocator@PEAUSEQ_TYPE_DATA_FRAME@@@std@@@std@@QEAAXAEBQEAUSEQ_TYPE_DATA_FRAME@@@Z 0000000140007ec0 f i SeqFrameRecv.obj
 0001:00006ec0       ?push_back@?$deque@PEADV?$allocator@PEAD@std@@@std@@QEAAXAEBQEAD@Z 0000000140007ec0 f i KizuLibMFC:LogFileManager.obj
 0001:00006ec0       ?push_back@?$deque@PEAUDEFDUMP_QUE@DefectDumpManager@@V?$allocator@PEAUDEFDUMP_QUE@DefectDumpManager@@@std@@@std@@QEAAXAEBQEAUDEFDUMP_QUE@DefectDumpManager@@@Z 0000000140007ec0 f i DefectDumpManager.obj
 0001:00006f90       ?_Growmap@?$deque@PEADV?$allocator@PEAD@std@@@std@@IEAAX_K@Z 0000000140007f90 f i KizuLibMFC:LogFileManager.obj
 0001:00006f90       ?_Growmap@?$deque@PEAUDELIVERYSTATUS@KikiManager@@V?$allocator@PEAUDELIVERYSTATUS@KikiManager@@@std@@@std@@IEAAX_K@Z 0000000140007f90 f i DefectLib:KikiManager.obj
 0001:00006f90       ?_Growmap@?$deque@PEAUDEFDUMP_QUE@DefectDumpManager@@V?$allocator@PEAUDEFDUMP_QUE@DefectDumpManager@@@std@@@std@@IEAAX_K@Z 0000000140007f90 f i DefectDumpManager.obj
 0001:00006f90       ?_Growmap@?$deque@PEAUDELIVERYSQL@DBSaveManager@@V?$allocator@PEAUDELIVERYSQL@DBSaveManager@@@std@@@std@@IEAAX_K@Z 0000000140007f90 f i DBManager.obj
 0001:00006f90       ?_Growmap@?$deque@PEAUNCL_EDGE_RESTRICT_DATA@@V?$allocator@PEAUNCL_EDGE_RESTRICT_DATA@@@std@@@std@@IEAAX_K@Z 0000000140007f90 f i EdgeRestrictSender.obj
 0001:00006f90       ?_Growmap@?$deque@PEAUSEND_UDP@CmdSender@@V?$allocator@PEAUSEND_UDP@CmdSender@@@std@@@std@@IEAAX_K@Z 0000000140007f90 f i CmdSender.obj
 0001:00006f90       ?_Growmap@?$deque@PEAUSOCK_BASE_HEAD@@V?$allocator@PEAUSOCK_BASE_HEAD@@@std@@@std@@IEAAX_K@Z 0000000140007f90 f i OpSendFunc.obj
 0001:00006f90       ?_Growmap@?$deque@PEAUTYP_MAE_REQUEST@MaeManager@@V?$allocator@PEAUTYP_MAE_REQUEST@MaeManager@@@std@@@std@@IEAAX_K@Z 0000000140007f90 f i MaeManager.obj
 0001:00006f90       ?_Growmap@?$deque@PEAUDELIVERY_MAIL@MainInstance@@V?$allocator@PEAUDELIVERY_MAIL@MainInstance@@@std@@@std@@IEAAX_K@Z 0000000140007f90 f i MainInstance.obj
 0001:00006f90       ?_Growmap@?$deque@PEAUCOMMON_QUE@@V?$allocator@PEAUCOMMON_QUE@@@std@@@std@@IEAAX_K@Z 0000000140007f90 f i MainInstance.obj
 0001:00006f90       ?_Growmap@?$deque@PEAUDELIVERY@DmemManager@@V?$allocator@PEAUDELIVERY@DmemManager@@@std@@@std@@IEAAX_K@Z 0000000140007f90 f i AlarmeManager.obj
 0001:00006f90       ?_Growmap@?$deque@PEAUSEQ_TYPE_DATA_FRAME@@V?$allocator@PEAUSEQ_TYPE_DATA_FRAME@@@std@@@std@@IEAAX_K@Z 0000000140007f90 f i SeqFrameRecv.obj
 0001:00006f90       ?_Growmap@?$deque@PEAUDeliveryDB@DbBaseManager@@V?$allocator@PEAUDeliveryDB@DbBaseManager@@@std@@@std@@IEAAX_K@Z 0000000140007f90 f i CoilBaseManager.obj
 0001:00006f90       ?_Growmap@?$deque@PEAUTR_INF@TrackingList@@V?$allocator@PEAUTR_INF@TrackingList@@@std@@@std@@IEAAX_K@Z 0000000140007f90 f i DefectLib:TrackingList.obj
 0001:00006f90       ?_Growmap@?$deque@PEAUDELIVERY_DB@@V?$allocator@PEAUDELIVERY_DB@@@std@@@std@@IEAAX_K@Z 0000000140007f90 f i StatusLogFunc.obj
 0001:00006f90       ?_Growmap@?$deque@PEAUTYP_MY_ERRWAR_INF@StatusBaseManager@@V?$allocator@PEAUTYP_MY_ERRWAR_INF@StatusBaseManager@@@std@@@std@@IEAAX_K@Z 0000000140007f90 f i StatusBaseManager.obj
 0001:00007170       ??0typBindDataEx@BCPBase@KizuODBC@@QEAA@XZ 0000000140008170 f i BcpSaveManager.obj
 0001:00007190       ??1typBindDataEx@BCPBase@KizuODBC@@QEAA@XZ 0000000140008190 f i BcpSaveManager.obj
 0001:000071a0       ??0BCPSaveManager@@QEAA@XZ 00000001400081a0 f   BcpSaveManager.obj
 0001:000073e0       ??_EBCPSaveManager@@UEAAPEAXI@Z 00000001400083e0 f i * CIL library *:* CIL module *
 0001:000073e0       ??_GBCPSaveManager@@UEAAPEAXI@Z 00000001400083e0 f i BcpSaveManager.obj
 0001:00007420       ??1BCPSaveManager@@UEAA@XZ 0000000140008420 f   BcpSaveManager.obj
 0001:00007490       ?BCP_Bind_Defect_Img@BCPSaveManager@@AEAAXXZ 0000000140008490 f   BcpSaveManager.obj
 0001:00007630       ?BCP_Bind_Defect_Attr@BCPSaveManager@@AEAAXXZ 0000000140008630 f   BcpSaveManager.obj
 0001:000077e0       ?CheckBcpStatus@BCPSaveManager@@AEAAX_N@Z 00000001400087e0 f   BcpSaveManager.obj
 0001:00007900       ?OnAlloc@BCPSaveManager@@EEAAX_N@Z 0000000140008900 f   BcpSaveManager.obj
 0001:00007cc0       ?OnFree@BCPSaveManager@@EEAAXXZ 0000000140008cc0 f   BcpSaveManager.obj
 0001:00007f40       ?OnBcpAutoCommit@BCPSaveManager@@EEAAX_N@Z 0000000140008f40 f   BcpSaveManager.obj
 0001:000080b0       ?OnBcpStatusCheck@BCPSaveManager@@EEAAXXZ 00000001400090b0 f   BcpSaveManager.obj
 0001:000080e0       ?OnQueDb@BCPSaveManager@@EEAAXHPEAE@Z 00000001400090e0 f   BcpSaveManager.obj
 0001:00008150       ?OnReSetMaxCount@BCPSaveManager@@EEAAXXZ 0000000140009150 f   BcpSaveManager.obj
 0001:00008210       ?CreateSQL_DefectInf@BCPSaveManager@@AEAAXPEBUDBDATA_DEFECT_INF@@@Z 0000000140009210 f   BcpSaveManager.obj
 0001:000088f0       ??_ECamLinkSpeedManager@@UEAAPEAXI@Z 00000001400098f0 f i * CIL library *:* CIL module *
 0001:000088f0       ??_GCamLinkSpeedManager@@UEAAPEAXI@Z 00000001400098f0 f i CamLinkSpeedManager.obj
 0001:00008970       ??1IPortViewerManager@@UEAA@XZ 0000000140009970 f   IPortViewerManager.obj
 0001:00008970       ??1ThreadManager@@UEAA@XZ  0000000140009970 f   KizuLibMFC:ThreadManager.obj
 0001:00008970       ??1CamLinkSpeedManager@@UEAA@XZ 0000000140009970 f   CamLinkSpeedManager.obj
 0001:000089d0       ?ThreadFirst@CamLinkSpeedManager@@EEAAHXZ 00000001400099d0 f   CamLinkSpeedManager.obj
 0001:00008a20       ?ThreadLast@CamLinkSpeedManager@@EEAAHXZ 0000000140009a20 f   CamLinkSpeedManager.obj
 0001:00008a80       ?ThreadEvent@CamLinkSpeedManager@@EEAAXH@Z 0000000140009a80 f   CamLinkSpeedManager.obj
 0001:00008d50       ?OpenUdpPort@CamLinkSpeedManager@@AEAAXXZ 0000000140009d50 f   CamLinkSpeedManager.obj
 0001:00008ee0       ?GetIniSetting@CamLinkSpeedManager@@AEAAXXZ 0000000140009ee0 f   CamLinkSpeedManager.obj
 0001:00009050       ??0CmdSender@@QEAA@XZ      000000014000a050 f   CmdSender.obj
 0001:00009240       ??_ECmdSender@@UEAAPEAXI@Z 000000014000a240 f i * CIL library *:* CIL module *
 0001:00009240       ??_GCmdSender@@UEAAPEAXI@Z 000000014000a240 f i CmdSender.obj
 0001:00009280       ??1CmdSender@@UEAA@XZ      000000014000a280 f   CmdSender.obj
 0001:00009360       ?ThreadFirst@CmdSender@@EEAAHXZ 000000014000a360 f   CmdSender.obj
 0001:00009360       ?ThreadFirst@DefectDumpManager@@EEAAHXZ 000000014000a360 f   DefectDumpManager.obj
 0001:00009360       ?ThreadFirst@SogyoManager@@EEAAHXZ 000000014000a360 f   SogyoManager.obj
 0001:00009360       ?ThreadFirst@ParamManager@@EEAAHXZ 000000014000a360 f   ParamManager.obj
 0001:00009390       _get_startup_thread_locale_mode 000000014000a390 f   msvcrt:thread_locale.obj
 0001:00009390       _get_startup_commit_mode   000000014000a390 f   msvcrt:commit_mode.obj
 0001:00009390       ?ThreadLast@IPortViewerManager@@EEAAHXZ 000000014000a390 f   IPortViewerManager.obj
 0001:00009390       ?ThreadLast@DmemManager@@EEAAHXZ 000000014000a390 f   DmemManager.obj
 0001:00009390       ?GetApplicationRecoveryParameter@CWinApp@@UEAAPEAXXZ 000000014000a390 f   TO_DEFECT.obj
 0001:00009390       _get_startup_new_mode      000000014000a390 f   msvcrt:new_mode.obj
 0001:00009390       ?ThreadFirst@IPortViewerManager@@EEAAHXZ 000000014000a390 f   IPortViewerManager.obj
 0001:00009390       ?ThreadLast@CoilBaseManager@@MEAAHXZ 000000014000a390 f   CoilBaseManager.obj
 0001:00009390       ?ThreadLast@HtRecvBaseManager@@MEAAHXZ 000000014000a390 f   HtRecvBaseManager.obj
 0001:00009390       ?ThreadLast@MainInstance@@EEAAHXZ 000000014000a390 f   MainInstance.obj
 0001:00009390       ?ThreadLast@DbBaseManager@@MEAAHXZ 000000014000a390 f   DbBaseManager.obj
 0001:00009390       ?GetApplicationRestartFlags@CWinApp@@UEAAKXZ 000000014000a390 f   TO_DEFECT.obj
 0001:00009390       ?ThreadLast@CmdSender@@EEAAHXZ 000000014000a390 f   CmdSender.obj
 0001:00009390       __scrt_initialize_winrt    000000014000a390 f   msvcrt:utility_desktop.obj
 0001:00009390       ?ThreadLast@SogyoManager@@EEAAHXZ 000000014000a390 f   SogyoManager.obj
 0001:00009390       ?ThreadLast@ParamManager@@EEAAHXZ 000000014000a390 f   ParamManager.obj
 0001:00009390       ?ThreadLast@MaeManager@@EEAAHXZ 000000014000a390 f   MaeManager.obj
 0001:00009390       _matherr                   000000014000a390 f   msvcrt:matherr.obj
 0001:000093a0       ?ThreadEvent@CmdSender@@EEAAXH@Z 000000014000a3a0 f   CmdSender.obj
 0001:00009400       ?HtUdp_Send@CmdSender@@AEAAXHHPEADHH@Z 000000014000a400 f   CmdSender.obj
 0001:000096a0       ?SendCommand_Param@CmdSender@@QEAAXHH@Z 000000014000a6a0 f   CmdSender.obj
 0001:00009730       ?SendCommand_CoilInf@CmdSender@@QEAAXHUTYPE_EPC_COIL@@@Z 000000014000a730 f   CmdSender.obj
 0001:00009990       ??0?$ThreadQueue@USEND_UDP@CmdSender@@@KizuLib@@QEAA@H@Z 000000014000a990 f i CmdSender.obj
 0001:00009a40       ??1?$ThreadQueue@USEND_UDP@CmdSender@@@KizuLib@@UEAA@XZ 000000014000aa40 f i CmdSender.obj
 0001:00009aa0       ?AddToTail@?$ThreadQueue@USEND_UDP@CmdSender@@@KizuLib@@QEAAHPEAUSEND_UDP@CmdSender@@@Z 000000014000aaa0 f i CmdSender.obj
 0001:00009b10       ?GetFromHead@?$ThreadQueue@UDELIVERYSQL@DBSaveManager@@@KizuLib@@QEAAPEAUDELIVERYSQL@DBSaveManager@@XZ 000000014000ab10 f i DbBaseManager.obj
 0001:00009b10       ?GetFromHead@?$ThreadQueue@USOCK_BASE_HEAD@@@KizuLib@@QEAAPEAUSOCK_BASE_HEAD@@XZ 000000014000ab10 f i DefectLib:KizuOpSend.obj
 0001:00009b10       ?GetFromHead@?$ThreadQueue@UTR_INF@TrackingList@@@KizuLib@@QEAAPEAUTR_INF@TrackingList@@XZ 000000014000ab10 f i DefectLib:TrackingList.obj
 0001:00009b10       ?GetFromHead@?$ThreadQueue@UNCL_EDGE_RESTRICT_DATA@@@KizuLib@@QEAAPEAUNCL_EDGE_RESTRICT_DATA@@XZ 000000014000ab10 f i EdgeRestrictSender.obj
 0001:00009b10       ?GetFromHead@?$ThreadQueue@UCOMMON_QUE@@@KizuLib@@QEAAPEAUCOMMON_QUE@@XZ 000000014000ab10 f i ParamManager.obj
 0001:00009b10       ?GetFromHead@?$ThreadQueue@USEND_UDP@CmdSender@@@KizuLib@@QEAAPEAUSEND_UDP@CmdSender@@XZ 000000014000ab10 f i CmdSender.obj
 0001:00009b10       ?GetFromHead@?$ThreadQueue@UDeliveryDB@DbBaseManager@@@KizuLib@@QEAAPEAUDeliveryDB@DbBaseManager@@XZ 000000014000ab10 f i DbBaseManager.obj
 0001:00009b10       ?GetFromHead@?$ThreadQueue@UDELIVERY_MAIL@MainInstance@@@KizuLib@@QEAAPEAUDELIVERY_MAIL@MainInstance@@XZ 000000014000ab10 f i MainInstance.obj
 0001:00009b10       ?GetFromHead@?$ThreadQueue@UDELIVERY@DmemManager@@@KizuLib@@QEAAPEAUDELIVERY@DmemManager@@XZ 000000014000ab10 f i DmemManager.obj
 0001:00009b10       ?GetFromHead@?$ThreadQueue@USEQ_TYPE_DATA_FRAME@@@KizuLib@@QEAAPEAUSEQ_TYPE_DATA_FRAME@@XZ 000000014000ab10 f i PlgManager.obj
 0001:00009b10       ?GetFromHead@?$ThreadQueue@UDEFDUMP_QUE@DefectDumpManager@@@KizuLib@@QEAAPEAUDEFDUMP_QUE@DefectDumpManager@@XZ 000000014000ab10 f i DefectDumpManager.obj
 0001:00009b10       ?GetFromHead@?$ThreadQueue@UTYP_MAE_REQUEST@MaeManager@@@KizuLib@@QEAAPEAUTYP_MAE_REQUEST@MaeManager@@XZ 000000014000ab10 f i MaeManager.obj
 0001:00009b10       ?GetFromHead@?$ThreadQueue@D@KizuLib@@QEAAPEADXZ 000000014000ab10 f i KizuLibMFC:LogFileManager.obj
 0001:00009b10       ?GetFromHead@?$ThreadQueue@UDELIVERYSTATUS@KikiManager@@@KizuLib@@QEAAPEAUDELIVERYSTATUS@KikiManager@@XZ 000000014000ab10 f i DefectLib:KikiManager.obj
 0001:00009b10       ?GetFromHead@?$ThreadQueue@UTYP_MY_ERRWAR_INF@StatusBaseManager@@@KizuLib@@QEAAPEAUTYP_MY_ERRWAR_INF@StatusBaseManager@@XZ 000000014000ab10 f i MainInstance.obj
 0001:00009bb0       ??_E?$ThreadQueue@USEND_UDP@CmdSender@@@KizuLib@@UEAAPEAXI@Z 000000014000abb0 f i * CIL library *:* CIL module *
 0001:00009bb0       ??_G?$ThreadQueue@USEND_UDP@CmdSender@@@KizuLib@@UEAAPEAXI@Z 000000014000abb0 f i CmdSender.obj
 0001:00009c40       ?_Tidy@?$deque@PEAUDELIVERY@DmemManager@@V?$allocator@PEAUDELIVERY@DmemManager@@@std@@@std@@IEAAXXZ 000000014000ac40 f i DmemManager.obj
 0001:00009c40       ?_Tidy@?$deque@PEAUNCL_EDGE_RESTRICT_DATA@@V?$allocator@PEAUNCL_EDGE_RESTRICT_DATA@@@std@@@std@@IEAAXXZ 000000014000ac40 f i EdgeRestrictSender.obj
 0001:00009c40       ?_Tidy@?$deque@PEAUCOMMON_QUE@@V?$allocator@PEAUCOMMON_QUE@@@std@@@std@@IEAAXXZ 000000014000ac40 f i ParamManager.obj
 0001:00009c40       ?_Tidy@?$deque@PEAUTYP_MY_ERRWAR_INF@StatusBaseManager@@V?$allocator@PEAUTYP_MY_ERRWAR_INF@StatusBaseManager@@@std@@@std@@IEAAXXZ 000000014000ac40 f i StatusBaseManager.obj
 0001:00009c40       ?_Tidy@?$deque@PEAUSEND_UDP@CmdSender@@V?$allocator@PEAUSEND_UDP@CmdSender@@@std@@@std@@IEAAXXZ 000000014000ac40 f i CmdSender.obj
 0001:00009c40       ?_Tidy@?$deque@PEADV?$allocator@PEAD@std@@@std@@IEAAXXZ 000000014000ac40 f i KizuLibMFC:LogFileManager.obj
 0001:00009c40       ?_Tidy@?$deque@PEAUDELIVERYSTATUS@KikiManager@@V?$allocator@PEAUDELIVERYSTATUS@KikiManager@@@std@@@std@@IEAAXXZ 000000014000ac40 f i DefectLib:KikiManager.obj
 0001:00009c40       ?_Tidy@?$deque@PEAUSEQ_TYPE_DATA_FRAME@@V?$allocator@PEAUSEQ_TYPE_DATA_FRAME@@@std@@@std@@IEAAXXZ 000000014000ac40 f i SeqFrameRecv.obj
 0001:00009c40       ?_Tidy@?$deque@PEAUDEFDUMP_QUE@DefectDumpManager@@V?$allocator@PEAUDEFDUMP_QUE@DefectDumpManager@@@std@@@std@@IEAAXXZ 000000014000ac40 f i DefectDumpManager.obj
 0001:00009c40       ?_Tidy@?$deque@PEAUDELIVERY_MAIL@MainInstance@@V?$allocator@PEAUDELIVERY_MAIL@MainInstance@@@std@@@std@@IEAAXXZ 000000014000ac40 f i MainInstance.obj
 0001:00009c40       ?_Tidy@?$deque@PEAUDeliveryDB@DbBaseManager@@V?$allocator@PEAUDeliveryDB@DbBaseManager@@@std@@@std@@IEAAXXZ 000000014000ac40 f i DbBaseManager.obj
 0001:00009c40       ?_Tidy@?$deque@PEAUSOCK_BASE_HEAD@@V?$allocator@PEAUSOCK_BASE_HEAD@@@std@@@std@@IEAAXXZ 000000014000ac40 f i DefectLib:KizuOpSend.obj
 0001:00009c40       ?_Tidy@?$deque@PEAUDELIVERYSQL@DBSaveManager@@V?$allocator@PEAUDELIVERYSQL@DBSaveManager@@@std@@@std@@IEAAXXZ 000000014000ac40 f i DbBaseManager.obj
 0001:00009c40       ?_Tidy@?$deque@PEAUTR_INF@TrackingList@@V?$allocator@PEAUTR_INF@TrackingList@@@std@@@std@@IEAAXXZ 000000014000ac40 f i DefectLib:TrackingList.obj
 0001:00009c40       ?_Tidy@?$deque@PEAUTYP_MAE_REQUEST@MaeManager@@V?$allocator@PEAUTYP_MAE_REQUEST@MaeManager@@@std@@@std@@IEAAXXZ 000000014000ac40 f i MaeManager.obj
 0001:00009d30       ?begin@?$deque@PEAUDeliveryDB@DbBaseManager@@V?$allocator@PEAUDeliveryDB@DbBaseManager@@@std@@@std@@QEAA?AV?$_Deque_iterator@V?$_Deque_val@U?$_Deque_simple_types@PEAUDeliveryDB@DbBaseManager@@@std@@@std@@@2@XZ 000000014000ad30 f i DbBaseManager.obj
 0001:00009d30       ?begin@?$deque@PEAUTR_INF@TrackingList@@V?$allocator@PEAUTR_INF@TrackingList@@@std@@@std@@QEAA?AV?$_Deque_iterator@V?$_Deque_val@U?$_Deque_simple_types@PEAUTR_INF@TrackingList@@@std@@@std@@@2@XZ 000000014000ad30 f i DefectLib:TrackingList.obj
 0001:00009d30       ?begin@?$deque@PEAUSEND_UDP@CmdSender@@V?$allocator@PEAUSEND_UDP@CmdSender@@@std@@@std@@QEAA?AV?$_Deque_iterator@V?$_Deque_val@U?$_Deque_simple_types@PEAUSEND_UDP@CmdSender@@@std@@@std@@@2@XZ 000000014000ad30 f i CmdSender.obj
 0001:00009d30       ?begin@?$deque@PEAUSOCK_BASE_HEAD@@V?$allocator@PEAUSOCK_BASE_HEAD@@@std@@@std@@QEAA?AV?$_Deque_iterator@V?$_Deque_val@U?$_Deque_simple_types@PEAUSOCK_BASE_HEAD@@@std@@@std@@@2@XZ 000000014000ad30 f i DefectLib:KizuOpSend.obj
 0001:00009d30       ?begin@?$deque@PEAUDELIVERY@DmemManager@@V?$allocator@PEAUDELIVERY@DmemManager@@@std@@@std@@QEAA?AV?$_Deque_iterator@V?$_Deque_val@U?$_Deque_simple_types@PEAUDELIVERY@DmemManager@@@std@@@std@@@2@XZ 000000014000ad30 f i DmemManager.obj
 0001:00009d30       ?begin@?$deque@PEAUDEFDUMP_QUE@DefectDumpManager@@V?$allocator@PEAUDEFDUMP_QUE@DefectDumpManager@@@std@@@std@@QEAA?AV?$_Deque_iterator@V?$_Deque_val@U?$_Deque_simple_types@PEAUDEFDUMP_QUE@DefectDumpManager@@@std@@@std@@@2@XZ 000000014000ad30 f i DefectDumpManager.obj
 0001:00009d30       ?begin@?$deque@PEAUSEQ_TYPE_DATA_FRAME@@V?$allocator@PEAUSEQ_TYPE_DATA_FRAME@@@std@@@std@@QEAA?AV?$_Deque_iterator@V?$_Deque_val@U?$_Deque_simple_types@PEAUSEQ_TYPE_DATA_FRAME@@@std@@@std@@@2@XZ 000000014000ad30 f i PlgManager.obj
 0001:00009d30       ?begin@?$deque@PEAUDELIVERYSTATUS@KikiManager@@V?$allocator@PEAUDELIVERYSTATUS@KikiManager@@@std@@@std@@QEAA?AV?$_Deque_iterator@V?$_Deque_val@U?$_Deque_simple_types@PEAUDELIVERYSTATUS@KikiManager@@@std@@@std@@@2@XZ 000000014000ad30 f i DefectLib:KikiManager.obj
 0001:00009d30       ?begin@?$deque@PEAUTYP_MY_ERRWAR_INF@StatusBaseManager@@V?$allocator@PEAUTYP_MY_ERRWAR_INF@StatusBaseManager@@@std@@@std@@QEAA?AV?$_Deque_iterator@V?$_Deque_val@U?$_Deque_simple_types@PEAUTYP_MY_ERRWAR_INF@StatusBaseManager@@@std@@@std@@@2@XZ 000000014000ad30 f i MainInstance.obj
 0001:00009d30       ?begin@?$deque@PEAUDELIVERYSQL@DBSaveManager@@V?$allocator@PEAUDELIVERYSQL@DBSaveManager@@@std@@@std@@QEAA?AV?$_Deque_iterator@V?$_Deque_val@U?$_Deque_simple_types@PEAUDELIVERYSQL@DBSaveManager@@@std@@@std@@@2@XZ 000000014000ad30 f i DbBaseManager.obj
 0001:00009d30       ?begin@?$deque@PEAUNCL_EDGE_RESTRICT_DATA@@V?$allocator@PEAUNCL_EDGE_RESTRICT_DATA@@@std@@@std@@QEAA?AV?$_Deque_iterator@V?$_Deque_val@U?$_Deque_simple_types@PEAUNCL_EDGE_RESTRICT_DATA@@@std@@@std@@@2@XZ 000000014000ad30 f i EdgeRestrictSender.obj
 0001:00009d30       ?begin@?$deque@PEAUCOMMON_QUE@@V?$allocator@PEAUCOMMON_QUE@@@std@@@std@@QEAA?AV?$_Deque_iterator@V?$_Deque_val@U?$_Deque_simple_types@PEAUCOMMON_QUE@@@std@@@std@@@2@XZ 000000014000ad30 f i ParamManager.obj
 0001:00009d30       ?begin@?$deque@PEAUDELIVERY_MAIL@MainInstance@@V?$allocator@PEAUDELIVERY_MAIL@MainInstance@@@std@@@std@@QEAA?AV?$_Deque_iterator@V?$_Deque_val@U?$_Deque_simple_types@PEAUDELIVERY_MAIL@MainInstance@@@std@@@std@@@2@XZ 000000014000ad30 f i MainInstance.obj
 0001:00009d30       ?begin@?$deque@PEAUTYP_MAE_REQUEST@MaeManager@@V?$allocator@PEAUTYP_MAE_REQUEST@MaeManager@@@std@@@std@@QEAA?AV?$_Deque_iterator@V?$_Deque_val@U?$_Deque_simple_types@PEAUTYP_MAE_REQUEST@MaeManager@@@std@@@std@@@2@XZ 000000014000ad30 f i MaeManager.obj
 0001:00009d30       ?begin@?$deque@PEADV?$allocator@PEAD@std@@@std@@QEAA?AV?$_Deque_iterator@V?$_Deque_val@U?$_Deque_simple_types@PEAD@std@@@std@@@2@XZ 000000014000ad30 f i KizuLibMFC:LogFileManager.obj
 0001:00009d50       ?Free@?$ThreadQueue@USEND_UDP@CmdSender@@@KizuLib@@QEAAXXZ 000000014000ad50 f i CmdSender.obj
 0001:00009e40       ?GetTorB@DivNameManager@KizuLib@@SA?AV?$CStringT@DV?$StrTraitMFC_DLL@DV?$ChTraitsCRT@D@ATL@@@@@ATL@@H@Z 000000014000ae40 f i CoilBaseManager.obj
 0001:00009e80       ?SetCoilInfStatus@StatusManager@@QEAAXPEAUCOIL_INF@@@Z 000000014000ae80 f i CoilBaseManager.obj
 0001:0000a0f0       ??0CoilBaseManager@@QEAA@XZ 000000014000b0f0 f   CoilBaseManager.obj
 0001:0000a240       ??_GCoilBaseManager@@UEAAPEAXI@Z 000000014000b240 f i CoilBaseManager.obj
 0001:0000a240       ??_ECoilBaseManager@@UEAAPEAXI@Z 000000014000b240 f i * CIL library *:* CIL module *
 0001:0000a280       ??1CoilBaseManager@@UEAA@XZ 000000014000b280 f   CoilBaseManager.obj
 0001:0000a350       ?ThreadFirst@CoilBaseManager@@MEAAHXZ 000000014000b350 f   CoilBaseManager.obj
 0001:0000a3e0       ?ThreadEvent@CoilBaseManager@@MEAAXH@Z 000000014000b3e0 f   CoilBaseManager.obj
 0001:0000a430       ?AllDelete@CoilBaseManager@@QEAAXXZ 000000014000b430 f   CoilBaseManager.obj
 0001:0000a5b0       ?CoilClear@CoilBaseManager@@QEAAXPEAUCOIL_INF@@@Z 000000014000b5b0 f   CoilBaseManager.obj
 0001:0000a660       ?Init@CoilBaseManager@@QEAAX_N@Z 000000014000b660 f   CoilBaseManager.obj
 0001:0000a8f0       ?DummyCoilInf@CoilBaseManager@@IEAAXH_N0@Z 000000014000b8f0 f   CoilBaseManager.obj
 0001:0000abc0       ?Create_CoilInf@CoilBaseManager@@IEAAXPEAUCOIL_INF@@@Z 000000014000bbc0 f   CoilBaseManager.obj
 0001:0000acb0       ?RecvNextCoil_Ken@CoilBaseManager@@IEAAXXZ 000000014000bcb0 f   CoilBaseManager.obj
 0001:0000b3a0       ?RecvNextCoil_Dsp@CoilBaseManager@@IEAAXXZ 000000014000c3a0 f   CoilBaseManager.obj
 0001:0000b630       ?ChangeCoilKenBase@CoilBaseManager@@QEAAX_N0@Z 000000014000c630 f   CoilBaseManager.obj
 0001:0000be40       ?ChangeCoilKenBase_NotPos@CoilBaseManager@@QEAAXXZ 000000014000ce40 f   CoilBaseManager.obj
 0001:0000bfb0       ?ChangeCoilDspBase@CoilBaseManager@@QEAA_NNH@Z 000000014000cfb0 f   CoilBaseManager.obj
 0001:0000c550       ?ChangeCoilShaPointer@CoilBaseManager@@QEAAXNN@Z 000000014000d550 f   CoilBaseManager.obj
 0001:0000c860       ?SaveDB_CoilInf@CoilBaseManager@@IEAAXXZ 000000014000d860 f   CoilBaseManager.obj
 0001:0000c9e0       ?SaveDB_CoilPosition@CoilBaseManager@@IEAAXHH@Z 000000014000d9e0 f   CoilBaseManager.obj
 0001:0000cb90       ?SaveDB_CoilResult@CoilBaseManager@@IEAAXXZ 000000014000db90 f   CoilBaseManager.obj
 0001:0000d180       ?SaveDB_CoilCutPos@CoilBaseManager@@IEAAXHPEBUSHRCUT_ITEM@@@Z 000000014000e180 f   CoilBaseManager.obj
 0001:0000d2b0       ?SetTypeEpcCoil@CoilBaseManager@@IEAAXAEAUTYPE_EPC_COIL@@AEBUPRO_TYPE_DATA_COILINF@@@Z 000000014000e2b0 f   CoilBaseManager.obj
 0001:0000d520       ?SetTypeCoilInf@CoilBaseManager@@IEAAXAEAUDBDATA_COIL_INF@@AEBUPRO_TYPE_DATA_COILINF@@@Z 000000014000e520 f   CoilBaseManager.obj
 0001:0000d7a0       ?SetUdpAllFrame@CoilBaseManager@@AEAAHPEBDG@Z 000000014000e7a0 f   CoilBaseManager.obj
 0001:0000d870       ?AddToTail@?$ThreadQueue@UDeliveryDB@DbBaseManager@@@KizuLib@@QEAAHPEAUDeliveryDB@DbBaseManager@@HH@Z 000000014000e870 f i CoilBaseManager.obj
 0001:0000d870       ?AddToTail@?$ThreadQueue@UDELIVERYSQL@DBSaveManager@@@KizuLib@@QEAAHPEAUDELIVERYSQL@DBSaveManager@@HH@Z 000000014000e870 f i DBManager.obj
 0001:0000d940       ?AddToTailFreeCheck@?$ThreadQueue@UDeliveryDB@DbBaseManager@@@KizuLib@@QEAAHPEAUDeliveryDB@DbBaseManager@@H@Z 000000014000e940 f i CoilBaseManager.obj
 0001:0000d940       ?AddToTailFreeCheck@?$ThreadQueue@UDELIVERYSQL@DBSaveManager@@@KizuLib@@QEAAHPEAUDELIVERYSQL@DBSaveManager@@H@Z 000000014000e940 f i DBManager.obj
 0001:0000d9f0       sprintf                    000000014000e9f0 f i CoilBaseManager.obj
 0001:0000da50       __local_stdio_printf_options 000000014000ea50 f i CoilBaseManager.obj
 0001:0000da60       ??_ECoilManager@@UEAAPEAXI@Z 000000014000ea60 f i * CIL library *:* CIL module *
 0001:0000da60       ??_GCoilManager@@UEAAPEAXI@Z 000000014000ea60 f i CoilManager.obj
 0001:0000daa0       ?SetData_Edge@CoilManager@@QEAAXHHPEAM@Z 000000014000eaa0 f   CoilManager.obj
 0001:0000dbb0       ?SetData_CoilPosition@CoilManager@@QEAAX_NH@Z 000000014000ebb0 f   CoilManager.obj
 0001:0000dda0       ?SetData_CoilResult_Real@CoilManager@@QEAAXHNN@Z 000000014000eda0 f   CoilManager.obj
 0001:0000de90       ?SetData_ShaCut@CoilManager@@QEAAXNH@Z 000000014000ee90 f   CoilManager.obj
 0001:0000e0f0       ?SetData_CoilCnt@CoilManager@@QEAAXXZ 000000014000f0f0 f   CoilManager.obj
 0001:0000e190       ?SetData_AlarmCancel@CoilManager@@QEAAXH@Z 000000014000f190 f   CoilManager.obj
 0001:0000e260       ?SetAlameInf@CoilManager@@QEAAXPEBUDETECT_BASE_DATA@@HPEAUCOIL_INF@@PEBN@Z 000000014000f260 f   CoilManager.obj
 0001:0000ec90       ?SetDefectCount@CoilManager@@QEAAHHPEBDH@Z 000000014000fc90 f   CoilManager.obj
 0001:0000ed60       ?GetDefectCount@CoilManager@@QEAAHHPEBDH@Z 000000014000fd60 f   CoilManager.obj
 0001:0000ee10       ?SetStatusQue@StatusBaseManager@@QEAAXPEBDHH_N0@Z 000000014000fe10 f i DbBaseManager.obj
 0001:0000eeb0       ??0DbBaseManager@@QEAA@PEBD@Z 000000014000feb0 f   DbBaseManager.obj
 0001:0000f040       ??_EDbBaseManager@@UEAAPEAXI@Z 0000000140010040 f i * CIL library *:* CIL module *
 0001:0000f040       ??_GDbBaseManager@@UEAAPEAXI@Z 0000000140010040 f i DbBaseManager.obj
 0001:0000f080       ??1DbBaseManager@@UEAA@XZ  0000000140010080 f   DbBaseManager.obj
 0001:0000f210       ?Alloc@DbBaseManager@@QEAAXXZ 0000000140010210 f   DbBaseManager.obj
 0001:0000f330       ?Free@DbBaseManager@@QEAAXXZ 0000000140010330 f   DbBaseManager.obj
 0001:0000f400       ?ReSetMaxCount@DbBaseManager@@QEAAXXZ 0000000140010400 f   DbBaseManager.obj
 0001:0000f4e0       ?ChangeSQLInf@DbBaseManager@@QEAAXPEBD@Z 00000001400104e0 f   DbBaseManager.obj
 0001:0000f8e0       ?BCP_Connect@DbBaseManager@@IEAA_NPEAVBCPBase@KizuODBC@@PEBD@Z 00000001400108e0 f   DbBaseManager.obj
 0001:0000fa50       ?ThreadFirst@DbBaseManager@@MEAAHXZ 0000000140010a50 f   DbBaseManager.obj
 0001:0000fb60       ?ThreadEvent@DbBaseManager@@MEAAXH@Z 0000000140010b60 f   DbBaseManager.obj
 0001:0000fc60       ?SaveSkipStart@DbBaseManager@@AEAAXH@Z 0000000140010c60 f   DbBaseManager.obj
 0001:0000fcf0       ?SetSaveSkipAdd@DbBaseManager@@QEAAXPEBDHH@Z 0000000140010cf0 f   DbBaseManager.obj
 0001:0000fdb0       ?SaveDefectCheck@DbBaseManager@@QEAAHHHHH@Z 0000000140010db0 f   DbBaseManager.obj
 0001:00010040       ?SaveMaxCheck@DbBaseManager@@QEAAHHHH@Z 0000000140011040 f   DbBaseManager.obj
 0001:000101b0       ??0?$ThreadQueue@UDELIVERYSQL@DBSaveManager@@@KizuLib@@QEAA@H@Z 00000001400111b0 f i DbBaseManager.obj
 0001:00010260       ??0?$ThreadQueue@UDeliveryDB@DbBaseManager@@@KizuLib@@QEAA@H@Z 0000000140011260 f i DbBaseManager.obj
 0001:00010310       ??1?$ThreadQueue@UDeliveryDB@DbBaseManager@@@KizuLib@@UEAA@XZ 0000000140011310 f i DbBaseManager.obj
 0001:00010370       ??_E?$ThreadQueue@UDELIVERYSQL@DBSaveManager@@@KizuLib@@UEAAPEAXI@Z 0000000140011370 f i * CIL library *:* CIL module *
 0001:00010370       ??_G?$ThreadQueue@UDELIVERYSQL@DBSaveManager@@@KizuLib@@UEAAPEAXI@Z 0000000140011370 f i DbBaseManager.obj
 0001:00010400       ??_G?$ThreadQueue@UDeliveryDB@DbBaseManager@@@KizuLib@@UEAAPEAXI@Z 0000000140011400 f i DbBaseManager.obj
 0001:00010400       ??_E?$ThreadQueue@UDeliveryDB@DbBaseManager@@@KizuLib@@UEAAPEAXI@Z 0000000140011400 f i * CIL library *:* CIL module *
 0001:00010490       ?Free@?$ThreadQueue@UDELIVERYSQL@DBSaveManager@@@KizuLib@@QEAAXXZ 0000000140011490 f i DbBaseManager.obj
 0001:00010520       ?Free@?$ThreadQueue@UDeliveryDB@DbBaseManager@@@KizuLib@@QEAAXXZ 0000000140011520 f i DbBaseManager.obj
 0001:00010520       ?Free@?$ThreadQueue@UDELIVERY@DmemManager@@@KizuLib@@QEAAXXZ 0000000140011520 f i DmemManager.obj
 0001:00010520       ?Free@?$ThreadQueue@UTYP_MY_ERRWAR_INF@StatusBaseManager@@@KizuLib@@QEAAXXZ 0000000140011520 f i StatusBaseManager.obj
 0001:00010520       ?Free@?$ThreadQueue@UDEFDUMP_QUE@DefectDumpManager@@@KizuLib@@QEAAXXZ 0000000140011520 f i DefectDumpManager.obj
 0001:000105a0       sprintf_s                  00000001400115a0 f i DbBaseManager.obj
 0001:00010600       ??0DELIVERYSQL@DBSaveManager@@QEAA@XZ 0000000140011600 f i DBManager.obj
 0001:00010680       ??0DBManager@@QEAA@XZ      0000000140011680 f   DBManager.obj
 0001:00010800       ??_EDBManager@@UEAAPEAXI@Z 0000000140011800 f i * CIL library *:* CIL module *
 0001:00010800       ??_GDBManager@@UEAAPEAXI@Z 0000000140011800 f i DBManager.obj
 0001:00010850       ??1DBManager@@UEAA@XZ      0000000140011850 f   DBManager.obj
 0001:00010880       ?OnAlloc@DBManager@@EEAAX_N@Z 0000000140011880 f   DBManager.obj
 0001:00010980       ?OnFree@DBManager@@EEAAXXZ 0000000140011980 f   DBManager.obj
 0001:000109b0       ?OnQueDb@DBManager@@EEAAXHPEAE@Z 00000001400119b0 f   DBManager.obj
 0001:00010b80       ?OnReSetMaxCount@DBManager@@EEAAXXZ 0000000140011b80 f   DBManager.obj
 0001:00010b90       ?CreateSQL_CoilInf@DBManager@@AEAAXPEBUDBDATA_COIL_INF@@@Z 0000000140011b90 f   DBManager.obj
 0001:00011ce0       ?CreateSQL_CoilResult@DBManager@@AEAAXPEBUDBDATA_COIL_RESULT@@@Z 0000000140012ce0 f   DBManager.obj
 0001:00013420       ?CreateSQL_CameraResult@DBManager@@AEAAXPEBUDBDATA_COIL_RESULT@@@Z 0000000140014420 f   DBManager.obj
 0001:00013780       ?CreateSQL_CoilResultUpdate@DBManager@@AEAAXPEBUDBDATA_COIL_RESULT_UPDATE@@@Z 0000000140014780 f   DBManager.obj
 0001:00013b30       ?CreateSQL_CoilPosition@DBManager@@AEAAXPEBUDBDATA_COIL_POSITION@@@Z 0000000140014b30 f   DBManager.obj
 0001:00013e50       ?CreateSQL_CoilTrand@DBManager@@AEAAXPEBUDBDATA_COIL_TRAND@@@Z 0000000140014e50 f   DBManager.obj
 0001:00014320       ?CreateSQL_CoilCutPos@DBManager@@AEAAXPEBUDBDATA_COIL_CUT_POS@@@Z 0000000140015320 f   DBManager.obj
 0001:00014780       ?CreateSQL_DefectInf@DBManager@@AEAAHPEBUDBDATA_DEFECT_INF@@@Z 0000000140015780 f   DBManager.obj
 0001:000155a0       ?CreateSQL_EdgeCoilInf@DBManager@@AEAAXPEBUDBDATA_EDGE_COIL_INF@@@Z 00000001400165a0 f   DBManager.obj
 0001:00015910       ?CreateSQL_EdgeChangeInf@DBManager@@AEAAXPEBUDBDATA_EDGE_CHANGE_INF@@@Z 0000000140016910 f   DBManager.obj
 0001:00015c40       ?CreateSQL_CamLinkSW@DBManager@@AEAAXPEBUDBDATA_CAMERA_LINKSWITCH@@@Z 0000000140016c40 f   DBManager.obj
 0001:000160c0       ?CreateSQL_PulseRateUpdate@DBManager@@AEAAXPEBUDBDATA_PULSE_RATE_UPDATE@@@Z 00000001400170c0 f   DBManager.obj
 0001:000163c0       ?Add_Synclock@DBManager@@AEAAXPEBUDBDATA_ADD_SYNC@@@Z 00000001400173c0 f   DBManager.obj
 0001:00016560       ?CreateSQL_StatusLog@DBManager@@AEAAXPEBUDBDATA_STATUS_LOG@@@Z 0000000140017560 f   DBManager.obj
 0001:00016a00       ??0exception@std@@QEAA@AEBV01@@Z 0000000140017a00 f i DefectDumpManager.obj
 0001:00016a40       ?what@exception@std@@UEBAPEBDXZ 0000000140017a40 f i DefectDumpManager.obj
 0001:00016a60       ??_Gexception@std@@UEAAPEAXI@Z 0000000140017a60 f i DefectDumpManager.obj
 0001:00016a60       ??_Gbad_cast@std@@UEAAPEAXI@Z 0000000140017a60 f i DefectDumpManager.obj
 0001:00016a60       ??_Eexception@std@@UEAAPEAXI@Z 0000000140017a60 f i * CIL library *:* CIL module *
 0001:00016a60       ??_Ebad_cast@std@@UEAAPEAXI@Z 0000000140017a60 f i * CIL library *:* CIL module *
 0001:00016ab0       ??1bad_cast@std@@UEAA@XZ   0000000140017ab0 f i DefectDumpManager.obj
 0001:00016ad0       ??1locale@std@@QEAA@XZ     0000000140017ad0 f i DefectDumpManager.obj
 0001:00016b10       ??0DefectDumpManager@@QEAA@HPEBDHH@Z 0000000140017b10 f   DefectDumpManager.obj
 0001:00016eb0       ??_GDefectDumpManager@@UEAAPEAXI@Z 0000000140017eb0 f i DefectDumpManager.obj
 0001:00016eb0       ??_EDefectDumpManager@@UEAAPEAXI@Z 0000000140017eb0 f i * CIL library *:* CIL module *
 0001:00016ef0       ??_D?$basic_ofstream@DU?$char_traits@D@std@@@std@@QEAAXXZ 0000000140017ef0 f i DefectDumpManager.obj
 0001:00016f60       ??1DefectDumpManager@@UEAA@XZ 0000000140017f60 f   DefectDumpManager.obj
 0001:000170c0       ?ThreadLast@DefectDumpManager@@EEAAHXZ 00000001400180c0 f   DefectDumpManager.obj
 0001:000170d0       ?ThreadEvent@DefectDumpManager@@EEAAXH@Z 00000001400180d0 f   DefectDumpManager.obj
 0001:00017190       ?Write@DefectDumpManager@@QEAAXHPEBDZZ 0000000140018190 f   DefectDumpManager.obj
 0001:00017390       ?WriteFile@DefectDumpManager@@QEAAXHPEBD@Z 0000000140018390 f   DefectDumpManager.obj
 0001:00017500       ?AllDeleteQueue@DefectDumpManager@@QEAAHXZ 0000000140018500 f   DefectDumpManager.obj
 0001:00017580       ??1?$basic_string@DU?$char_traits@D@std@@V?$allocator@D@2@@std@@QEAA@XZ 0000000140018580 f i DefectDumpManager.obj
 0001:00017610       ??0?$basic_ofstream@DU?$char_traits@D@std@@@std@@QEAA@XZ 0000000140018610 f i DefectDumpManager.obj
 0001:000176f0       ?imbue@?$basic_filebuf@DU?$char_traits@D@std@@@std@@MEAAXAEBVlocale@2@@Z 00000001400186f0 f i DefectDumpManager.obj
 0001:00017740       ?sync@?$basic_filebuf@DU?$char_traits@D@std@@@std@@MEAAHXZ 0000000140018740 f i DefectDumpManager.obj
 0001:00017790       ?setbuf@?$basic_filebuf@DU?$char_traits@D@std@@@std@@MEAAPEAV?$basic_streambuf@DU?$char_traits@D@std@@@2@PEAD_J@Z 0000000140018790 f i DefectDumpManager.obj
 0001:000177f0       ?seekpos@?$basic_filebuf@DU?$char_traits@D@std@@@std@@MEAA?AV?$fpos@U_Mbstatet@@@2@V32@H@Z 00000001400187f0 f i DefectDumpManager.obj
 0001:000178e0       ?seekoff@?$basic_filebuf@DU?$char_traits@D@std@@@std@@MEAA?AV?$fpos@U_Mbstatet@@@2@_JHH@Z 00000001400188e0 f i DefectDumpManager.obj
 0001:000179c0       ?uflow@?$basic_filebuf@DU?$char_traits@D@std@@@std@@MEAAHXZ 00000001400189c0 f i DefectDumpManager.obj
 0001:00017d90       ?underflow@?$basic_filebuf@DU?$char_traits@D@std@@@std@@MEAAHXZ 0000000140018d90 f i DefectDumpManager.obj
 0001:00017e00       ?pbackfail@?$basic_filebuf@DU?$char_traits@D@std@@@std@@MEAAHH@Z 0000000140018e00 f i DefectDumpManager.obj
 0001:00017ee0       ?overflow@?$basic_filebuf@DU?$char_traits@D@std@@@std@@MEAAHH@Z 0000000140018ee0 f i DefectDumpManager.obj
 0001:00018250       ?_Unlock@?$basic_filebuf@DU?$char_traits@D@std@@@std@@UEAAXXZ 0000000140019250 f i DefectDumpManager.obj
 0001:00018270       ?_Lock@?$basic_filebuf@DU?$char_traits@D@std@@@std@@UEAAXXZ 0000000140019270 f i DefectDumpManager.obj
 0001:00018290       ??1?$basic_filebuf@DU?$char_traits@D@std@@@std@@UEAA@XZ 0000000140019290 f i DefectDumpManager.obj
 0001:00018310       ??_E?$basic_ofstream@DU?$char_traits@D@std@@@std@@UEAAPEAXI@Z 0000000140019310 f i * CIL library *:* CIL module *
 0001:00018310       ??_G?$basic_ofstream@DU?$char_traits@D@std@@@std@@UEAAPEAXI@Z 0000000140019310 f i DefectDumpManager.obj
 0001:00018350       ??_G?$basic_filebuf@DU?$char_traits@D@std@@@std@@UEAAPEAXI@Z 0000000140019350 f i DefectDumpManager.obj
 0001:00018350       ??_E?$basic_filebuf@DU?$char_traits@D@std@@@std@@UEAAPEAXI@Z 0000000140019350 f i * CIL library *:* CIL module *
 0001:00018390       ??1sentry@?$basic_ostream@DU?$char_traits@D@std@@@std@@QEAA@XZ 0000000140019390 f i DefectDumpManager.obj
 0001:000183e0       ?_Reset_back@?$basic_filebuf@DU?$char_traits@D@std@@@std@@AEAAXXZ 00000001400193e0 f i DefectDumpManager.obj
 0001:00018410       ?_Endwrite@?$basic_filebuf@DU?$char_traits@D@std@@@std@@IEAA_NXZ 0000000140019410 f i DefectDumpManager.obj
 0001:00018690       ?_Init@?$basic_filebuf@DU?$char_traits@D@std@@@std@@IEAAXPEAU_iobuf@@W4_Initfl@12@@Z 0000000140019690 f i DefectDumpManager.obj
 0001:00018730       ?close@?$basic_filebuf@DU?$char_traits@D@std@@@std@@QEAAPEAV12@XZ 0000000140019730 f i DefectDumpManager.obj
 0001:000187b0       ?open@?$basic_filebuf@DU?$char_traits@D@std@@@std@@QEAAPEAV12@PEBDHH@Z 00000001400197b0 f i DefectDumpManager.obj
 0001:00018880       ??1_Sentry_base@?$basic_ostream@DU?$char_traits@D@std@@@std@@QEAA@XZ 0000000140019880 f i DefectDumpManager.obj
 0001:000188b0       ?_Copy@?$basic_string@DU?$char_traits@D@std@@V?$allocator@D@2@@std@@QEAAX_K0@Z 00000001400198b0 f i DefectDumpManager.obj
 0001:00018a10       ??0?$ThreadQueue@UDEFDUMP_QUE@DefectDumpManager@@@KizuLib@@QEAA@H@Z 0000000140019a10 f i DefectDumpManager.obj
 0001:00018ac0       ??1?$ThreadQueue@UDEFDUMP_QUE@DefectDumpManager@@@KizuLib@@UEAA@XZ 0000000140019ac0 f i DefectDumpManager.obj
 0001:00018b20       ??$?6U?$char_traits@D@std@@@std@@YAAEAV?$basic_ostream@DU?$char_traits@D@std@@@0@AEAV10@PEBD@Z 0000000140019b20 f i DefectDumpManager.obj
 0001:00018cf0       ??$endl@DU?$char_traits@D@std@@@std@@YAAEAV?$basic_ostream@DU?$char_traits@D@std@@@0@AEAV10@@Z 0000000140019cf0 f i DefectDumpManager.obj
 0001:00018d30       ??$use_facet@V?$codecvt@DDU_Mbstatet@@@std@@@std@@YAAEBV?$codecvt@DDU_Mbstatet@@@0@AEBVlocale@0@@Z 0000000140019d30 f i DefectDumpManager.obj
 0001:00018e40       ??0bad_cast@std@@QEAA@AEBV01@@Z 0000000140019e40 f i DefectDumpManager.obj
 0001:00018e80       ??_G?$ThreadQueue@UDEFDUMP_QUE@DefectDumpManager@@@KizuLib@@UEAAPEAXI@Z 0000000140019e80 f i DefectDumpManager.obj
 0001:00018e80       ??_E?$ThreadQueue@UDEFDUMP_QUE@DefectDumpManager@@@KizuLib@@UEAAPEAXI@Z 0000000140019e80 f i * CIL library *:* CIL module *
 0001:00018f04       ??_E?$basic_ofstream@DU?$char_traits@D@std@@@std@@$4PPPPPPPM@A@EAAPEAXI@Z 0000000140019f04 f i DefectDumpManager.obj
 0001:00018f10       ??0DmemManager@@QEAA@XZ    0000000140019f10 f   DmemManager.obj
 0001:00019240       ??_EDmemManager@@UEAAPEAXI@Z 000000014001a240 f i * CIL library *:* CIL module *
 0001:00019240       ??_GDmemManager@@UEAAPEAXI@Z 000000014001a240 f i DmemManager.obj
 0001:00019280       ??1DmemManager@@UEAA@XZ    000000014001a280 f   DmemManager.obj
 0001:000194c0       ?ThreadFirst@DmemManager@@EEAAHXZ 000000014001a4c0 f   DmemManager.obj
 0001:00019790       ?ThreadEvent@DmemManager@@EEAAXH@Z 000000014001a790 f   DmemManager.obj
 0001:00019c50       ?ReadDmemHls@DmemManager@@AEAAXXZ 000000014001ac50 f   DmemManager.obj
 0001:00019da0       ?WritDmemStatus@DmemManager@@AEAAXXZ 000000014001ada0 f   DmemManager.obj
 0001:00019fc0       ?ReadDmemStatus@DmemManager@@AEAAXAEAUSEQ_DM_RECV_BASE@@@Z 000000014001afc0 f   DmemManager.obj
 0001:0001a230       ?ReadDmemStatusLow@DmemManager@@AEAAXAEAUSEQ_DM_RECV_BASE@@@Z 000000014001b230 f   DmemManager.obj
 0001:0001bd60       ?WritDmemRamp@DmemManager@@AEAAXUOCCUR_RAMP@1@@Z 000000014001cd60 f   DmemManager.obj
 0001:0001bed0       ?WritDmemAlarm@DmemManager@@AEAAXUOCCUR_ALARM@1@@Z 000000014001ced0 f   DmemManager.obj
 0001:0001bfe0       ?WritDmemVoice@DmemManager@@AEAAXUOCCUR_VOICE@1@@Z 000000014001cfe0 f   DmemManager.obj
 0001:0001c1a0       ?WritDmemVoiceReset@DmemManager@@AEAAXXZ 000000014001d1a0 f   DmemManager.obj
 0001:0001c240       ?PoPuls_CountReset@DmemManager@@QEAAXXZ 000000014001d240 f   DmemManager.obj
 0001:0001c300       ?PoPuls_CountStart@DmemManager@@QEAAXXZ 000000014001d300 f   DmemManager.obj
 0001:0001c3c0       ?PoPuls_TesetWpdOn@DmemManager@@QEAAXH@Z 000000014001d3c0 f   DmemManager.obj
 0001:0001c440       ?UpdatePlsRate@DmemManager@@AEAAXPEAH@Z 000000014001d440 f   DmemManager.obj
 0001:0001c5d0       ??0?$ThreadQueue@UDELIVERY@DmemManager@@@KizuLib@@QEAA@H@Z 000000014001d5d0 f i DmemManager.obj
 0001:0001c680       ??_G?$ThreadQueue@UDELIVERY@DmemManager@@@KizuLib@@UEAAPEAXI@Z 000000014001d680 f i DmemManager.obj
 0001:0001c680       ??_E?$ThreadQueue@UDELIVERY@DmemManager@@@KizuLib@@UEAAPEAXI@Z 000000014001d680 f i * CIL library *:* CIL module *
 0001:0001c710       ??0EdgePosControl@@QEAA@XZ 000000014001d710 f   EdgePosControl.obj
 0001:0001c7a0       ??_GEdgePosControl@@UEAAPEAXI@Z 000000014001d7a0 f i EdgePosControl.obj
 0001:0001c7a0       ??_EEdgePosControl@@UEAAPEAXI@Z 000000014001d7a0 f i * CIL library *:* CIL module *
 0001:0001c7f0       ??1EdgePosControl@@UEAA@XZ 000000014001d7f0 f   EdgePosControl.obj
 0001:0001c810       ?GetDivEdgeMode@EdgePosControl@@SA?AV?$CStringT@DV?$StrTraitMFC_DLL@DV?$ChTraitsCRT@D@ATL@@@@@ATL@@W4EM_DIV_EDGE_MODE@1@@Z 000000014001d810 f   EdgePosControl.obj
 0001:0001c8e0       ?CoilStart@EdgePosControl@@QEAAXHPEBDM_N@Z 000000014001d8e0 f   EdgePosControl.obj
 0001:0001ca30       ?CoilEnd@EdgePosControl@@QEAAXH@Z 000000014001da30 f   EdgePosControl.obj
 0001:0001cbf0       ?SetEdgePos@EdgePosControl@@QEAA_NHJJNPEAM00N@Z 000000014001dbf0 f   EdgePosControl.obj
 0001:0001d3b0       ??_GEdgeRestrictSender@@UEAAPEAXI@Z 000000014001e3b0 f i EdgeRestrictSender.obj
 0001:0001d3b0       ??_EEdgeRestrictSender@@UEAAPEAXI@Z 000000014001e3b0 f i * CIL library *:* CIL module *
 0001:0001d3f0       ??1EdgeRestrictSender@@UEAA@XZ 000000014001e3f0 f   EdgeRestrictSender.obj
 0001:0001d4c0       ?ThreadFirst@EdgeRestrictSender@@EEAAHXZ 000000014001e4c0 f   EdgeRestrictSender.obj
 0001:0001d5a0       ?ThreadLast@EdgeRestrictSender@@EEAAHXZ 000000014001e5a0 f   EdgeRestrictSender.obj
 0001:0001d5d0       ?ThreadEvent@EdgeRestrictSender@@EEAAXH@Z 000000014001e5d0 f   EdgeRestrictSender.obj
 0001:0001d660       ?SendEdgeRestrict@EdgeRestrictSender@@QEAAXHPEAHPEAM1@Z 000000014001e660 f   EdgeRestrictSender.obj
 0001:0001d7d0       ??0?$ThreadQueue@UNCL_EDGE_RESTRICT_DATA@@@KizuLib@@QEAA@H@Z 000000014001e7d0 f i EdgeRestrictSender.obj
 0001:0001d880       ??_G?$ThreadQueue@UNCL_EDGE_RESTRICT_DATA@@@KizuLib@@UEAAPEAXI@Z 000000014001e880 f i EdgeRestrictSender.obj
 0001:0001d880       ??_E?$ThreadQueue@UNCL_EDGE_RESTRICT_DATA@@@KizuLib@@UEAAPEAXI@Z 000000014001e880 f i * CIL library *:* CIL module *
 0001:0001d910       ?Free@?$ThreadQueue@UNCL_EDGE_RESTRICT_DATA@@@KizuLib@@QEAAXXZ 000000014001e910 f i EdgeRestrictSender.obj
 0001:0001d990       ?OnGetPcName@HtRecvBaseManager@@MEAAPEBDH@Z 000000014001e990 f i HtRecv.obj
 0001:0001d990       ?OnGetPcNameCycle@HtRecvBaseManager@@MEAAPEBDH@Z 000000014001e990 f i HtRecv.obj
 0001:0001d9b0       ??0HtRecv@@QEAA@PEBDH_N@Z  000000014001e9b0 f   HtRecv.obj
 0001:0001dd10       ??_GHtRecv@@UEAAPEAXI@Z    000000014001ed10 f i HtRecv.obj
 0001:0001dd10       ??_EHtRecv@@UEAAPEAXI@Z    000000014001ed10 f i * CIL library *:* CIL module *
 0001:0001dd50       ??1HtRecv@@UEAA@XZ         000000014001ed50 f   HtRecv.obj
 0001:0001ddd0       ?OnExecDetectWaitStart@HtRecv@@EEAAXXZ 000000014001edd0 f   HtRecv.obj
 0001:0001de20       ?OnExecDetectRun@HtRecv@@EEAAXXZ 000000014001ee20 f   HtRecv.obj
 0001:0001e070       ?OnExecDetectStop@HtRecv@@EEAAXXZ 000000014001f070 f   HtRecv.obj
 0001:0001e0b0       ?OnOpNewConnect@HtRecv@@EEAAXXZ 000000014001f0b0 f   HtRecv.obj
 0001:0001e120       ?OnMainDefect@HtRecv@@EEAAXXZ 000000014001f120 f   HtRecv.obj
 0001:0001f190       ?OnMainHls@HtRecv@@EEAAXPEAUSOCK_F_HEAD@@@Z 0000000140020190 f   HtRecv.obj
 0001:0001f390       ?ExecDefect@HtRecv@@AEAAXN@Z 0000000140020390 f   HtRecv.obj
 0001:0001fac0       ?SetDetectInf@HtRecv@@AEAAXPEBUNCL_DEFECT_RESULT@@PEBNNHPEBUDEFECT_DATA_IMAGE@@@Z 0000000140020ac0 f   HtRecv.obj
 0001:00020910       ?ExecMerge@HtRecv@@AEAAXXZ 0000000140021910 f   HtRecv.obj
 0001:00020dc0       ?SetCoilTrand@HtRecv@@AEAAXXZ 0000000140021dc0 f   HtRecv.obj
 0001:00021290       ?Create_DetectBaseData@HtRecv@@SAXHHHPEBUNCL_DEFECT_RESULT@@PEBNHPEAUDETECT_BASE_DATA@@@Z 0000000140022290 f   HtRecv.obj
 0001:00021730       ?ClearDefectBuffer@HtRecv@@AEAAXXZ 0000000140022730 f   HtRecv.obj
 0001:00021820       ?ReSetOp_DetectData@HtRecv@@AEAAXH@Z 0000000140022820 f   HtRecv.obj
 0001:000218c0       ?DetectToColRow@HtRecv@@AEAAXPEAUTYP_COLROW_BUF@@NPEBUDETECT_BASE_DATA@@PEBUDEFECT_DATA_IMAGE@@@Z 00000001400228c0 f   HtRecv.obj
 0001:000219f0       ?SetBuf_DetectData@HtRecv@@AEAAXPEBUCOIL_INF@@PEBUDETECT_BASE_DATA@@PEBUDEFECT_DATA_IMAGE@@NN@Z 00000001400229f0 f   HtRecv.obj
 0001:00021cd0       ?SetOp_DetectData@HtRecv@@AEAAHPEBUCOIL_INF@@PEBUDETECT_BASE_DATA@@PEBUDEFECT_DATA_IMAGE@@NPEAUTYP_COLROW_INFO@@@Z 0000000140022cd0 f   HtRecv.obj
 0001:00022330       ?SelectPriorityDetect@HtRecv@@AEAA_NPEBUDETECT_BASE_DATA@@0@Z 0000000140023330 f   HtRecv.obj
 0001:00022450       ??_EHtRecv@@WFI@EAAPEAXI@Z 0000000140023450 f i HtRecv.obj
 0001:00022460       ??0HtRecvBaseManager@@QEAA@PEBDH_NHHH@Z 0000000140023460 f   HtRecvBaseManager.obj
 0001:000227e0       ??_GHtRecvBaseManager@@UEAAPEAXI@Z 00000001400237e0 f i HtRecvBaseManager.obj
 0001:000227e0       ??_EHtRecvBaseManager@@UEAAPEAXI@Z 00000001400237e0 f i * CIL library *:* CIL module *
 0001:00022820       ??1HtRecvBaseManager@@UEAA@XZ 0000000140023820 f   HtRecvBaseManager.obj
 0001:000228f0       ?ThreadFirst@HtRecvBaseManager@@MEAAHXZ 00000001400238f0 f   HtRecvBaseManager.obj
 0001:00022c50       ?ThreadEvent@HtRecvBaseManager@@MEAAXH@Z 0000000140023c50 f   HtRecvBaseManager.obj
 0001:00023100       ?OnRecvEnd@HtRecvBaseManager@@MEAAXH@Z 0000000140024100 f   HtRecvBaseManager.obj
 0001:00023400       ?ExecDetectWaitStart@HtRecvBaseManager@@IEAAXXZ 0000000140024400 f   HtRecvBaseManager.obj
 0001:000235a0       ?ExecDetectRun@HtRecvBaseManager@@IEAAXXZ 00000001400245a0 f   HtRecvBaseManager.obj
 0001:000237f0       ?MainDefect@HtRecvBaseManager@@IEAAXXZ 00000001400247f0 f   HtRecvBaseManager.obj
 0001:00023d20       ?FrameSkipStart@HtRecvBaseManager@@AEAAXXZ 0000000140024d20 f   HtRecvBaseManager.obj
 0001:00023da0       ?EdgeNgStart@HtRecvBaseManager@@AEAAXXZ 0000000140024da0 f   HtRecvBaseManager.obj
 0001:00023e20       ?GetDelItem@?$TrackingFrame@UTR_FRAME@@@KizuLib@@QEAA_NHKPEAUTR_FRAME@@@Z 0000000140024e20 f i HtRecvBaseManager.obj
 0001:00023f00       ?DelItem@?$TrackingFrame@UTR_FRAME@@@KizuLib@@QEAA_NHK@Z 0000000140024f00 f i HtRecvBaseManager.obj
 0001:00023fb8       ??_EHtRecvBaseManager@@WFI@EAAPEAXI@Z 0000000140024fb8 f i HtRecvBaseManager.obj
 0001:00023fd0       ??_GIfRpiSave@@UEAAPEAXI@Z 0000000140024fd0 f i IfRpiSave.obj
 0001:00023fd0       ??_EIfRpiSave@@UEAAPEAXI@Z 0000000140024fd0 f i * CIL library *:* CIL module *
 0001:00024000       ?Send_TiRpiSave_CoilSend@IfRpiSave@@SAXPEBDPEBUCOIL_SETTING@@PEBUCOIL_BASEDATA@@HHH@Z 0000000140025000 f   IfRpiSave.obj
 0001:000240f0       ??_GIPortViewerManager@@UEAAPEAXI@Z 00000001400250f0 f i IPortViewerManager.obj
 0001:000240f0       ??_EIPortViewerManager@@UEAAPEAXI@Z 00000001400250f0 f i * CIL library *:* CIL module *
 0001:00024170       ?ThreadMainLoop@IPortViewerManager@@EEAAHXZ 0000000140025170 f   IPortViewerManager.obj
 0001:000246d0       ?SetCameraChange@IPortViewerManager@@AEAAXHH@Z 00000001400256d0 f   IPortViewerManager.obj
 0001:00024950       ?SetAGC@IPortViewerManager@@AEAAXHH@Z 0000000140025950 f   IPortViewerManager.obj
 0001:00024af0       ?GetCoilBaseKen@CoilBaseManager@@QEBAPEBUCOIL_INF@@XZ 0000000140025af0 f i LogicParaRunFunc.obj
 0001:00024b20       ?GetLinkswCmdState@LogicParaRunFunc@@SA?AV?$CStringT@DV?$StrTraitMFC_DLL@DV?$ChTraitsCRT@D@ATL@@@@@ATL@@W4ENUM_LINKSW_CMD@1@@Z 0000000140025b20 f i LogicParaRunFunc.obj
 0001:00024bc0       ??0LogicParaRunFunc@@QEAA@PEAVLogFileManager@KizuLib@@PEAVStatusManager@@PEAVPlgManager@@@Z 0000000140025bc0 f   LogicParaRunFunc.obj
 0001:00024cd0       ?Send_SoGamenn_MailStatus@LogicParaRunFunc@@CAXXZ 0000000140025cd0 f   LogicParaRunFunc.obj
 0001:00024dc0       ?SetHtParaCamNo@LogicParaRunFunc@@SAXHHH@Z 0000000140025dc0 f   LogicParaRunFunc.obj
 0001:00024e20       ?ResumeStart@LogicParaRunFunc@@SAXPEAUCOMMON_QUE@@@Z 0000000140025e20 f   LogicParaRunFunc.obj
 0001:00024fd0       ?ResumeStop@LogicParaRunFunc@@SAXPEAUCOMMON_QUE@@@Z 0000000140025fd0 f   LogicParaRunFunc.obj
 0001:000250f0       ?ResumeInitStart@LogicParaRunFunc@@SAXPEAUCOMMON_QUE@@@Z 00000001400260f0 f   LogicParaRunFunc.obj
 0001:00025510       ?WaitResumeStart_Answer@LogicParaRunFunc@@SAXPEAUCOMMON_QUE@@@Z 0000000140026510 f   LogicParaRunFunc.obj
 0001:00025760       ?WaitResumeStop_Answer@LogicParaRunFunc@@SAXPEAUCOMMON_QUE@@@Z 0000000140026760 f   LogicParaRunFunc.obj
 0001:000258c0       ?Send_HtResume_Start@LogicParaRunFunc@@SAXHPEBVCoilManager@@H@Z 00000001400268c0 f   LogicParaRunFunc.obj
 0001:00025d00       ?Send_HtResume_Stop@LogicParaRunFunc@@SAXH@Z 0000000140026d00 f   LogicParaRunFunc.obj
 0001:00025e30       ?DebugSend_CamLinksw_CamsetCmpl@LogicParaRunFunc@@SAXH@Z 0000000140026e30 f   LogicParaRunFunc.obj
 0001:00025fe0       ?IsTargetCamNo@LogicParaRunFunc@@SA_NJJ@Z 0000000140026fe0 f   LogicParaRunFunc.obj
 0001:00026190       ?Send_NextCmdSelect@LogicParaRunFunc@@SAXXZ 0000000140027190 f   LogicParaRunFunc.obj
 0001:00026670       ?RegistLinkswCmd@LogicParaRunFunc@@SAXXZ 0000000140027670 f   LogicParaRunFunc.obj
 0001:00026990       ?WaitCamset_TimeOut@LogicParaRunFunc@@SAXXZ 0000000140027990 f   LogicParaRunFunc.obj
 0001:00026ab0       ?WaitResumeStart_Timeout@LogicParaRunFunc@@SAXXZ 0000000140027ab0 f   LogicParaRunFunc.obj
 0001:00026b90       ?WaitResumeWait_Timeout@LogicParaRunFunc@@SAXH@Z 0000000140027b90 f   LogicParaRunFunc.obj
 0001:00026c10       ?WaitCamset_Answer@LogicParaRunFunc@@SAXPEAUCOMMON_QUE@@@Z 0000000140027c10 f   LogicParaRunFunc.obj
 0001:00026ec0       ?WaitLinkswJoin_Answer@LogicParaRunFunc@@SAXPEAUCOMMON_QUE@@PEBVCoilManager@@@Z 0000000140027ec0 f   LogicParaRunFunc.obj
 0001:00027020       ?push_back@?$vector@ULINKSW_CMD@LogicParaRunFunc@@V?$allocator@ULINKSW_CMD@LogicParaRunFunc@@@std@@@std@@QEAAXAEBULINKSW_CMD@LogicParaRunFunc@@@Z 0000000140028020 f i LogicParaRunFunc.obj
 0001:000271a0       ?_Reserve@?$vector@ULINKSW_CMD@LogicParaRunFunc@@V?$allocator@ULINKSW_CMD@LogicParaRunFunc@@@std@@@std@@IEAAX_K@Z 00000001400281a0 f i LogicParaRunFunc.obj
 0001:00027270       ?deallocate@?$_Wrap_alloc@V?$allocator@ULINKSW_CMD@LogicParaRunFunc@@@std@@@std@@QEAAXPEAULINKSW_CMD@LogicParaRunFunc@@_K@Z 0000000140028270 f i LogicParaRunFunc.obj
 0001:000272f0       ?_Reallocate@?$vector@ULINKSW_CMD@LogicParaRunFunc@@V?$allocator@ULINKSW_CMD@LogicParaRunFunc@@@std@@@std@@IEAAX_K@Z 00000001400282f0 f i LogicParaRunFunc.obj
 0001:000273c0       ??0?$_Wrap_alloc@V?$allocator@ULINKSW_CMD@LogicParaRunFunc@@@std@@@std@@QEAA@XZ 00000001400283c0 f i LogicParaRunFunc.obj
 0001:000273d0       ??$_Uninitialized_move_al_unchecked1@PEAULINKSW_CMD@LogicParaRunFunc@@PEAU12@V?$allocator@ULINKSW_CMD@LogicParaRunFunc@@@std@@@std@@YAPEAULINKSW_CMD@LogicParaRunFunc@@PEAU12@00AEAU?$_Wrap_alloc@V?$allocator@ULINKSW_CMD@LogicParaRunFunc@@@std@@@0@U_General_ptr_iterator_tag@0@U_Any_tag@0@@Z 00000001400283d0 f i LogicParaRunFunc.obj
 0001:00027460       ??_EMaeManager@@UEAAPEAXI@Z 0000000140028460 f i * CIL library *:* CIL module *
 0001:00027460       ??_GMaeManager@@UEAAPEAXI@Z 0000000140028460 f i MaeManager.obj
 0001:000274a0       ??1MaeManager@@UEAA@XZ     00000001400284a0 f   MaeManager.obj
 0001:00027580       ?ThreadFirst@MaeManager@@EEAAHXZ 0000000140028580 f   MaeManager.obj
 0001:000275d0       ?ThreadEvent@MaeManager@@EEAAXH@Z 00000001400285d0 f   MaeManager.obj
 0001:00027660       ?RecvCoilInf@MaeManager@@QEAAXPEBUCOIL_INF@@@Z 0000000140028660 f   MaeManager.obj
 0001:00027960       ?AddQue_MaeRequest@MaeManager@@AEAAXPEBUCOIL_INF@@W4em_EXEC_MODE@1@@Z 0000000140028960 f   MaeManager.obj
 0001:00027a40       ?Exec_MaeRequest@MaeManager@@AEAAXPEBUTYP_MAE_REQUEST@1@@Z 0000000140028a40 f   MaeManager.obj
 0001:00027fa0       ?Exec_FragOnly@MaeManager@@AEAAXPEBUTYP_MAE_REQUEST@1@@Z 0000000140028fa0 f   MaeManager.obj
 0001:000283a0       ??0?$ThreadQueue@UTYP_MAE_REQUEST@MaeManager@@@KizuLib@@QEAA@H@Z 00000001400293a0 f i MaeManager.obj
 0001:00028450       ??_G?$ThreadQueue@UTYP_MAE_REQUEST@MaeManager@@@KizuLib@@UEAAPEAXI@Z 0000000140029450 f i MaeManager.obj
 0001:00028450       ??_E?$ThreadQueue@UTYP_MAE_REQUEST@MaeManager@@@KizuLib@@UEAAPEAXI@Z 0000000140029450 f i * CIL library *:* CIL module *
 0001:000284e0       ?Free@?$ThreadQueue@UTYP_MAE_REQUEST@MaeManager@@@KizuLib@@QEAAXXZ 00000001400294e0 f i MaeManager.obj
 0001:000285c0       ?GetMenModeName@StatusBaseManager@@QEBA?AV?$CStringT@DV?$StrTraitMFC_DLL@DV?$ChTraitsCRT@D@ATL@@@@@ATL@@_N@Z 00000001400295c0 f i MainInstance.obj
 0001:00028600       ?RefreshStatus@StatusBaseManager@@QEAAXXZ 0000000140029600 f i MainInstance.obj
 0001:00028640       ?GetDmRecv@DmemManager@@QEAAAEAUSEQ_DM_RECV_BASE@@XZ 0000000140029640 f i MainInstance.obj
 0001:00028680       ??1LockManager@KizuLib@@UEAA@XZ 0000000140029680 f i MainInstance.obj
 0001:000286b0       ??_GLockManager@KizuLib@@UEAAPEAXI@Z 00000001400296b0 f i MainInstance.obj
 0001:000286b0       ??_ELockManager@KizuLib@@UEAAPEAXI@Z 00000001400296b0 f i * CIL library *:* CIL module *
 0001:00028700       ??0MainInstance@@QEAA@XZ   0000000140029700 f   MainInstance.obj
 0001:00028a40       ??_GMainInstance@@UEAAPEAXI@Z 0000000140029a40 f i MainInstance.obj
 0001:00028a40       ??_EMainInstance@@UEAAPEAXI@Z 0000000140029a40 f i * CIL library *:* CIL module *
 0001:00028a80       ??1MainInstance@@UEAA@XZ   0000000140029a80 f   MainInstance.obj
 0001:00028e10       ?SetDeliveryMail@MainInstance@@QEAAXW4ENUM_MAININSTANCE@@PEAUCOMMON_QUE@@@Z 0000000140029e10 f   MainInstance.obj
 0001:00028f20       ?Init@MainInstance@@QEAAHXZ 0000000140029f20 f   MainInstance.obj
 0001:00029fd0       ?Exit@MainInstance@@QEAAXXZ 000000014002afd0 f   MainInstance.obj
 0001:0002a320       ?ThreadFirst@MainInstance@@EEAAHXZ 000000014002b320 f   MainInstance.obj
 0001:0002a750       ?ThreadEvent@MainInstance@@EEAAXH@Z 000000014002b750 f   MainInstance.obj
 0001:0002c180       ?DetectReStart@MainInstance@@QEAAXXZ 000000014002d180 f   MainInstance.obj
 0001:0002c360       ?DetectInitStart@MainInstance@@QEAAXPEAUCOMMON_QUE@@@Z 000000014002d360 f   MainInstance.obj
 0001:0002d100       ?WaitInit_Answer@MainInstance@@QEAAXPEAUCOMMON_QUE@@@Z 000000014002e100 f   MainInstance.obj
 0001:0002d3a0       ?DetectWaitStart@MainInstance@@QEAAXXZ 000000014002e3a0 f   MainInstance.obj
 0001:0002d700       ?WaitStart_Answer@MainInstance@@QEAAXPEAUCOMMON_QUE@@@Z 000000014002e700 f   MainInstance.obj
 0001:0002dae0       ?WaitStop_Answer@MainInstance@@QEAAXPEAUCOMMON_QUE@@@Z 000000014002eae0 f   MainInstance.obj
 0001:0002ddf0       ?WaitStart_TimeOut@MainInstance@@QEAAXXZ 000000014002edf0 f   MainInstance.obj
 0001:0002e070       ?DetectRun_Cancel@MainInstance@@QEAAXH@Z 000000014002f070 f   MainInstance.obj
 0001:0002e170       ?DetectRun@MainInstance@@QEAAXXZ 000000014002f170 f   MainInstance.obj
 0001:0002e720       ?DetectStop@MainInstance@@QEAAX_N@Z 000000014002f720 f   MainInstance.obj
 0001:0002ecf0       ?WaitInit_TimeOut@MainInstance@@QEAAXXZ 000000014002fcf0 f   MainInstance.obj
 0001:0002ee00       ?HT_StatAnswer@MainInstance@@QEAAXPEAUCOMMON_QUE@@@Z 000000014002fe00 f   MainInstance.obj
 0001:0002ef30       ?ChangeCoil_Ken@MainInstance@@QEAAXH@Z 000000014002ff30 f   MainInstance.obj
 0001:0002f3d0       ?WPD_KenBase@MainInstance@@AEAAXHPEAN@Z 00000001400303d0 f   MainInstance.obj
 0001:0002fba0       ?WPD_DspBase@MainInstance@@AEAAXXZ 0000000140030ba0 f   MainInstance.obj
 0001:0002fe50       ?SetPosition_CoilChange@MainInstance@@AEAAXKNNN@Z 0000000140030e50 f   MainInstance.obj
 0001:00030340       ?SetParam_NextCoilInfRecv@MainInstance@@AEAAXXZ 0000000140031340 f   MainInstance.obj
 0001:000306e0       ?Add_Synclock@MainInstance@@AEAAXPEAUCOMMON_QUE@@@Z 00000001400316e0 f   MainInstance.obj
 0001:00030890       ?Send_HtDefect_Param@MainInstance@@SAXHHHW4EM_DIV_HANTEI@@@Z 0000000140031890 f   MainInstance.obj
 0001:00030930       ?Send_HtDefect_Start@MainInstance@@QEAAXXZ 0000000140031930 f   MainInstance.obj
 0001:00030d00       ?Send_HtDefect_Stop@MainInstance@@AEAAXH@Z 0000000140031d00 f   MainInstance.obj
 0001:00030e20       ?Send_HtDefect_Pcinfo@MainInstance@@SAXPEAUTYPE_EPC_COIL@@@Z 0000000140031e20 f   MainInstance.obj
 0001:00030f20       ?Send_HtDefect_PcCanOk@MainInstance@@QEAAXXZ 0000000140031f20 f   MainInstance.obj
 0001:00030f70       ?Send_HtDefect_Status@MainInstance@@AEAAXXZ 0000000140031f70 f   MainInstance.obj
 0001:00030fe0       ?Send_HyDefect_MaeRead@MainInstance@@SAXPEBD@Z 0000000140031fe0 f   MainInstance.obj
 0001:00031040       ?Send_SoGamenn_MailStatus@MainInstance@@QEAAXXZ 0000000140032040 f   MainInstance.obj
 0001:00031130       ??1?$TrackingFrame@UTR_FRAME@@@KizuLib@@UEAA@XZ 0000000140032130 f i MainInstance.obj
 0001:000311b0       ?Alloc@?$TrackingFrame@UTR_FRAME@@@KizuLib@@QEAA_NH@Z 00000001400321b0 f i MainInstance.obj
 0001:00031260       ?DelAll@?$TrackingFrame@UTR_FRAME@@@KizuLib@@QEAAHH@Z 0000000140032260 f i MainInstance.obj
 0001:00031320       ??0?$ThreadQueue@UDELIVERY_MAIL@MainInstance@@@KizuLib@@QEAA@H@Z 0000000140032320 f i MainInstance.obj
 0001:000313d0       ??_E?$TrackingFrame@UTR_FRAME@@@KizuLib@@UEAAPEAXI@Z 00000001400323d0 f i * CIL library *:* CIL module *
 0001:000313d0       ??_G?$TrackingFrame@UTR_FRAME@@@KizuLib@@UEAAPEAXI@Z 00000001400323d0 f i MainInstance.obj
 0001:00031410       ??_E?$ThreadQueue@UDELIVERY_MAIL@MainInstance@@@KizuLib@@UEAAPEAXI@Z 0000000140032410 f i * CIL library *:* CIL module *
 0001:00031410       ??_G?$ThreadQueue@UDELIVERY_MAIL@MainInstance@@@KizuLib@@UEAAPEAXI@Z 0000000140032410 f i MainInstance.obj
 0001:000314a0       ??0?$list@UTR_FRAME@@V?$allocator@UTR_FRAME@@@std@@@std@@QEAA@XZ 00000001400324a0 f i MainInstance.obj
 0001:000314d0       ?push_front@?$deque@PEAUDeliveryDB@DbBaseManager@@V?$allocator@PEAUDeliveryDB@DbBaseManager@@@std@@@std@@QEAAXAEBQEAUDeliveryDB@DbBaseManager@@@Z 00000001400324d0 f i MainInstance.obj
 0001:000315a0       ?_Buynode0@?$_List_alloc@U?$_List_base_types@UTR_FRAME@@V?$allocator@UTR_FRAME@@@std@@@std@@@std@@QEAAPEAU?$_List_node@UTR_FRAME@@PEAX@2@PEAU32@0@Z 00000001400325a0 f i MainInstance.obj
 0001:000315f0       ?Free@?$ThreadQueue@UDELIVERY_MAIL@MainInstance@@@KizuLib@@QEAAXXZ 00000001400325f0 f i MainInstance.obj
 0001:00031670       ??_GMergeManager@@UEAAPEAXI@Z 0000000140032670 f i MergeManager.obj
 0001:00031670       ??_EMergeManager@@UEAAPEAXI@Z 0000000140032670 f i * CIL library *:* CIL module *
 0001:000316a0       ??1MergeManager@@UEAA@XZ   00000001400326a0 f   MergeManager.obj
 0001:000316b0       ?DoMerge@MergeManager@@QEAAXPEAHPEAUMergeInfo@1@@Z 00000001400326b0 f   MergeManager.obj
 0001:000318b0       ?CheckLap@MergeManager@@AEAANAEBUMergeInfo@1@0@Z 00000001400328b0 f   MergeManager.obj
 0001:00031aa0       ?Visit@MergeManager@@AEAAHHHPEAUMergeInfo@1@@Z 0000000140032aa0 f   MergeManager.obj
 0001:00031bd0       ??_EOpSendFunc@@UEAAPEAXI@Z 0000000140032bd0 f i * CIL library *:* CIL module *
 0001:00031bd0       ??_GOpSendFunc@@UEAAPEAXI@Z 0000000140032bd0 f i OpSendFunc.obj
 0001:00031c00       ??1OpSendFunc@@UEAA@XZ     0000000140032c00 f   OpSendFunc.obj
 0001:00031c10       ?SendOp_Status@OpSendFunc@@SAXXZ 0000000140032c10 f   OpSendFunc.obj
 0001:00031f30       ?SendOp_CoilInf_Ken@OpSendFunc@@SAXPEBUCOIL_INF@@@Z 0000000140032f30 f   OpSendFunc.obj
 0001:00032350       ?SendOp_CoilResult@OpSendFunc@@SAXPEBUCOIL_INF@@@Z 0000000140033350 f   OpSendFunc.obj
 0001:000325b0       ?SendOp_CoilInf_Dsp@OpSendFunc@@SAXPEBUCOIL_INF@@@Z 00000001400335b0 f   OpSendFunc.obj
 0001:000329e0       ?SendOp_Length@OpSendFunc@@SAXHH@Z 00000001400339e0 f   OpSendFunc.obj
 0001:00032d70       ?SendOp_CutInf@OpSendFunc@@SAXPEBDPEBUTO_SO_DATA_CUT@@@Z 0000000140033d70 f   OpSendFunc.obj
 0001:00032fd0       ?SendOp_AlarmData@OpSendFunc@@SAXPEBUALARME_OUTPUT@@@Z 0000000140033fd0 f   OpSendFunc.obj
 0001:000332f0       ?SendOp_PatoReset@OpSendFunc@@SAXPEBDHH@Z 00000001400342f0 f   OpSendFunc.obj
 0001:00033550       ?SendOp_DetectNum@OpSendFunc@@SAXPEBDHJJ@Z 0000000140034550 f   OpSendFunc.obj
 0001:000337c0       ?SendOp_ColRowData@OpSendFunc@@SAXHPEBUCOIL_INF@@JQEAUTYP_COLROW_BUF@@QEAY04U3@H@Z 00000001400347c0 f   OpSendFunc.obj
 0001:00033920       ?SendOp_ColRowData@OpSendFunc@@SAXHPEBUCOIL_INF@@PEAUTYP_COLROW_BUF@@@Z 0000000140034920 f   OpSendFunc.obj
 0001:00033d60       ?AddToTail@?$ThreadQueue@USOCK_BASE_HEAD@@@KizuLib@@QEAAHPEAUSOCK_BASE_HEAD@@HH@Z 0000000140034d60 f i OpSendFunc.obj
 0001:00033df0       ?AddToTail@?$ThreadQueue@USOCK_BASE_HEAD@@@KizuLib@@QEAAHPEAUSOCK_BASE_HEAD@@@Z 0000000140034df0 f i OpSendFunc.obj
 0001:00033df0       ?AddToTail@?$ThreadQueue@UTR_INF@TrackingList@@@KizuLib@@QEAAHPEAUTR_INF@TrackingList@@@Z 0000000140034df0 f i DefectLib:TrackingList.obj
 0001:00033f00       ??_GParamManager@@UEAAPEAXI@Z 0000000140034f00 f i ParamManager.obj
 0001:00033f00       ??_EParamManager@@UEAAPEAXI@Z 0000000140034f00 f i * CIL library *:* CIL module *
 0001:00033f40       ??1ParamManager@@UEAA@XZ   0000000140034f40 f   ParamManager.obj
 0001:00034010       ?ThreadEvent@ParamManager@@EEAAXH@Z 0000000140035010 f   ParamManager.obj
 0001:00034060       ?ExecParam@ParamManager@@AEAAXPEAUCOMMON_QUE@@@Z 0000000140035060 f   ParamManager.obj
 0001:00034810       ?Check_Output@ParamManager@@QEBA_NW4EM_OUTPUTFLG@1@JJJ@Z 0000000140035810 f   ParamManager.obj
 0001:00034a40       ?Check_Pall_Output@ParamManager@@QEBA_NW4EM_OUTPUT_PALLFLG@1@JJ_N@Z 0000000140035a40 f   ParamManager.obj
 0001:00034c10       ?ReadParam_All@ParamManager@@QEAA_NXZ 0000000140035c10 f   ParamManager.obj
 0001:00034cc0       ?Read_CommonMast@ParamManager@@QEAA_NXZ 0000000140035cc0 f   ParamManager.obj
 0001:000366f0       ?Read_TypeName@ParamManager@@QEAA_NXZ 00000001400376f0 f   ParamManager.obj
 0001:00036c80       ?Read_GradeName@ParamManager@@QEAA_NXZ 0000000140037c80 f   ParamManager.obj
 0001:00037170       ?Read_ScodeOutput@ParamManager@@QEAA_NXZ 0000000140038170 f   ParamManager.obj
 0001:000375b0       ?Read_PcodeOutput@ParamManager@@QEAA_NXZ 00000001400385b0 f   ParamManager.obj
 0001:00038be0       ?Read_PallOutput@ParamManager@@QEAA_NXZ 0000000140039be0 f   ParamManager.obj
 0001:000391d0       ?Read_Param_Common@ParamManager@@QEAA_NXZ 000000014003a1d0 f   ParamManager.obj
 0001:00039d70       ?Read_Param_CamSet@ParamManager@@QEAA_NXZ 000000014003ad70 f   ParamManager.obj
 0001:0003a250       ?Read_Param_Scode@ParamManager@@QEAA_NXZ 000000014003b250 f   ParamManager.obj
 0001:0003a630       ?Read_Param_Camset_Scode@ParamManager@@QEAA_NXZ 000000014003b630 f   ParamManager.obj
 0001:0003ab20       ?Read_Param_Camset_Angle@ParamManager@@QEAA_NXZ 000000014003bb20 f   ParamManager.obj
 0001:0003afa0       ?Read_Param_Camset_Angle_Scode@ParamManager@@QEAA_NXZ 000000014003bfa0 f   ParamManager.obj
 0001:0003b530       ?Read_HtGroupNum@ParamManager@@QEAA_NH@Z 000000014003c530 f   ParamManager.obj
 0001:0003b9b0       ??0?$ThreadQueue@UCOMMON_QUE@@@KizuLib@@QEAA@H@Z 000000014003c9b0 f i ParamManager.obj
 0001:0003ba60       ??_E?$ThreadQueue@UCOMMON_QUE@@@KizuLib@@UEAAPEAXI@Z 000000014003ca60 f i * CIL library *:* CIL module *
 0001:0003ba60       ??_G?$ThreadQueue@UCOMMON_QUE@@@KizuLib@@UEAAPEAXI@Z 000000014003ca60 f i ParamManager.obj
 0001:0003baf0       ?Free@?$ThreadQueue@UCOMMON_QUE@@@KizuLib@@QEAAXXZ 000000014003caf0 f i ParamManager.obj
 0001:0003bb70       ??0PlgManager@@QEAA@XZ     000000014003cb70 f   PlgManager.obj
 0001:0003be00       ??_GPlgManager@@UEAAPEAXI@Z 000000014003ce00 f i PlgManager.obj
 0001:0003be00       ??_EPlgManager@@UEAAPEAXI@Z 000000014003ce00 f i * CIL library *:* CIL module *
 0001:0003be40       ??1PlgManager@@UEAA@XZ     000000014003ce40 f   PlgManager.obj
 0001:0003bf50       ?ClearMember@PlgManager@@AEAAXXZ 000000014003cf50 f   PlgManager.obj
 0001:0003c020       ?CoilInit@PlgManager@@QEAAXXZ 000000014003d020 f   PlgManager.obj
 0001:0003c230       ?ThreadFirst@PlgManager@@EEAAHXZ 000000014003d230 f   PlgManager.obj
 0001:0003c390       ?ThreadLast@PlgManager@@EEAAHXZ 000000014003d390 f   PlgManager.obj
 0001:0003c3c0       ?ThreadEvent@PlgManager@@EEAAXH@Z 000000014003d3c0 f   PlgManager.obj
 0001:0003c900       ?SetUdp@PlgManager@@AEAAHHPEBDG@Z 000000014003d900 f   PlgManager.obj
 0001:0003c9b0       ?NextLength_Ken@PlgManager@@AEAAXPEBUSEQ_TYPE_DATA_FRAME@@@Z 000000014003d9b0 f   PlgManager.obj
 0001:0003d1e0       ?ExecCycle@PlgManager@@AEAAXXZ 000000014003e1e0 f   PlgManager.obj
 0001:0003d360       ?NextLength_Dsp@PlgManager@@AEAAXXZ 000000014003e360 f   PlgManager.obj
 0001:0003d600       ?NextLength_Dsp@PlgManager@@AEAAXN@Z 000000014003e600 f   PlgManager.obj
 0001:0003d9f0       ?CoilChange_Ken@PlgManager@@QEAAXH@Z 000000014003e9f0 f   PlgManager.obj
 0001:0003dd10       ?CoilChange_BaseDsp@PlgManager@@QEAAXXZ 000000014003ed10 f   PlgManager.obj
 0001:0003df20       ?CheckIntervalStatus@PlgManager@@AEAAXXZ 000000014003ef20 f   PlgManager.obj
 0001:0003e000       ?AddItem@?$TrackingFrame@UTR_FRAME@@@KizuLib@@QEAA_NHPEAUTR_FRAME@@@Z 000000014003f000 f i PlgManager.obj
 0001:0003e100       ??$_Buynode@AEBUTR_FRAME@@@?$_List_buy@UTR_FRAME@@V?$allocator@UTR_FRAME@@@std@@@std@@QEAAPEAU?$_List_node@UTR_FRAME@@PEAX@1@PEAU21@0AEBUTR_FRAME@@@Z 000000014003f100 f i PlgManager.obj
 0001:0003e140       ??0SeqFrameRecv@@QEAA@XZ   000000014003f140 f   SeqFrameRecv.obj
 0001:0003e310       ??_GSeqFrameRecv@@UEAAPEAXI@Z 000000014003f310 f i SeqFrameRecv.obj
 0001:0003e310       ??_ESeqFrameRecv@@UEAAPEAXI@Z 000000014003f310 f i * CIL library *:* CIL module *
 0001:0003e350       ??1SeqFrameRecv@@UEAA@XZ   000000014003f350 f   SeqFrameRecv.obj
 0001:0003e450       ?ThreadFirst@SeqFrameRecv@@EEAAHXZ 000000014003f450 f   SeqFrameRecv.obj
 0001:0003e500       ?ThreadLast@SeqFrameRecv@@EEAAHXZ 000000014003f500 f   SeqFrameRecv.obj
 0001:0003e520       ?ThreadEvent@SeqFrameRecv@@EEAAXH@Z 000000014003f520 f   SeqFrameRecv.obj
 0001:0003e6f0       ?RecvCheck@SeqFrameRecv@@AEAA_NXZ 000000014003f6f0 f   SeqFrameRecv.obj
 0001:0003e830       ?AddNewFrame@SeqFrameRecv@@AEAA_NXZ 000000014003f830 f   SeqFrameRecv.obj
 0001:0003eaf0       ?Recving@SeqFrameRecv@@AEAA_NXZ 000000014003faf0 f   SeqFrameRecv.obj
 0001:0003ec20       ?OnErr@SeqFrameRecv@@AEAAX_N@Z 000000014003fc20 f   SeqFrameRecv.obj
 0001:0003ec80       ?QueAllDelete@SeqFrameRecv@@AEAAXXZ 000000014003fc80 f   SeqFrameRecv.obj
 0001:0003ed10       ??0?$ThreadQueue@USEQ_TYPE_DATA_FRAME@@@KizuLib@@QEAA@H@Z 000000014003fd10 f i SeqFrameRecv.obj
 0001:0003edc0       ??_E?$ThreadQueue@USEQ_TYPE_DATA_FRAME@@@KizuLib@@UEAAPEAXI@Z 000000014003fdc0 f i * CIL library *:* CIL module *
 0001:0003edc0       ??_G?$ThreadQueue@USEQ_TYPE_DATA_FRAME@@@KizuLib@@UEAAPEAXI@Z 000000014003fdc0 f i SeqFrameRecv.obj
 0001:0003ee50       ?Free@?$ThreadQueue@UTR_INF@TrackingList@@@KizuLib@@QEAAXXZ 000000014003fe50 f i DefectLib:TrackingList.obj
 0001:0003ee50       ?Free@?$ThreadQueue@USEQ_TYPE_DATA_FRAME@@@KizuLib@@QEAAXXZ 000000014003fe50 f i SeqFrameRecv.obj
 0001:0003eed0       ?AtlThrowImpl@ATL@@YAXJ@Z  000000014003fed0 f i SeqFrameRecv.obj
 0001:0003eef0       ?_GetBaseClass@SListBox@@KAPEAUCRuntimeClass@@XZ 000000014003fef0 f   SListBox.obj
 0001:0003ef00       ?GetRuntimeClass@SListBox@@UEBAPEAUCRuntimeClass@@XZ 000000014003ff00 f   SListBox.obj
 0001:0003ef10       ??_GSListBox@@UEAAPEAXI@Z  000000014003ff10 f i SListBox.obj
 0001:0003ef10       ??_ESListBox@@UEAAPEAXI@Z  000000014003ff10 f i * CIL library *:* CIL module *
 0001:0003ef60       ??1SListBox@@UEAA@XZ       000000014003ff60 f   SListBox.obj
 0001:0003efe0       ?Dispose@SListBox@@IEAAXXZ 000000014003ffe0 f   SListBox.obj
 0001:0003f090       ?SyncButtons@SListBox@@QEAAXH@Z 0000000140040090 f   SListBox.obj
 0001:0003f2c0       ?OnPaint@SListBox@@IEAAXXZ 00000001400402c0 f   SListBox.obj
 0001:0003f3c0       ?OnClickButton@SListBox@@IEAAXI@Z 00000001400403c0 f   SListBox.obj
 0001:0003f480       ?GetMessageMap@SListBox@@MEBAPEBUAFX_MSGMAP@@XZ 0000000140040480 f   SListBox.obj
 0001:0003f490       ?push_back@?$vector@PEAVCButton@@V?$allocator@PEAVCButton@@@std@@@std@@QEAAXAEBQEAVCButton@@@Z 0000000140040490 f i SListBox.obj
 0001:0003f5f0       ?deallocate@?$_Wrap_alloc@V?$allocator@PEAVCButton@@@std@@@std@@QEAAXPEAPEAVCButton@@_K@Z 00000001400405f0 f i SListBox.obj
 0001:0003f670       ?_Reallocate@?$vector@PEAVCButton@@V?$allocator@PEAVCButton@@@std@@@std@@IEAAX_K@Z 0000000140040670 f i SListBox.obj
 0001:0003f700       ??_ECButton@@UEAAPEAXI@Z   0000000140040700 f i * CIL library *:* CIL module *
 0001:0003f700       ??_GCButton@@UEAAPEAXI@Z   0000000140040700 f i SListBox.obj
 0001:0003f750       ??_ECGdiObject@@UEAAPEAXI@Z 0000000140040750 f i * CIL library *:* CIL module *
 0001:0003f750       ??_GCGdiObject@@UEAAPEAXI@Z 0000000140040750 f i SListBox.obj
 0001:0003f7a0       ??3CObject@@SAXPEAX@Z      00000001400407a0 f i SListBox.obj
 0001:0003f7b0       ??1CGdiObject@@UEAA@XZ     00000001400407b0 f i SListBox.obj
 0001:0003f800       ??_GCFont@@UEAAPEAXI@Z     0000000140040800 f i SListBox.obj
 0001:0003f800       ??_ECFont@@UEAAPEAXI@Z     0000000140040800 f i * CIL library *:* CIL module *
 0001:0003f860       ??_ECListCtrl@@UEAAPEAXI@Z 0000000140040860 f i * CIL library *:* CIL module *
 0001:0003f860       ??_GCListCtrl@@UEAAPEAXI@Z 0000000140040860 f i SListBox.obj
 0001:0003f8b0       ?BeginModalState@CWnd@@UEAAXXZ 00000001400408b0 f i SListBox.obj
 0001:0003f8c0       ?EndModalState@CWnd@@UEAAXXZ 00000001400408c0 f i SListBox.obj
 0001:0003f8d0       ??0SogyoManager@@QEAA@PEBD@Z 00000001400408d0 f   SogyoManager.obj
 0001:0003f990       ??_ESogyoManager@@UEAAPEAXI@Z 0000000140040990 f i * CIL library *:* CIL module *
 0001:0003f990       ??_GSogyoManager@@UEAAPEAXI@Z 0000000140040990 f i SogyoManager.obj
 0001:0003f9d0       ??1SogyoManager@@UEAA@XZ   00000001400409d0 f   SogyoManager.obj
 0001:0003fa60       ?ThreadEvent@SogyoManager@@EEAAXH@Z 0000000140040a60 f   SogyoManager.obj
 0001:0003fab0       ?GetIniParam@SogyoManager@@QEAAXXZ 0000000140040ab0 f   SogyoManager.obj
 0001:0003fdc0       ?CheckStart@SogyoManager@@QEAAXK@Z 0000000140040dc0 f   SogyoManager.obj
 0001:0003ff10       ?CheckStop@SogyoManager@@QEAAXXZ 0000000140040f10 f   SogyoManager.obj
 0001:0003ffc0       ?SetNowSampCntDsp@SogyoManager@@QEAAXKN@Z 0000000140040fc0 f   SogyoManager.obj
 0001:00040030       ?CheckSampCntDiff@SogyoManager@@AEAAXXZ 0000000140041030 f   SogyoManager.obj
 0001:000402c0       ?CheckSampCntDiffDsp@SogyoManager@@AEAAXXZ 00000001400412c0 f   SogyoManager.obj
 0001:00040550       ?GetStatusInf@KikiManager@@QEAAXPEAUTYP_STATUS_INF@@H@Z 0000000140041550 f i StatusBaseManager.obj
 0001:00040600       ?GetStatusNow@KikiManager@@QEAAXPEAUTYP_STATUS_NOWSYSTEM@@@Z 0000000140041600 f i StatusBaseManager.obj
 0001:000406c0       ?OnMyErrWar@StatusBaseManager@@UEAA_NPEBUTYP_MY_ERRWAR_INF@1@@Z 00000001400416c0 f i StatusBaseManager.obj
 0001:000406d0       ??0StatusBaseManager@@QEAA@XZ 00000001400416d0 f   StatusBaseManager.obj
 0001:000407e0       ??_GStatusBaseManager@@UEAAPEAXI@Z 00000001400417e0 f i StatusBaseManager.obj
 0001:000407e0       ??_EStatusBaseManager@@UEAAPEAXI@Z 00000001400417e0 f i * CIL library *:* CIL module *
 0001:00040820       ??1StatusBaseManager@@UEAA@XZ 0000000140041820 f   StatusBaseManager.obj
 0001:00040920       ?ThreadFirst@StatusBaseManager@@MEAAHXZ 0000000140041920 f   StatusBaseManager.obj
 0001:000409f0       ?ThreadLast@StatusBaseManager@@MEAAHXZ 00000001400419f0 f   StatusBaseManager.obj
 0001:00040a60       ?ThreadEvent@StatusBaseManager@@MEAAXH@Z 0000000140041a60 f   StatusBaseManager.obj
 0001:00040a80       ?ReadKikiStatus@StatusBaseManager@@IEAAXXZ 0000000140041a80 f   StatusBaseManager.obj
 0001:000410d0       ?CheckStatusLog@StatusBaseManager@@IEAAXXZ 00000001400420d0 f   StatusBaseManager.obj
 0001:00041220       ?SetMenMode@StatusBaseManager@@QEAA_N_N@Z 0000000140042220 f   StatusBaseManager.obj
 0001:00041370       ?SetMenState@StatusBaseManager@@QEAA_NH@Z 0000000140042370 f   StatusBaseManager.obj
 0001:00041470       ?SetPlg@StatusBaseManager@@QEAA_NW4EM_DIV_PLG@@@Z 0000000140042470 f   StatusBaseManager.obj
 0001:000415e0       ?SetUnten@StatusBaseManager@@QEAA_NW4EM_DIV_UNTEN@@@Z 00000001400425e0 f   StatusBaseManager.obj
 0001:00041750       ?SetSogyo@StatusBaseManager@@QEAA_NW4EM_DIV_SOGYO@@H@Z 0000000140042750 f   StatusBaseManager.obj
 0001:000418d0       ?SetSogyoDsp@StatusBaseManager@@QEAA_NW4EM_DIV_SOGYO@@H@Z 00000001400428d0 f   StatusBaseManager.obj
 0001:00041a20       ?SetKadou@StatusBaseManager@@QEAA_NW4EM_DIV_KADOU@@@Z 0000000140042a20 f   StatusBaseManager.obj
 0001:00041bf0       ?SetSys@StatusBaseManager@@QEAA_NHW4EM_DIV_SYS@@@Z 0000000140042bf0 f   StatusBaseManager.obj
 0001:00041d90       ?SetParaSys@StatusBaseManager@@QEAA_NHW4EM_DIV_SYS@@@Z 0000000140042d90 f   StatusBaseManager.obj
 0001:00041f60       ?AddQueMyErrWar@StatusBaseManager@@UEAAX_NHHH@Z 0000000140042f60 f   StatusBaseManager.obj
 0001:00042010       ??0?$ThreadQueue@UTYP_MY_ERRWAR_INF@StatusBaseManager@@@KizuLib@@QEAA@H@Z 0000000140043010 f i StatusBaseManager.obj
 0001:000420c0       ??1?$ThreadQueue@UTYP_MY_ERRWAR_INF@StatusBaseManager@@@KizuLib@@UEAA@XZ 00000001400430c0 f i StatusBaseManager.obj
 0001:00042120       ??_G?$ThreadQueue@UTYP_MY_ERRWAR_INF@StatusBaseManager@@@KizuLib@@UEAAPEAXI@Z 0000000140043120 f i StatusBaseManager.obj
 0001:00042120       ??_E?$ThreadQueue@UTYP_MY_ERRWAR_INF@StatusBaseManager@@@KizuLib@@UEAAPEAXI@Z 0000000140043120 f i * CIL library *:* CIL module *
 0001:000421b0       ??_EStatusLogFunc@@UEAAPEAXI@Z 00000001400431b0 f i * CIL library *:* CIL module *
 0001:000421b0       ??_GStatusLogFunc@@UEAAPEAXI@Z 00000001400431b0 f i StatusLogFunc.obj
 0001:00042200       ?InitAutoNo@StatusLogFunc@@AEAAXXZ 0000000140043200 f   StatusLogFunc.obj
 0001:00042430       ?CheckStatusLog@StatusLogFunc@@QEAAXPEAUTYP_STATUS_LOG@1@@Z 0000000140043430 f   StatusLogFunc.obj
 0001:000427f0       ?AddToTailFreeCheck@?$ThreadQueue@UDELIVERY_DB@@@KizuLib@@QEAAHPEAUDELIVERY_DB@@H@Z 00000001400437f0 f i StatusLogFunc.obj
 0001:00042940       ??0StatusManager@@QEAA@XZ  0000000140043940 f   StatusManager.obj
 0001:00042b10       ??_GStatusManager@@UEAAPEAXI@Z 0000000140043b10 f i StatusManager.obj
 0001:00042b10       ??_EStatusManager@@UEAAPEAXI@Z 0000000140043b10 f i * CIL library *:* CIL module *
 0001:00042b70       ??1StatusManager@@UEAA@XZ  0000000140043b70 f   StatusManager.obj
 0001:00042bb0       ?ThreadFirst_AddHandle@StatusManager@@EEAAXXZ 0000000140043bb0 f   StatusManager.obj
 0001:00042c80       ?OnAddSignal@StatusManager@@EEAAXH@Z 0000000140043c80 f   StatusManager.obj
 0001:00042ca0       ?WriteStatus@StatusManager@@AEAAXXZ 0000000140043ca0 f   StatusManager.obj
 0001:000434d0       ?SogyoStatus_LedOnOff@StatusManager@@AEAAXXZ 00000001400444d0 f   StatusManager.obj
 0001:000438b0       ?OnReadKikiStatusEnd@StatusManager@@EEAAX_N@Z 00000001400448b0 f   StatusManager.obj
 0001:000438e0       ?OnMyErrWar@StatusManager@@UEAA_NPEBUTYP_MY_ERRWAR_INF@StatusBaseManager@@@Z 00000001400448e0 f   StatusManager.obj
 0001:00043a00       ?CheckCoilInfStatus@StatusManager@@AEAAXXZ 0000000140044a00 f   StatusManager.obj
 0001:00043c90       ?SelectHanteiPC_MultiGroup@StatusManager@@QEAA_NPEA_N@Z 0000000140044c90 f   StatusManager.obj
 0001:000448b0       ?SelectHanteiPC_ResumeGroup@StatusManager@@QEAA_NXZ 00000001400458b0 f   StatusManager.obj
 0001:00044d90       ?_AtlInitializeCriticalSectionEx@ATL@@YAHPEAU_RTL_CRITICAL_SECTION@@KK@Z 0000000140045d90 f i stdafx.obj
 0001:00044da0       ?GetOutputInfo@ToLinkswUtil@@SAXPEAVStatusManager@@PEAUTO_LINKSW_OUTPUT@1@@Z 0000000140045da0 f   ToLinkswUtil.obj
 0001:00044f80       ?GetDeterminedHanteiPC@ToLinkswUtil@@SAXPEAVStatusManager@@PEAUTO_LINKSW_OUTPUT@1@@Z 0000000140045f80 f   ToLinkswUtil.obj
 0001:00045080       ?GetHanteiGroup@ToLinkswUtil@@SAHHHH@Z 0000000140046080 f   ToLinkswUtil.obj
 0001:00045130       ?Send_ToCamera_Start@ToOutMailSender@@SAXW4EM_DIV_PLG@@@Z 0000000140046130 f   ToOutMailSender.obj
 0001:000451a0       ?Send_ToCamera_CoilChange@ToOutMailSender@@SAXHH@Z 00000001400461a0 f   ToOutMailSender.obj
 0001:00045220       ?Send_ToLinksw_ChangeCam@ToOutMailSender@@SAXHHHH@Z 0000000140046220 f   ToOutMailSender.obj
 0001:000452c0       ?Send_KtLedMgr_CoilChange@ToOutMailSender@@SAXHHH@Z 00000001400462c0 f   ToOutMailSender.obj
 0001:00045350       ?Send_KtLedMgr_ValChange@ToOutMailSender@@SAXHHHH@Z 0000000140046350 f   ToOutMailSender.obj
 0001:000453f0       ?Send_KtLedMgr_OnOff@ToOutMailSender@@SAXHHH@Z 00000001400463f0 f   ToOutMailSender.obj
 0001:00045480       ?GetMessageMap@CTO_DEFECTApp@@MEBAPEBUAFX_MSGMAP@@XZ 0000000140046480 f   TO_DEFECT.obj
 0001:00045490       ??_GCTO_DEFECTApp@@UEAAPEAXI@Z 0000000140046490 f i TO_DEFECT.obj
 0001:00045490       ??_ECTO_DEFECTApp@@UEAAPEAXI@Z 0000000140046490 f i * CIL library *:* CIL module *
 0001:000454e0       ?InitInstance@CTO_DEFECTApp@@UEAAHXZ 00000001400464e0 f   TO_DEFECT.obj
 0001:000455f0       ??1CTO_DEFECTDlg@@UEAA@XZ  00000001400465f0 f i TO_DEFECT.obj
 0001:00045750       ??1CDialogEx@@UEAA@XZ      0000000140046750 f i TO_DEFECT.obj
 0001:00045790       ?GetApplicationRecoveryPingInterval@CWinApp@@UEAAKXZ 0000000140046790 f i TO_DEFECT.obj
 0001:000457a0       ?RestoreAutosavedFilesAtRestart@CWinApp@@UEBAHXZ 00000001400467a0 f i TO_DEFECT.obj
 0001:000457b0       ?ReopenPreviousFilesAtRestart@CWinApp@@UEBAHXZ 00000001400467b0 f i TO_DEFECT.obj
 0001:000457c0       ?SupportsAutosaveAtInterval@CWinApp@@UEBAHXZ 00000001400467c0 f i TO_DEFECT.obj
 0001:000457d0       ?SupportsAutosaveAtRestart@CWinApp@@UEBAHXZ 00000001400467d0 f i TO_DEFECT.obj
 0001:000457e0       ?SupportsApplicationRecovery@CWinApp@@UEBAHXZ 00000001400467e0 f i TO_DEFECT.obj
 0001:000457f0       ?SupportsRestartManager@CWinApp@@UEBAHXZ 00000001400467f0 f i TO_DEFECT.obj
 0001:00045800       ??_GCBrush@@UEAAPEAXI@Z    0000000140046800 f i TO_DEFECT.obj
 0001:00045800       ??_ECBrush@@UEAAPEAXI@Z    0000000140046800 f i * CIL library *:* CIL module *
 0001:00045860       ?GetDivPlg@DivNameManager@KizuLib@@SA?AV?$CStringT@DV?$StrTraitMFC_DLL@DV?$ChTraitsCRT@D@ATL@@@@@ATL@@H@Z 0000000140046860 f i TO_DEFECTDlg.obj
 0001:00045880       ?GetDivUnten@DivNameManager@KizuLib@@SA?AV?$CStringT@DV?$StrTraitMFC_DLL@DV?$ChTraitsCRT@D@ATL@@@@@ATL@@H@Z 0000000140046880 f i TO_DEFECTDlg.obj
 0001:000458a0       ?GetDivCamSet@DivNameManager@KizuLib@@SA?AV?$CStringT@DV?$StrTraitMFC_DLL@DV?$ChTraitsCRT@D@ATL@@@@@ATL@@H@Z 00000001400468a0 f i TO_DEFECTDlg.obj
 0001:00045c00       ??0CTO_DEFECTDlg@@QEAA@PEAVCWnd@@@Z 0000000140046c00 f   TO_DEFECTDlg.obj
 0001:00045ef0       ??_GCTO_DEFECTDlg@@UEAAPEAXI@Z 0000000140046ef0 f i TO_DEFECTDlg.obj
 0001:00045ef0       ??_ECTO_DEFECTDlg@@UEAAPEAXI@Z 0000000140046ef0 f i * CIL library *:* CIL module *
 0001:00045f40       ?DoDataExchange@CTO_DEFECTDlg@@MEAAXPEAVCDataExchange@@@Z 0000000140046f40 f   TO_DEFECTDlg.obj
 0001:00046120       ?GetMessageMap@CTO_DEFECTDlg@@MEBAPEBUAFX_MSGMAP@@XZ 0000000140047120 f   TO_DEFECTDlg.obj
 0001:00046130       ?OnInitDialog@CTO_DEFECTDlg@@MEAAHXZ 0000000140047130 f   TO_DEFECTDlg.obj
 0001:00046660       ?OnPaint@CTO_DEFECTDlg@@IEAAXXZ 0000000140047660 f   TO_DEFECTDlg.obj
 0001:00046770       ?OnQueryDragIcon@CTO_DEFECTDlg@@IEAAPEAUHICON__@@XZ 0000000140047770 f   TO_DEFECTDlg.obj
 0001:00046780       ?OnBnClickedOk@CTO_DEFECTDlg@@QEAAXXZ 0000000140047780 f   TO_DEFECTDlg.obj
 0001:00046810       ?OnLbnDblclkList1@CTO_DEFECTDlg@@QEAAXXZ 0000000140047810 f   TO_DEFECTDlg.obj
 0001:00046820       ?InitProcess@CTO_DEFECTDlg@@AEAAXXZ 0000000140047820 f   TO_DEFECTDlg.obj
 0001:0004a620       ?ExitProcess@CTO_DEFECTDlg@@AEAAXXZ 000000014004b620 f   TO_DEFECTDlg.obj
 0001:0004a9e0       ?MainThread@CTO_DEFECTDlg@@CAIPEAX@Z 000000014004b9e0 f   TO_DEFECTDlg.obj
 0001:0004b440       ?OnTimer@CTO_DEFECTDlg@@QEAAX_K@Z 000000014004c440 f   TO_DEFECTDlg.obj
 0001:0004e5d0       ?OnNMClickListCmd@CTO_DEFECTDlg@@QEAAXPEAUtagNMHDR@@PEA_J@Z 000000014004f5d0 f   TO_DEFECTDlg.obj
 0001:0004f100       ?OnNMClickListInput@CTO_DEFECTDlg@@QEAAXPEAUtagNMHDR@@PEA_J@Z 0000000140050100 f   TO_DEFECTDlg.obj
 0001:0004f4c0       ?OnBnClickedDebugLedonoff@CTO_DEFECTDlg@@QEAAXXZ 00000001400504c0 f   TO_DEFECTDlg.obj
 0001:0004f530       ?DummyCoilCreate@CTO_DEFECTDlg@@AEAAXH@Z 0000000140050530 f   TO_DEFECTDlg.obj
 0001:0004f890       ?Create@CDialog@@UEAAHIPEAVCWnd@@@Z 0000000140050890 f i TO_DEFECTDlg.obj
 0001:0004f8a0       ??_GCListBox@@UEAAPEAXI@Z  00000001400508a0 f i TO_DEFECTDlg.obj
 0001:0004f8a0       ??_ECListBox@@UEAAPEAXI@Z  00000001400508a0 f i * CIL library *:* CIL module *
 0001:0004f8f0       ??0KikiManager@@QEAA@HPEBD0@Z 00000001400508f0 f   DefectLib:KikiManager.obj
 0001:0004fb00       ??_GKikiManager@@UEAAPEAXI@Z 0000000140050b00 f i DefectLib:KikiManager.obj
 0001:0004fb00       ??_EKikiManager@@UEAAPEAXI@Z 0000000140050b00 f i * CIL library *:* CIL module *
 0001:0004fb40       ??1KikiManager@@UEAA@XZ    0000000140050b40 f   DefectLib:KikiManager.obj
 0001:0004fc60       ?MainThread@KikiManager@@CAIPEAX@Z 0000000140050c60 f   DefectLib:KikiManager.obj
 0001:0004fea0       ?ConnectDB@KikiManager@@AEAA_N_N@Z 0000000140050ea0 f   DefectLib:KikiManager.obj
 0001:0004ff90       ?CheckStatus@KikiManager@@QEAA_NXZ 0000000140050f90 f   DefectLib:KikiManager.obj
 0001:00050c10       ?GetLogInfo@KikiManager@@AEAAXPEAUTYP_STATUS_NOWSYSTEM@@@Z 0000000140051c10 f   DefectLib:KikiManager.obj
 0001:00051110       ?SetStatusQue@KikiManager@@QEAAXHH_NPEBD@Z 0000000140052110 f   DefectLib:KikiManager.obj
 0001:00051200       ?SetStatusThread@KikiManager@@AEAA_NPEAUDELIVERYSTATUS@1@@Z 0000000140052200 f   DefectLib:KikiManager.obj
 0001:000513d0       ??HATL@@YA?AV?$CStringT@DV?$StrTraitMFC_DLL@DV?$ChTraitsCRT@D@ATL@@@@@0@PEBDAEBV10@@Z 00000001400523d0 f i DefectLib:KikiManager.obj
 0001:00051450       ??0?$ThreadQueue@UDELIVERYSTATUS@KikiManager@@@KizuLib@@QEAA@H@Z 0000000140052450 f i DefectLib:KikiManager.obj
 0001:00051500       ??1?$ThreadQueue@UDELIVERYSTATUS@KikiManager@@@KizuLib@@UEAA@XZ 0000000140052500 f i DefectLib:KikiManager.obj
 0001:00051560       ??_E?$ThreadQueue@UDELIVERYSTATUS@KikiManager@@@KizuLib@@UEAAPEAXI@Z 0000000140052560 f i * CIL library *:* CIL module *
 0001:00051560       ??_G?$ThreadQueue@UDELIVERYSTATUS@KikiManager@@@KizuLib@@UEAAPEAXI@Z 0000000140052560 f i DefectLib:KikiManager.obj
 0001:000515f0       ?Free@?$ThreadQueue@UDELIVERYSTATUS@KikiManager@@@KizuLib@@QEAAXXZ 00000001400525f0 f i DefectLib:KikiManager.obj
 0001:00051680       ??0KizuLjtJpegManager@KizuLib@@QEAA@XZ 0000000140052680 f   DefectLib:KizuLjtJpegManager.obj
 0001:00051770       ?BmpToJpeg@KizuLjtJpegManager@KizuLib@@QEAAHHHPEBEHPEAHPEAE_N@Z 0000000140052770 f   DefectLib:KizuLjtJpegManager.obj
 0001:00051830       ??0DBSaveManager@@QEAA@HPEAV?$ThreadQueue@UDELIVERYSQL@DBSaveManager@@@KizuLib@@@Z 0000000140052830 f   DefectLib:DBSaveManager.obj
 0001:000519d0       ??_GDBSaveManager@@UEAAPEAXI@Z 00000001400529d0 f i DefectLib:DBSaveManager.obj
 0001:000519d0       ??_EDBSaveManager@@UEAAPEAXI@Z 00000001400529d0 f i * CIL library *:* CIL module *
 0001:00051a10       ??1DBSaveManager@@UEAA@XZ  0000000140052a10 f   DefectLib:DBSaveManager.obj
 0001:00051ae0       ?MainThread@DBSaveManager@@CAIPEAX@Z 0000000140052ae0 f   DefectLib:DBSaveManager.obj
 0001:00051fe0       ?Send_To_DbManage@DBSaveManager@@AEAAXXZ 0000000140052fe0 f   DefectLib:DBSaveManager.obj
 0001:00052070       ?sqlExecute@DBSaveManager@@AEAAXPEAUDELIVERYSQL@1@@Z 0000000140053070 f   DefectLib:DBSaveManager.obj
 0001:00052490       ?ConnectDB@DBSaveManager@@AEAA_N_N@Z 0000000140053490 f   DefectLib:DBSaveManager.obj
 0001:00052610       ??0KizuHtRecv@@QEAA@PEBDHHHH@Z 0000000140053610 f   DefectLib:KizuHtRecv.obj
 0001:00052810       ??_EKizuHtRecv@@UEAAPEAXI@Z 0000000140053810 f i * CIL library *:* CIL module *
 0001:00052810       ??_GKizuHtRecv@@UEAAPEAXI@Z 0000000140053810 f i DefectLib:KizuHtRecv.obj
 0001:00052850       ??1KizuHtRecv@@UEAA@XZ     0000000140053850 f   DefectLib:KizuHtRecv.obj
 0001:00052960       ?RecvAllHeader@KizuHtRecv@@MEAAHXZ 0000000140053960 f   DefectLib:KizuHtRecv.obj
 0001:00052ac0       ?AnsHeader@KizuHtRecv@@MEAAHH@Z 0000000140053ac0 f   DefectLib:KizuHtRecv.obj
 0001:00052d10       ?AnsData@KizuHtRecv@@MEAAHH@Z 0000000140053d10 f   DefectLib:KizuHtRecv.obj
 0001:00052dd0       ?AnsInitializeSocket@KizuHtRecv@@MEAAHH@Z 0000000140053dd0 f   DefectLib:KizuHtRecv.obj
 0001:000530a0       ?DefectStart@KizuHtRecv@@MEAAXXZ 00000001400540a0 f   DefectLib:KizuHtRecv.obj
 0001:00053130       ?DefectStop@KizuHtRecv@@MEAAXXZ 0000000140054130 f   DefectLib:KizuHtRecv.obj
 0001:00053140       ?CheckFrameNo@KizuHtRecv@@MEAAHKHH@Z 0000000140054140 f   DefectLib:KizuHtRecv.obj
 0001:00053270       ?CheckAllReadEnd@KizuHtRecv@@MEAAHXZ 0000000140054270 f   DefectLib:KizuHtRecv.obj
 0001:000532b0       ?Reset@KizuHtRecv@@IEAAXXZ 00000001400542b0 f   DefectLib:KizuHtRecv.obj
 0001:000533b0       ?Listen@KizuHtRecv@@IEAAH_N@Z 00000001400543b0 f   DefectLib:KizuHtRecv.obj
 0001:000534f0       ?Accept@KizuHtRecv@@IEAAHXZ 00000001400544f0 f   DefectLib:KizuHtRecv.obj
 0001:00053620       ?CloseAll@KizuHtRecv@@IEAAX_N@Z 0000000140054620 f   DefectLib:KizuHtRecv.obj
 0001:000536e0       ?RecvHeaderInitialize@KizuHtRecv@@IEAAHH@Z 00000001400546e0 f   DefectLib:KizuHtRecv.obj
 0001:00053810       ?RecvHeaderDefect@KizuHtRecv@@MEAAHH@Z 0000000140054810 f   DefectLib:KizuHtRecv.obj
 0001:00053900       ?RecvDataDefect@KizuHtRecv@@IEAAHHH@Z 0000000140054900 f   DefectLib:KizuHtRecv.obj
 0001:00053a70       ??0Tracking@@QEAA@KPEBNQEAPEAX1@Z 0000000140054a70 f   DefectLib:Tracking.obj
 0001:00053b40       ??_GTracking@@UEAAPEAXI@Z  0000000140054b40 f i DefectLib:Tracking.obj
 0001:00053b40       ??_ETracking@@UEAAPEAXI@Z  0000000140054b40 f i * CIL library *:* CIL module *
 0001:00053bb0       ?TrackingStart@Tracking@@QEAAHXZ 0000000140054bb0 f   DefectLib:Tracking.obj
 0001:00053c40       ?MainThread@Tracking@@CAIPEAX@Z 0000000140054c40 f   DefectLib:Tracking.obj
 0001:00053d40       ??0KizuOpSend@@QEAA@PEBD@Z 0000000140054d40 f   DefectLib:KizuOpSend.obj
 0001:00053e40       ??_GKizuOpSend@@UEAAPEAXI@Z 0000000140054e40 f i DefectLib:KizuOpSend.obj
 0001:00053e40       ??_EKizuOpSend@@UEAAPEAXI@Z 0000000140054e40 f i * CIL library *:* CIL module *
 0001:00053e80       ??1KizuOpSend@@UEAA@XZ     0000000140054e80 f   DefectLib:KizuOpSend.obj
 0001:00053f70       ?QueBufFree@KizuOpSend@@IEAAXXZ 0000000140054f70 f   DefectLib:KizuOpSend.obj
 0001:00053fe0       ?QueAllFree@KizuOpSend@@IEAAXXZ 0000000140054fe0 f   DefectLib:KizuOpSend.obj
 0001:000540b0       ?MainThread@KizuOpSend@@KAIPEAX@Z 00000001400550b0 f   DefectLib:KizuOpSend.obj
 0001:00054560       ?SendHelcy@KizuOpSend@@IEAAXXZ 0000000140055560 f   DefectLib:KizuOpSend.obj
 0001:00054670       ?Listen@KizuOpSend@@IEAAH_N@Z 0000000140055670 f   DefectLib:KizuOpSend.obj
 0001:000547a0       ?Close@KizuOpSend@@IEAAXH@Z 00000001400557a0 f   DefectLib:KizuOpSend.obj
 0001:00054860       ?Send@KizuOpSend@@IEAAHXZ  0000000140055860 f   DefectLib:KizuOpSend.obj
 0001:00054a20       ??0?$ThreadQueue@USOCK_BASE_HEAD@@@KizuLib@@QEAA@H@Z 0000000140055a20 f i DefectLib:KizuOpSend.obj
 0001:00054ad0       ??1?$ThreadQueue@USOCK_BASE_HEAD@@@KizuLib@@UEAA@XZ 0000000140055ad0 f i DefectLib:KizuOpSend.obj
 0001:00054b30       ??_E?$ThreadQueue@USOCK_BASE_HEAD@@@KizuLib@@UEAAPEAXI@Z 0000000140055b30 f i * CIL library *:* CIL module *
 0001:00054b30       ??_G?$ThreadQueue@USOCK_BASE_HEAD@@@KizuLib@@UEAAPEAXI@Z 0000000140055b30 f i DefectLib:KizuOpSend.obj
 0001:00054bc0       ?Free@?$ThreadQueue@USOCK_BASE_HEAD@@@KizuLib@@QEAAXXZ 0000000140055bc0 f i DefectLib:KizuOpSend.obj
 0001:00054c40       ??0TrackingList@@QEAA@PEBN@Z 0000000140055c40 f   DefectLib:TrackingList.obj
 0001:00054cf0       ??_ETrackingList@@UEAAPEAXI@Z 0000000140055cf0 f i * CIL library *:* CIL module *
 0001:00054cf0       ??_GTrackingList@@UEAAPEAXI@Z 0000000140055cf0 f i DefectLib:TrackingList.obj
 0001:00054d30       ??1TrackingList@@UEAA@XZ   0000000140055d30 f   DefectLib:TrackingList.obj
 0001:00054e20       ?TrackingStop@TrackingList@@QEAAXXZ 0000000140055e20 f   DefectLib:TrackingList.obj
 0001:00054f30       ?QueAllFree@TrackingList@@QEAAXXZ 0000000140055f30 f   DefectLib:TrackingList.obj
 0001:00055010       ?_Buynode0@?$_List_alloc@U?$_List_base_types@PEAUTR_INF@TrackingList@@V?$allocator@PEAUTR_INF@TrackingList@@@std@@@std@@@std@@QEAAPEAU?$_List_node@PEAUTR_INF@TrackingList@@PEAX@2@PEAU32@0@Z 0000000140056010 f i DefectLib:TrackingList.obj
 0001:00055040       ??0?$ThreadQueue@UTR_INF@TrackingList@@@KizuLib@@QEAA@H@Z 0000000140056040 f i DefectLib:TrackingList.obj
 0001:000550f0       ??1?$ThreadQueue@UTR_INF@TrackingList@@@KizuLib@@UEAA@XZ 00000001400560f0 f i DefectLib:TrackingList.obj
 0001:00055150       ??_G?$ThreadQueue@UTR_INF@TrackingList@@@KizuLib@@UEAAPEAXI@Z 0000000140056150 f i DefectLib:TrackingList.obj
 0001:00055150       ??_E?$ThreadQueue@UTR_INF@TrackingList@@@KizuLib@@UEAAPEAXI@Z 0000000140056150 f i * CIL library *:* CIL module *
 0001:000551e0       ??_EOdbcManager@KizuODBC@@UEAAPEAXI@Z 00000001400561e0 f i * CIL library *:* CIL module *
 0001:000551e0       ??_EBCPManager@KizuODBC@@UEAAPEAXI@Z 00000001400561e0 f i * CIL library *:* CIL module *
 0001:000551e0       ??_GOdbcManager@KizuODBC@@UEAAPEAXI@Z 00000001400561e0 f i KizuODBC:OdbcManager.obj
 0001:000551e0       ??_GBCPManager@KizuODBC@@UEAAPEAXI@Z 00000001400561e0 f i KizuBCP:BCPManager.obj
 0001:00055270       ?Connect@BCPManager@KizuODBC@@QEAAHPEBD0@Z 0000000140056270 f   KizuBCP:BCPManager.obj
 0001:00055370       ?Connect@BCPManager@KizuODBC@@QEAAHPEBD00@Z 0000000140056370 f   KizuBCP:BCPManager.obj
 0001:00055500       ??0ThreadManager@@QEAA@PEBDH@Z 0000000140056500 f   KizuLibMFC:ThreadManager.obj
 0001:000555e0       ??_EThreadManager@@UEAAPEAXI@Z 00000001400565e0 f i * CIL library *:* CIL module *
 0001:000555e0       ??_GThreadManager@@UEAAPEAXI@Z 00000001400565e0 f i KizuLibMFC:ThreadManager.obj
 0001:00055660       ?MainThread@ThreadManager@@KAIPEAX@Z 0000000140056660 f   KizuLibMFC:ThreadManager.obj
 0001:000556a0       ?ThreadMainLoop@ThreadManager@@MEAAHXZ 00000001400566a0 f   KizuLibMFC:ThreadManager.obj
 0001:000557a0       ?GetNowLogPath@LogFileManager@KizuLib@@QEAA?AV?$CStringT@DV?$StrTraitMFC_DLL@DV?$ChTraitsCRT@D@ATL@@@@@ATL@@XZ 00000001400567a0 f i KizuLibMFC:LogFileManager.obj
 0001:000557d0       ??0LogFileManager@KizuLib@@QEAA@PEBDPEAVCListBox@@HH@Z 00000001400567d0 f   KizuLibMFC:LogFileManager.obj
 0001:00055ba0       ??_GLogFileManager@KizuLib@@UEAAPEAXI@Z 0000000140056ba0 f i KizuLibMFC:LogFileManager.obj
 0001:00055ba0       ??_ELogFileManager@KizuLib@@UEAAPEAXI@Z 0000000140056ba0 f i * CIL library *:* CIL module *
 0001:00055be0       ??1LogFileManager@KizuLib@@UEAA@XZ 0000000140056be0 f   KizuLibMFC:LogFileManager.obj
 0001:00055d60       ?Write@LogFileManager@KizuLib@@QEAAXW4LNO@12@PEBDZZ 0000000140056d60 f   KizuLibMFC:LogFileManager.obj
 0001:00056020       ?WriteFile@LogFileManager@KizuLib@@QEAAXPEBD@Z 0000000140057020 f   KizuLibMFC:LogFileManager.obj
 0001:000561a0       ?WriteList@LogFileManager@KizuLib@@AEAAXPEBD@Z 00000001400571a0 f   KizuLibMFC:LogFileManager.obj
 0001:00056290       ?AllGetQueue@LogFileManager@KizuLib@@QEAAHXZ 0000000140057290 f   KizuLibMFC:LogFileManager.obj
 0001:00056330       ?ShowEdit@LogFileManager@KizuLib@@QEAAXXZ 0000000140057330 f   KizuLibMFC:LogFileManager.obj
 0001:00056410       ?MainThread@LogFileManager@KizuLib@@CAIPEAX@Z 0000000140057410 f   KizuLibMFC:LogFileManager.obj
 0001:00056510       ??0?$ThreadQueue@D@KizuLib@@QEAA@H@Z 0000000140057510 f i KizuLibMFC:LogFileManager.obj
 0001:000565c0       ??1?$ThreadQueue@D@KizuLib@@UEAA@XZ 00000001400575c0 f i KizuLibMFC:LogFileManager.obj
 0001:00056620       ?Free@?$ThreadQueue@D@KizuLib@@QEAAXXZ 0000000140057620 f i KizuLibMFC:LogFileManager.obj
 0001:000566a0       ??_G?$ThreadQueue@D@KizuLib@@UEAAPEAXI@Z 00000001400576a0 f i KizuLibMFC:LogFileManager.obj
 0001:000566a0       ??_E?$ThreadQueue@D@KizuLib@@UEAAPEAXI@Z 00000001400576a0 f i * CIL library *:* CIL module *
 0001:00056730       ?sqlColumnInsert@CreateSQL@KizuLib@@SAXPEAV?$CStringT@DV?$StrTraitMFC_DLL@DV?$ChTraitsCRT@D@ATL@@@@@ATL@@PEBDH@Z 0000000140057730 f   KizuLibMFC:CreateSQL.obj
 0001:000567f0       ?sqlColumnUpdate@CreateSQL@KizuLib@@SAXPEAV?$CStringT@DV?$StrTraitMFC_DLL@DV?$ChTraitsCRT@D@ATL@@@@@ATL@@PEBD1H@Z 00000001400577f0 f   KizuLibMFC:CreateSQL.obj
 0001:000568b0       ?Format@CTime@ATL@@QEBA?AV?$CStringT@DV?$StrTraitMFC_DLL@DV?$ChTraitsCRT@D@ATL@@@@@2@PEBD@Z 00000001400578b0 f i KizuLibMFC:CreateSQL.obj
 0001:00056960       ?GetDivBool@DivNameManager@KizuLib@@SA?AV?$CStringT@DV?$StrTraitMFC_DLL@DV?$ChTraitsCRT@D@ATL@@@@@ATL@@W4EM_DIV_BOOL@@@Z 0000000140057960 f   KizuLibMFC:DivNameManager.obj
 0001:00056a10       ?GetDivPlg@DivNameManager@KizuLib@@SA?AV?$CStringT@DV?$StrTraitMFC_DLL@DV?$ChTraitsCRT@D@ATL@@@@@ATL@@W4EM_DIV_PLG@@@Z 0000000140057a10 f   KizuLibMFC:DivNameManager.obj
 0001:00056ac0       ?GetDivUnten@DivNameManager@KizuLib@@SA?AV?$CStringT@DV?$StrTraitMFC_DLL@DV?$ChTraitsCRT@D@ATL@@@@@ATL@@W4EM_DIV_UNTEN@@@Z 0000000140057ac0 f   KizuLibMFC:DivNameManager.obj
 0001:00056b80       ?GetDivSogyo@DivNameManager@KizuLib@@SA?AV?$CStringT@DV?$StrTraitMFC_DLL@DV?$ChTraitsCRT@D@ATL@@@@@ATL@@W4EM_DIV_SOGYO@@@Z 0000000140057b80 f   KizuLibMFC:DivNameManager.obj
 0001:00056c30       ?GetDivKadou@DivNameManager@KizuLib@@SA?AV?$CStringT@DV?$StrTraitMFC_DLL@DV?$ChTraitsCRT@D@ATL@@@@@ATL@@W4EM_DIV_KADOU@@@Z 0000000140057c30 f   KizuLibMFC:DivNameManager.obj
 0001:00056ce0       ?GetDivKensa@DivNameManager@KizuLib@@SA?AV?$CStringT@DV?$StrTraitMFC_DLL@DV?$ChTraitsCRT@D@ATL@@@@@ATL@@W4EM_DIV_KENSA@@@Z 0000000140057ce0 f   KizuLibMFC:DivNameManager.obj
 0001:00056e00       ?GetDivKiki@DivNameManager@KizuLib@@SA?AV?$CStringT@DV?$StrTraitMFC_DLL@DV?$ChTraitsCRT@D@ATL@@@@@ATL@@W4EM_DIV_KIKI@@@Z 0000000140057e00 f   KizuLibMFC:DivNameManager.obj
 0001:00056e90       ?GetDivCamSet@DivNameManager@KizuLib@@SA?AV?$CStringT@DV?$StrTraitMFC_DLL@DV?$ChTraitsCRT@D@ATL@@@@@ATL@@W4EM_DIV_CAMSET@@@Z 0000000140057e90 f   KizuLibMFC:DivNameManager.obj
 0001:000570d0       ??_EDspListView@KizuLib@@UEAAPEAXI@Z 00000001400580d0 f i * CIL library *:* CIL module *
 0001:000570d0       ??_GDspListView@KizuLib@@UEAAPEAXI@Z 00000001400580d0 f i KizuLibMFC:DspListView.obj
 0001:00057100       ??_EWorkThread@KizuLib@@UEAAPEAXI@Z 0000000140058100 f i * CIL library *:* CIL module *
 0001:00057100       ??_GWorkThread@KizuLib@@UEAAPEAXI@Z 0000000140058100 f i KizuLib:WorkThread.obj
 0001:00057150       ??1WorkThread@KizuLib@@UEAA@XZ 0000000140058150 f   KizuLib:WorkThread.obj
 0001:00057170       ?MainThread@WorkThread@KizuLib@@MEAAIXZ 0000000140058170 f   KizuLib:WorkThread.obj
 0001:00057180       ?Stop@WorkThread@KizuLib@@QEAAXXZ 0000000140058180 f   KizuLib:WorkThread.obj
 0001:000571f0       ?SetThreadName@WorkThread@KizuLib@@SAXPEBDK@Z 00000001400581f0 f   KizuLib:WorkThread.obj
 0001:00057230       ??_GKizuPerformanceCounter@KizuLib@@UEAAPEAXI@Z 0000000140058230 f i KizuLib:KizuPerformanceCounter.obj
 0001:00057230       ??_EKizuPerformanceCounter@KizuLib@@UEAAPEAXI@Z 0000000140058230 f i * CIL library *:* CIL module *
 0001:00057260       ??1KizuPerformanceCounter@KizuLib@@UEAA@XZ 0000000140058260 f   KizuLib:KizuPerformanceCounter.obj
 0001:00057270       ?CounterEnd@KizuPerformanceCounter@KizuLib@@QEAAXXZ 0000000140058270 f   KizuLib:KizuPerformanceCounter.obj
 0001:00057310       ?CounterCycle@KizuPerformanceCounter@KizuLib@@QEAAXXZ 0000000140058310 f   KizuLib:KizuPerformanceCounter.obj
 0001:000573b0       ?SetStatus@KizuFunction@KizuLib@@SA_NPEBDHH_N0@Z 00000001400583b0 f   KizuLib:KizuFunction.obj
 0001:00057460       ?SetStatus@KizuFunction@KizuLib@@SA_NHH_NPEBD@Z 0000000140058460 f   KizuLib:KizuFunction.obj
 0001:000576d0       ?GetKizukenNo@KizuFunction@KizuLib@@SAXPEAD@Z 00000001400586d0 f   KizuLib:KizuFunction.obj
 0001:00057780       ?GetSerialNoFF@KizuFunction@KizuLib@@SAXPEAD@Z 0000000140058780 f   KizuLib:KizuFunction.obj
 0001:00057830       ?task_init@@YAHPEBDH@Z     0000000140058830 f   KizuLib:KizuLib.obj
 0001:00057930       ?syslog@@YAHJPEBDZZ        0000000140058930 f   KizuLib:KizuLib.obj
 0001:00057ac0       ?statelog@@YAHJJJPEBDZZ    0000000140058ac0 f   KizuLib:KizuLib.obj
 0001:00057c50       ?GetError@MailSlotManager@KizuLib@@UEAAHXZ 0000000140058c50 f i KizuLib:MailSlotManager.obj
 0001:00057c60       ??_EMailSlotManager@KizuLib@@UEAAPEAXI@Z 0000000140058c60 f i * CIL library *:* CIL module *
 0001:00057c60       ??_GMailSlotManager@KizuLib@@UEAAPEAXI@Z 0000000140058c60 f i KizuLib:MailSlotManager.obj
 0001:00057cc0       ??1MailSlotManager@KizuLib@@UEAA@XZ 0000000140058cc0 f   KizuLib:MailSlotManager.obj
 0001:00057cf0       ?SendMail@MailSlotManager@KizuLib@@SAHPEBD0PEBXK@Z 0000000140058cf0 f   KizuLib:MailSlotManager.obj
 0001:00057df0       ?Create@MailSlotManager@KizuLib@@QEAA_NPEBDK@Z 0000000140058df0 f   KizuLib:MailSlotManager.obj
 0001:00057e60       ?Recv@MailSlotManager@KizuLib@@UEAAHPEAXK@Z 0000000140058e60 f   KizuLib:MailSlotManager.obj
 0001:00057f20       ?Send@MailSlotManager@KizuLib@@UEAAHPEBXK@Z 0000000140058f20 f   KizuLib:MailSlotManager.obj
 0001:00057f60       ?Recv@MailSlotManager@KizuLib@@UEAA_NPEAXKPEAU_OVERLAPPED@@@Z 0000000140058f60 f   KizuLib:MailSlotManager.obj
 0001:00057fb0       ?Send@MailSlotManager@KizuLib@@UEAA_NPEBXKPEAU_OVERLAPPED@@@Z 0000000140058fb0 f   KizuLib:MailSlotManager.obj
 0001:00058000       ?GetResult@MailSlotManager@KizuLib@@UEAA_NPEAU_OVERLAPPED@@@Z 0000000140059000 f   KizuLib:MailSlotManager.obj
 0001:00058040       ??0KizuPcInfManager@KizuLib@@QEAA@H@Z 0000000140059040 f   KizuLib:KizuPcInfManager.obj
 0001:00058120       ??_EKizuPcInfManager@KizuLib@@UEAAPEAXI@Z 0000000140059120 f i * CIL library *:* CIL module *
 0001:00058120       ??_GKizuPcInfManager@KizuLib@@UEAAPEAXI@Z 0000000140059120 f i KizuLib:KizuPcInfManager.obj
 0001:00058150       ?SetPcName@KizuPcInfManager@KizuLib@@QEAA_NPEADPEBD1@Z 0000000140059150 f   KizuLib:KizuPcInfManager.obj
 0001:00058670       ?GetGroupPcID@KizuPcInfManager@KizuLib@@SA_NPEBDHHPEAH1_N@Z 0000000140059670 f   KizuLib:KizuPcInfManager.obj
 0001:00058860       ?SetGroupPcID@KizuPcInfManager@KizuLib@@SA_NPEBDHHPEBH@Z 0000000140059860 f   KizuLib:KizuPcInfManager.obj
 0001:00058b90       ??_GOdbcBase@KizuODBC@@UEAAPEAXI@Z 0000000140059b90 f i KizuODBC:OdbcBase.obj
 0001:00058b90       ??_EOdbcBase@KizuODBC@@UEAAPEAXI@Z 0000000140059b90 f i * CIL library *:* CIL module *
 0001:00058c00       ??1OdbcBase@KizuODBC@@UEAA@XZ 0000000140059c00 f   KizuODBC:OdbcBase.obj
 0001:00058c50       ?OpenCheck@OdbcBase@KizuODBC@@SA_NPEBD0@Z 0000000140059c50 f   KizuODBC:OdbcBase.obj
 0001:00058cd0       ?ExecuteDirect@OdbcBase@KizuODBC@@QEAA_NPEBD_N@Z 0000000140059cd0 f   KizuODBC:OdbcBase.obj
 0001:00058d20       ?Fetch@OdbcBase@KizuODBC@@QEAAHXZ 0000000140059d20 f   KizuODBC:OdbcBase.obj
 0001:00058da0       ?SqlBinalyWrite@OdbcBase@KizuODBC@@QEAA_NPEBDHPEAKPEAPEAX_N@Z 0000000140059da0 f   KizuODBC:OdbcBase.obj
 0001:00059040       ?GetData@OdbcBase@KizuODBC@@QEAAJGPEAXK@Z 000000014005a040 f   KizuODBC:OdbcBase.obj
 0001:000590b0       ?GetData@OdbcBase@KizuODBC@@QEAAJGPEAH@Z 000000014005a0b0 f   KizuODBC:OdbcBase.obj
 0001:00059120       ?GetSelectKey_Static@OdbcBase@KizuODBC@@SA_NPEBDPEAH00@Z 000000014005a120 f   KizuODBC:OdbcBase.obj
 0001:00059250       ??0OdbcManager@KizuODBC@@QEAA@XZ 000000014005a250 f   KizuODBC:OdbcManager.obj
 0001:000592c0       ?Alloc@OdbcManager@KizuODBC@@IEAAXXZ 000000014005a2c0 f   KizuODBC:OdbcManager.obj
 0001:000593e0       ?Connect@OdbcManager@KizuODBC@@QEAAHPEBD0@Z 000000014005a3e0 f   KizuODBC:OdbcManager.obj
 0001:000594c0       ?Connect@OdbcManager@KizuODBC@@QEAAHPEBD00@Z 000000014005a4c0 f   KizuODBC:OdbcManager.obj
 0001:00059630       ?DisConnect@OdbcManager@KizuODBC@@QEAAXXZ 000000014005a630 f   KizuODBC:OdbcManager.obj
 0001:000596a0       ?AutoCommitEnable@OdbcManager@KizuODBC@@QEAAF_N@Z 000000014005a6a0 f   KizuODBC:OdbcManager.obj
 0001:000596f0       ?ExecuteDirect@OdbcManager@KizuODBC@@QEAAFPEBD@Z 000000014005a6f0 f   KizuODBC:OdbcManager.obj
 0001:00059790       ?GetErrMsg@OdbcManager@KizuODBC@@QEAAXXZ 000000014005a790 f   KizuODBC:OdbcManager.obj
 0001:00059830       ?GetErrMsg@OdbcManager@KizuODBC@@QEAAXF@Z 000000014005a830 f   KizuODBC:OdbcManager.obj
 0001:000598f0       ??0OdbcEnv@KizuODBC@@AEAA@XZ 000000014005a8f0 f   KizuODBC:OdbcEnv.obj
 0001:000599b0       ??_EOdbcEnv@KizuODBC@@UEAAPEAXI@Z 000000014005a9b0 f i * CIL library *:* CIL module *
 0001:000599b0       ??_GOdbcEnv@KizuODBC@@UEAAPEAXI@Z 000000014005a9b0 f i KizuODBC:OdbcEnv.obj
 0001:00059a10       ?GetErrMsg@OdbcEnv@KizuODBC@@QEAAXXZ 000000014005aa10 f   KizuODBC:OdbcEnv.obj
 0001:00059a90       ??0SockBase@KizuSock3@@QEAA@PEBD0KKKKKK@Z 000000014005aa90 f   KizuSOCK3:SockBase.obj
 0001:00059c80       ??_GSockBase@KizuSock3@@UEAAPEAXI@Z 000000014005ac80 f i KizuSOCK3:SockBase.obj
 0001:00059c80       ??_ESockBase@KizuSock3@@UEAAPEAXI@Z 000000014005ac80 f i * CIL library *:* CIL module *
 0001:00059cc0       ??1SockBase@KizuSock3@@UEAA@XZ 000000014005acc0 f   KizuSOCK3:SockBase.obj
 0001:00059d30       ?Accept@SockBase@KizuSock3@@QEAAHPEAUtagMSG@@@Z 000000014005ad30 f   KizuSOCK3:SockBase.obj
 0001:00059e80       ?Cancel@SockBase@KizuSock3@@QEAAXXZ 000000014005ae80 f   KizuSOCK3:SockBase.obj
 0001:00059ef0       ?Recv@SockBase@KizuSock3@@QEAAHHPEAXK0@Z 000000014005aef0 f   KizuSOCK3:SockBase.obj
 0001:00059f80       ??0ksControl@KizuSock3@@QEAA@KK@Z 000000014005af80 f   KizuSOCK3:ksControl.obj
 0001:0005a050       ??_EksControl@KizuSock3@@UEAAPEAXI@Z 000000014005b050 f i * CIL library *:* CIL module *
 0001:0005a050       ??_GksControl@KizuSock3@@UEAAPEAXI@Z 000000014005b050 f i KizuSOCK3:ksControl.obj
 0001:0005a090       ??1ksControl@KizuSock3@@UEAA@XZ 000000014005b090 f   KizuSOCK3:ksControl.obj
 0001:0005a190       ?SockOpen@ksControl@KizuSock3@@QEAAHKK@Z 000000014005b190 f   KizuSOCK3:ksControl.obj
 0001:0005a290       ?Listen@ksControl@KizuSock3@@QEAAHH@Z 000000014005b290 f   KizuSOCK3:ksControl.obj
 0001:0005a3b0       ?CloseChild@ksControl@KizuSock3@@QEAAHPEAVksThread@2@@Z 000000014005b3b0 f   KizuSOCK3:ksControl.obj
 0001:0005a440       ?sendMsg@ksControl@KizuSock3@@AEAAXI_K_J@Z 000000014005b440 f   KizuSOCK3:ksControl.obj
 0001:0005a4e0       ?MainThread@ksControl@KizuSock3@@CAIPEAX@Z 000000014005b4e0 f   KizuSOCK3:ksControl.obj
 0001:0005a720       ??0ksThread@KizuSock3@@QEAA@_KKKKPEAX11@Z 000000014005b720 f   KizuSOCK3:ksThread.obj
 0001:0005a810       ??_GksThread@KizuSock3@@UEAAPEAXI@Z 000000014005b810 f i KizuSOCK3:ksThread.obj
 0001:0005a810       ??_EksThread@KizuSock3@@UEAAPEAXI@Z 000000014005b810 f i * CIL library *:* CIL module *
 0001:0005a850       ??1ksThread@KizuSock3@@UEAA@XZ 000000014005b850 f   KizuSOCK3:ksThread.obj
 0001:0005a920       ?Recv@ksThread@KizuSock3@@QEAAHPEAXK0@Z 000000014005b920 f   KizuSOCK3:ksThread.obj
 0001:0005a990       ?Send@ksThread@KizuSock3@@QEAAHPEBXKPEAX@Z 000000014005b990 f   KizuSOCK3:ksThread.obj
 0001:0005aa10       ?MainThread@ksThread@KizuSock3@@CAIPEAX@Z 000000014005ba10 f   KizuSOCK3:ksThread.obj
 0001:0005b138       ??3@YAXPEAX@Z              000000014005c138 f   mfc140:mfc140.dll
 0001:0005b13e       ??2@YAPEAX_K@Z             000000014005c13e f   mfc140:mfc140.dll
 0001:0005b144       ??_V@YAXPEAX@Z             000000014005c144 f   mfc140:mfc140.dll
 0001:0005b14a       ?DrawItem@CListCtrl@@UEAAXPEAUtagDRAWITEMSTRUCT@@@Z 000000014005c14a f   mfc140:mfc140.dll
 0001:0005b150       ?GetOccDialogInfo@CWnd@@MEAAPEAU_AFX_OCC_DIALOG_INFO@@XZ 000000014005c150 f   mfc140:mfc140.dll
 0001:0005b156       ?SetOccDialogInfo@CWnd@@MEAAHPEAU_AFX_OCC_DIALOG_INFO@@@Z 000000014005c156 f   mfc140:mfc140.dll
 0001:0005b15c       ?CreateControlSite@CWnd@@MEAAHPEAVCOleControlContainer@@PEAPEAVCOleControlSite@@IAEBU_GUID@@@Z 000000014005c15c f   mfc140:mfc140.dll
 0001:0005b162       ?CreateControlContainer@CWnd@@MEAAHPEAPEAVCOleControlContainer@@@Z 000000014005c162 f   mfc140:mfc140.dll
 0001:0005b168       ?IsFrameWnd@CWnd@@UEBAHXZ  000000014005c168 f   mfc140:mfc140.dll
 0001:0005b16e       ?CheckAutoCenter@CWnd@@UEAAHXZ 000000014005c16e f   mfc140:mfc140.dll
 0001:0005b174       ?ResizeDynamicLayout@CWnd@@MEAAXXZ 000000014005c174 f   mfc140:mfc140.dll
 0001:0005b17a       ?OnGesturePressAndTap@CWnd@@MEAAHVCPoint@@J@Z 000000014005c17a f   mfc140:mfc140.dll
 0001:0005b180       ?OnGestureTwoFingerTap@CWnd@@MEAAHVCPoint@@@Z 000000014005c180 f   mfc140:mfc140.dll
 0001:0005b186       ?OnGestureRotate@CWnd@@MEAAHVCPoint@@N@Z 000000014005c186 f   mfc140:mfc140.dll
 0001:0005b18c       ?OnGesturePan@CWnd@@MEAAHVCPoint@@0@Z 000000014005c18c f   mfc140:mfc140.dll
 0001:0005b192       ?OnGestureZoom@CWnd@@MEAAHVCPoint@@J@Z 000000014005c192 f   mfc140:mfc140.dll
 0001:0005b198       ?GetGestureStatus@CWnd@@MEAAKVCPoint@@@Z 000000014005c198 f   mfc140:mfc140.dll
 0001:0005b19e       ?OnTouchInput@CWnd@@MEAAHVCPoint@@HHPEAUtagTOUCHINPUT@@@Z 000000014005c19e f   mfc140:mfc140.dll
 0001:0005b1a4       ?OnTouchInputs@CWnd@@MEAAHIPEAUtagTOUCHINPUT@@@Z 000000014005c1a4 f   mfc140:mfc140.dll
 0001:0005b1aa       ?OnChildNotify@CListCtrl@@MEAAHI_K_JPEA_J@Z 000000014005c1aa f   mfc140:mfc140.dll
 0001:0005b1b0       ?PostNcDestroy@CWnd@@MEAAXXZ 000000014005c1b0 f   mfc140:mfc140.dll
 0001:0005b1b6       ?DefWindowProcA@CWnd@@MEAA_JI_K_J@Z 000000014005c1b6 f   mfc140:mfc140.dll
 0001:0005b1bc       ?OnWndMsg@CWnd@@MEAAHI_K_JPEA_J@Z 000000014005c1bc f   mfc140:mfc140.dll
 0001:0005b1c2       ?WindowProc@CWnd@@MEAA_JI_K_J@Z 000000014005c1c2 f   mfc140:mfc140.dll
 0001:0005b1c8       ?OnAmbientProperty@CWnd@@UEAAHPEAVCOleControlSite@@JPEAUtagVARIANT@@@Z 000000014005c1c8 f   mfc140:mfc140.dll
 0001:0005b1ce       ?PreTranslateMessage@CWnd@@UEAAHPEAUtagMSG@@@Z 000000014005c1ce f   mfc140:mfc140.dll
 0001:0005b1d4       ?GetSuperWndProcAddr@CWnd@@MEAAPEAP6A_JPEAUHWND__@@I_K_J@ZXZ 000000014005c1d4 f   mfc140:mfc140.dll
 0001:0005b1da       ?OnNotify@CWnd@@MEAAH_K_JPEA_J@Z 000000014005c1da f   mfc140:mfc140.dll
 0001:0005b1e0       ?OnCommand@CWnd@@MEAAH_K_J@Z 000000014005c1e0 f   mfc140:mfc140.dll
 0001:0005b1e6       ?CreateAccessibleProxy@CWnd@@UEAAJ_K_JPEA_J@Z 000000014005c1e6 f   mfc140:mfc140.dll
 0001:0005b1ec       ?SetProxy@CWnd@@UEAAJPEAUIAccessibleProxy@@@Z 000000014005c1ec f   mfc140:mfc140.dll
 0001:0005b1f2       ?put_accValue@CWnd@@UEAAJUtagVARIANT@@PEA_W@Z 000000014005c1f2 f   mfc140:mfc140.dll
 0001:0005b1f8       ?put_accName@CWnd@@UEAAJUtagVARIANT@@PEA_W@Z 000000014005c1f8 f   mfc140:mfc140.dll
 0001:0005b1fe       ?accDoDefaultAction@CWnd@@UEAAJUtagVARIANT@@@Z 000000014005c1fe f   mfc140:mfc140.dll
 0001:0005b204       ?accHitTest@CWnd@@UEAAJJJPEAUtagVARIANT@@@Z 000000014005c204 f   mfc140:mfc140.dll
 0001:0005b20a       ?accNavigate@CWnd@@UEAAJJUtagVARIANT@@PEAU2@@Z 000000014005c20a f   mfc140:mfc140.dll
 0001:0005b210       ?accLocation@CWnd@@UEAAJPEAJ000UtagVARIANT@@@Z 000000014005c210 f   mfc140:mfc140.dll
 0001:0005b216       ?accSelect@CWnd@@UEAAJJUtagVARIANT@@@Z 000000014005c216 f   mfc140:mfc140.dll
 0001:0005b21c       ?get_accDefaultAction@CWnd@@UEAAJUtagVARIANT@@PEAPEA_W@Z 000000014005c21c f   mfc140:mfc140.dll
 0001:0005b222       ?get_accSelection@CWnd@@UEAAJPEAUtagVARIANT@@@Z 000000014005c222 f   mfc140:mfc140.dll
 0001:0005b228       ?get_accFocus@CWnd@@UEAAJPEAUtagVARIANT@@@Z 000000014005c228 f   mfc140:mfc140.dll
 0001:0005b22e       ?get_accKeyboardShortcut@CWnd@@UEAAJUtagVARIANT@@PEAPEA_W@Z 000000014005c22e f   mfc140:mfc140.dll
 0001:0005b234       ?get_accHelpTopic@CWnd@@UEAAJPEAPEA_WUtagVARIANT@@PEAJ@Z 000000014005c234 f   mfc140:mfc140.dll
 0001:0005b23a       ?get_accHelp@CWnd@@UEAAJUtagVARIANT@@PEAPEA_W@Z 000000014005c23a f   mfc140:mfc140.dll
 0001:0005b240       ?get_accState@CWnd@@UEAAJUtagVARIANT@@PEAU2@@Z 000000014005c240 f   mfc140:mfc140.dll
 0001:0005b246       ?get_accRole@CWnd@@UEAAJUtagVARIANT@@PEAU2@@Z 000000014005c246 f   mfc140:mfc140.dll
 0001:0005b24c       ?get_accDescription@CWnd@@UEAAJUtagVARIANT@@PEAPEA_W@Z 000000014005c24c f   mfc140:mfc140.dll
 0001:0005b252       ?get_accValue@CWnd@@UEAAJUtagVARIANT@@PEAPEA_W@Z 000000014005c252 f   mfc140:mfc140.dll
 0001:0005b258       ?get_accName@CWnd@@UEAAJUtagVARIANT@@PEAPEA_W@Z 000000014005c258 f   mfc140:mfc140.dll
 0001:0005b25e       ?get_accChild@CWnd@@UEAAJUtagVARIANT@@PEAPEAUIDispatch@@@Z 000000014005c25e f   mfc140:mfc140.dll
 0001:0005b264       ?get_accChildCount@CWnd@@UEAAJPEAJ@Z 000000014005c264 f   mfc140:mfc140.dll
 0001:0005b26a       ?get_accParent@CWnd@@UEAAJPEAPEAUIDispatch@@@Z 000000014005c26a f   mfc140:mfc140.dll
 0001:0005b270       ?EnsureStdObj@CWnd@@UEAAJXZ 000000014005c270 f   mfc140:mfc140.dll
 0001:0005b276       ?OnDrawIconicThumbnailOrLivePreview@CWnd@@UEAAXAEAVCDC@@VCRect@@VCSize@@HAEAH@Z 000000014005c276 f   mfc140:mfc140.dll
 0001:0005b27c       ?EndModalLoop@CWnd@@UEAAXH@Z 000000014005c27c f   mfc140:mfc140.dll
 0001:0005b282       ?ContinueModal@CWnd@@UEAAHXZ 000000014005c282 f   mfc140:mfc140.dll
 0001:0005b288       ?WinHelpInternal@CWnd@@UEAAX_KI@Z 000000014005c288 f   mfc140:mfc140.dll
 0001:0005b28e       ?HtmlHelpA@CWnd@@UEAAX_KI@Z 000000014005c28e f   mfc140:mfc140.dll
 0001:0005b294       ?WinHelpA@CWnd@@UEAAX_KI@Z 000000014005c294 f   mfc140:mfc140.dll
 0001:0005b29a       ?GetScrollBarCtrl@CWnd@@UEBAPEAVCScrollBar@@H@Z 000000014005c29a f   mfc140:mfc140.dll
 0001:0005b2a0       ?OnToolHitTest@CWnd@@UEBA_JVCPoint@@PEAUtagTOOLINFOA@@@Z 000000014005c2a0 f   mfc140:mfc140.dll
 0001:0005b2a6       ?SetMenu@CWnd@@UEAAHPEAVCMenu@@@Z 000000014005c2a6 f   mfc140:mfc140.dll
 0001:0005b2ac       ?GetMenu@CWnd@@UEBAPEAVCMenu@@XZ 000000014005c2ac f   mfc140:mfc140.dll
 0001:0005b2b2       ?CalcWindowRect@CWnd@@UEAAXPEAUtagRECT@@I@Z 000000014005c2b2 f   mfc140:mfc140.dll
 0001:0005b2b8       ?PreCreateWindow@CWnd@@UEAAHAEAUtagCREATESTRUCTA@@@Z 000000014005c2b8 f   mfc140:mfc140.dll
 0001:0005b2be       ?DestroyWindow@CWnd@@UEAAHXZ 000000014005c2be f   mfc140:mfc140.dll
 0001:0005b2c4       ?CreateEx@CWnd@@UEAAHKPEBD0KHHHHPEAUHWND__@@PEAUHMENU__@@PEAX@Z 000000014005c2c4 f   mfc140:mfc140.dll
 0001:0005b2ca       ?CreateEx@CWnd@@UEAAHKPEBD0KAEBUtagRECT@@PEAV1@IPEAX@Z 000000014005c2ca f   mfc140:mfc140.dll
 0001:0005b2d0       ?Create@CWnd@@UEAAHPEBD0KAEBUtagRECT@@PEAV1@IPEAUCCreateContext@@@Z 000000014005c2d0 f   mfc140:mfc140.dll
 0001:0005b2d6       ?PreSubclassWindow@CWnd@@UEAAXXZ 000000014005c2d6 f   mfc140:mfc140.dll
 0001:0005b2dc       ?GetConnectionHook@CCmdTarget@@MEAAPEAUIConnectionPoint@@AEBU_GUID@@@Z 000000014005c2dc f   mfc140:mfc140.dll
 0001:0005b2e2       ?GetExtraConnectionPoints@CCmdTarget@@MEAAHPEAVCPtrArray@@@Z 000000014005c2e2 f   mfc140:mfc140.dll
 0001:0005b2e8       ?GetInterfaceHook@CCmdTarget@@UEAAPEAUIUnknown@@PEBX@Z 000000014005c2e8 f   mfc140:mfc140.dll
 0001:0005b2ee       ?OnCreateAggregates@CCmdTarget@@UEAAHXZ 000000014005c2ee f   mfc140:mfc140.dll
 0001:0005b2f4       ?GetEventSinkMap@CCmdTarget@@MEBAPEBUAFX_EVENTSINKMAP@@XZ 000000014005c2f4 f   mfc140:mfc140.dll
 0001:0005b2fa       ?GetInterfaceMap@CWnd@@MEBAPEBUAFX_INTERFACEMAP@@XZ 000000014005c2fa f   mfc140:mfc140.dll
 0001:0005b300       ?GetConnectionMap@CCmdTarget@@MEBAPEBUAFX_CONNECTIONMAP@@XZ 000000014005c300 f   mfc140:mfc140.dll
 0001:0005b306       ?GetDispatchMap@CCmdTarget@@MEBAPEBUAFX_DISPMAP@@XZ 000000014005c306 f   mfc140:mfc140.dll
 0001:0005b30c       ?GetCommandMap@CCmdTarget@@MEBAPEBUAFX_OLECMDMAP@@XZ 000000014005c30c f   mfc140:mfc140.dll
 0001:0005b312       ?GetMessageMap@CListCtrl@@MEBAPEBUAFX_MSGMAP@@XZ 000000014005c312 f   mfc140:mfc140.dll
 0001:0005b318       ?GetTypeLib@CCmdTarget@@UEAAJKPEAPEAUITypeLib@@@Z 000000014005c318 f   mfc140:mfc140.dll
 0001:0005b31e       ?GetTypeLibCache@CCmdTarget@@UEAAPEAVCTypeLibCache@@XZ 000000014005c31e f   mfc140:mfc140.dll
 0001:0005b324       ?GetTypeInfoCount@CCmdTarget@@UEAAIXZ 000000014005c324 f   mfc140:mfc140.dll
 0001:0005b32a       ?GetDispatchIID@CCmdTarget@@UEAAHPEAU_GUID@@@Z 000000014005c32a f   mfc140:mfc140.dll
 0001:0005b330       ?IsInvokeAllowed@CCmdTarget@@UEAAHJ@Z 000000014005c330 f   mfc140:mfc140.dll
 0001:0005b336       ?OnFinalRelease@CWnd@@UEAAXXZ 000000014005c336 f   mfc140:mfc140.dll
 0001:0005b33c       ?OnCmdMsg@CCmdTarget@@UEAAHIHPEAXPEAUAFX_CMDHANDLERINFO@@@Z 000000014005c33c f   mfc140:mfc140.dll
 0001:0005b342       ?GetRuntimeClass@CListCtrl@@UEBAPEAUCRuntimeClass@@XZ 000000014005c342 f   mfc140:mfc140.dll
 0001:0005b348       ?GetRuntimeClass@CFont@@UEBAPEAUCRuntimeClass@@XZ 000000014005c348 f   mfc140:mfc140.dll
 0001:0005b34e       ?GetRuntimeClass@CGdiObject@@UEBAPEAUCRuntimeClass@@XZ 000000014005c34e f   mfc140:mfc140.dll
 0001:0005b354       ?DrawItem@CButton@@UEAAXPEAUtagDRAWITEMSTRUCT@@@Z 000000014005c354 f   mfc140:mfc140.dll
 0001:0005b35a       ?Create@CButton@@UEAAHPEBDKAEBUtagRECT@@PEAVCWnd@@I@Z 000000014005c35a f   mfc140:mfc140.dll
 0001:0005b360       ?OnChildNotify@CButton@@MEAAHI_K_JPEA_J@Z 000000014005c360 f   mfc140:mfc140.dll
 0001:0005b366       ?GetMessageMap@CWnd@@MEBAPEBUAFX_MSGMAP@@XZ 000000014005c366 f   mfc140:mfc140.dll
 0001:0005b36c       ?GetRuntimeClass@CButton@@UEBAPEAUCRuntimeClass@@XZ 000000014005c36c f   mfc140:mfc140.dll
 0001:0005b372       ?GetThisMessageMap@CListCtrl@@KAPEBUAFX_MSGMAP@@XZ 000000014005c372 f   mfc140:mfc140.dll
 0001:0005b378       ?OnHelp@CWinApp@@IEAAXXZ   000000014005c378 f   mfc140:mfc140.dll
 0001:0005b37e       ?GetThisMessageMap@CWinApp@@KAPEBUAFX_MSGMAP@@XZ 000000014005c37e f   mfc140:mfc140.dll
 0001:0005b384       ?DoModal@CDialog@@UEAA_JXZ 000000014005c384 f   mfc140:mfc140.dll
 0001:0005b38a       ?GetRuntimeClass@CBrush@@UEBAPEAUCRuntimeClass@@XZ 000000014005c38a f   mfc140:mfc140.dll
 0001:0005b390       ?GetRuntimeClass@CWinApp@@UEBAPEAUCRuntimeClass@@XZ 000000014005c390 f   mfc140:mfc140.dll
 0001:0005b396       ?OnFinalRelease@CCmdTarget@@UEAAXXZ 000000014005c396 f   mfc140:mfc140.dll
 0001:0005b39c       ?GetInterfaceMap@CCmdTarget@@MEBAPEBUAFX_INTERFACEMAP@@XZ 000000014005c39c f   mfc140:mfc140.dll
 0001:0005b3a2       ?Run@CWinApp@@UEAAHXZ      000000014005c3a2 f   mfc140:mfc140.dll
 0001:0005b3a8       ?PreTranslateMessage@CWinThread@@UEAAHPEAUtagMSG@@@Z 000000014005c3a8 f   mfc140:mfc140.dll
 0001:0005b3ae       ?PumpMessage@CWinThread@@UEAAHXZ 000000014005c3ae f   mfc140:mfc140.dll
 0001:0005b3b4       ?OnIdle@CWinApp@@UEAAHJ@Z  000000014005c3b4 f   mfc140:mfc140.dll
 0001:0005b3ba       ?IsIdleMessage@CWinThread@@UEAAHPEAUtagMSG@@@Z 000000014005c3ba f   mfc140:mfc140.dll
 0001:0005b3c0       ?ExitInstance@CWinApp@@UEAAHXZ 000000014005c3c0 f   mfc140:mfc140.dll
 0001:0005b3c6       ?ProcessWndProcException@CWinApp@@UEAA_JPEAVCException@@PEBUtagMSG@@@Z 000000014005c3c6 f   mfc140:mfc140.dll
 0001:0005b3cc       ?ProcessMessageFilter@CWinThread@@UEAAHHPEAUtagMSG@@@Z 000000014005c3cc f   mfc140:mfc140.dll
 0001:0005b3d2       ?GetMainWnd@CWinThread@@UEAAPEAVCWnd@@XZ 000000014005c3d2 f   mfc140:mfc140.dll
 0001:0005b3d8       ?Delete@CWinThread@@UEAAXXZ 000000014005c3d8 f   mfc140:mfc140.dll
 0001:0005b3de       ?GetProfileIntA@CWinApp@@UEAAIPEBD0H@Z 000000014005c3de f   mfc140:mfc140.dll
 0001:0005b3e4       ?WriteProfileInt@CWinApp@@UEAAHPEBD0H@Z 000000014005c3e4 f   mfc140:mfc140.dll
 0001:0005b3ea       ?GetProfileStringA@CWinApp@@UEAA?AV?$CStringT@DV?$StrTraitMFC_DLL@DV?$ChTraitsCRT@D@ATL@@@@@ATL@@PEBD00@Z 000000014005c3ea f   mfc140:mfc140.dll
 0001:0005b3f0       ?WriteProfileStringA@CWinApp@@UEAAHPEBD00@Z 000000014005c3f0 f   mfc140:mfc140.dll
 0001:0005b3f6       ?GetProfileBinary@CWinApp@@UEAAHPEBD0PEAPEAEPEAI@Z 000000014005c3f6 f   mfc140:mfc140.dll
 0001:0005b3fc       ?WriteProfileBinary@CWinApp@@UEAAHPEBD0PEAEI@Z 000000014005c3fc f   mfc140:mfc140.dll
 0001:0005b402       ?InitLibId@CWinApp@@UEAAXXZ 000000014005c402 f   mfc140:mfc140.dll
 0001:0005b408       ?Register@CWinApp@@UEAAHXZ 000000014005c408 f   mfc140:mfc140.dll
 0001:0005b40e       ?Unregister@CWinApp@@UEAAHXZ 000000014005c40e f   mfc140:mfc140.dll
 0001:0005b414       ?OpenDocumentFile@CWinApp@@UEAAPEAVCDocument@@PEBDH@Z 000000014005c414 f   mfc140:mfc140.dll
 0001:0005b41a       ?OpenDocumentFile@CWinApp@@UEAAPEAVCDocument@@PEBD@Z 000000014005c41a f   mfc140:mfc140.dll
 0001:0005b420       ?AddToRecentFileList@CWinApp@@UEAAXPEBD@Z 000000014005c420 f   mfc140:mfc140.dll
 0001:0005b426       ?InitApplication@CWinApp@@UEAAHXZ 000000014005c426 f   mfc140:mfc140.dll
 0001:0005b42c       ?SaveAllModified@CWinApp@@UEAAHXZ 000000014005c42c f   mfc140:mfc140.dll
 0001:0005b432       ?DoMessageBox@CWinApp@@UEAAHPEBDII@Z 000000014005c432 f   mfc140:mfc140.dll
 0001:0005b438       ?DoWaitCursor@CWinApp@@UEAAXH@Z 000000014005c438 f   mfc140:mfc140.dll
 0001:0005b43e       ?OnDDECommand@CWinApp@@UEAAHPEAD@Z 000000014005c43e f   mfc140:mfc140.dll
 0001:0005b444       ?WinHelpA@CWinApp@@UEAAX_KI@Z 000000014005c444 f   mfc140:mfc140.dll
 0001:0005b44a       ?HtmlHelpA@CWinApp@@UEAAX_KI@Z 000000014005c44a f   mfc140:mfc140.dll
 0001:0005b450       ?WinHelpInternal@CWinApp@@UEAAX_KI@Z 000000014005c450 f   mfc140:mfc140.dll
 0001:0005b456       ?RegisterWithRestartManager@CWinApp@@UEAAJPEB_WKP6AKPEAX@Z1KK@Z 000000014005c456 f   mfc140:mfc140.dll
 0001:0005b45c       ?RegisterWithRestartManager@CWinApp@@UEAAJHAEBV?$CStringT@DV?$StrTraitMFC_DLL@DV?$ChTraitsCRT@D@ATL@@@@@ATL@@@Z 000000014005c45c f   mfc140:mfc140.dll
 0001:0005b462       ?ApplicationRecoveryCallback@CWinApp@@UEAAKPEAX@Z 000000014005c462 f   mfc140:mfc140.dll
 0001:0005b468       ?GetDataRecoveryHandler@CWinApp@@UEAAPEAVCDataRecoveryHandler@@XZ 000000014005c468 f   mfc140:mfc140.dll
 0001:0005b46e       ?IsTaskbarInteractionEnabled@CWinApp@@UEAAHXZ 000000014005c46e f   mfc140:mfc140.dll
 0001:0005b474       ?RestartInstance@CWinApp@@UEAAHXZ 000000014005c474 f   mfc140:mfc140.dll
 0001:0005b47a       ?LoadAppLangResourceDLL@CWinApp@@UEAAPEAUHINSTANCE__@@XZ 000000014005c47a f   mfc140:mfc140.dll
 0001:0005b480       ?LoadSysPolicies@CWinApp@@UEAAHXZ 000000014005c480 f   mfc140:mfc140.dll
 0001:0005b486       ?CharToItem@CListBox@@UEAAHII@Z 000000014005c486 f   mfc140:mfc140.dll
 0001:0005b48c       ?VKeyToItem@CListBox@@UEAAHII@Z 000000014005c48c f   mfc140:mfc140.dll
 0001:0005b492       ?DeleteItem@CListBox@@UEAAXPEAUtagDELETEITEMSTRUCT@@@Z 000000014005c492 f   mfc140:mfc140.dll
 0001:0005b498       ?CompareItem@CListBox@@UEAAHPEAUtagCOMPAREITEMSTRUCT@@@Z 000000014005c498 f   mfc140:mfc140.dll
 0001:0005b49e       ?MeasureItem@CListBox@@UEAAXPEAUtagMEASUREITEMSTRUCT@@@Z 000000014005c49e f   mfc140:mfc140.dll
 0001:0005b4a4       ?DrawItem@CListBox@@UEAAXPEAUtagDRAWITEMSTRUCT@@@Z 000000014005c4a4 f   mfc140:mfc140.dll
 0001:0005b4aa       ?Create@CListBox@@UEAAHKAEBUtagRECT@@PEAVCWnd@@I@Z 000000014005c4aa f   mfc140:mfc140.dll
 0001:0005b4b0       ?OnChildNotify@CListBox@@MEAAHI_K_JPEA_J@Z 000000014005c4b0 f   mfc140:mfc140.dll
 0001:0005b4b6       ?GetRuntimeClass@CListBox@@UEBAPEAUCRuntimeClass@@XZ 000000014005c4b6 f   mfc140:mfc140.dll
 0001:0005b4bc       ?AfxGetModuleState@@YAPEAVAFX_MODULE_STATE@@XZ 000000014005c4bc f   mfc140:mfc140.dll
 0001:0005b4c2       ?GetThisMessageMap@CDialogEx@@KAPEBUAFX_MSGMAP@@XZ 000000014005c4c2 f   mfc140:mfc140.dll
 0001:0005b4c8       ?OnChildNotify@CWnd@@MEAAHI_K_JPEA_J@Z 000000014005c4c8 f   mfc140:mfc140.dll
 0001:0005b4ce       ?GetRuntimeClass@CDialogEx@@UEBAPEAUCRuntimeClass@@XZ 000000014005c4ce f   mfc140:mfc140.dll
 0001:0005b4d4       ?OnCmdMsg@CDialog@@UEAAHIHPEAXPEAUAFX_CMDHANDLERINFO@@@Z 000000014005c4d4 f   mfc140:mfc140.dll
 0001:0005b4da       ?OnCommand@CDialogEx@@MEAAH_K_J@Z 000000014005c4da f   mfc140:mfc140.dll
 0001:0005b4e0       ?PreTranslateMessage@CDialogEx@@UEAAHPEAUtagMSG@@@Z 000000014005c4e0 f   mfc140:mfc140.dll
 0001:0005b4e6       ?CheckAutoCenter@CDialog@@UEAAHXZ 000000014005c4e6 f   mfc140:mfc140.dll
 0001:0005b4ec       ?SetOccDialogInfo@CDialog@@MEAAHPEAU_AFX_OCC_DIALOG_INFO@@@Z 000000014005c4ec f   mfc140:mfc140.dll
 0001:0005b4f2       ?GetOccDialogInfo@CDialog@@MEAAPEAU_AFX_OCC_DIALOG_INFO@@XZ 000000014005c4f2 f   mfc140:mfc140.dll
 0001:0005b4f8       ?Create@CDialog@@UEAAHPEBDPEAVCWnd@@@Z 000000014005c4f8 f   mfc140:mfc140.dll
 0001:0005b4fe       ?CreateIndirect@CDialog@@UEAAHPEAXPEAVCWnd@@@Z 000000014005c4fe f   mfc140:mfc140.dll
 0001:0005b504       ?CreateIndirect@CDialog@@UEAAHPEBUDLGTEMPLATE@@PEAVCWnd@@PEAX@Z 000000014005c504 f   mfc140:mfc140.dll
 0001:0005b50a       ?OnSetFont@CDialog@@UEAAXPEAVCFont@@@Z 000000014005c50a f   mfc140:mfc140.dll
 0001:0005b510       ?OnOK@CDialog@@MEAAXXZ     000000014005c510 f   mfc140:mfc140.dll
 0001:0005b516       ?PreInitDialog@CDialog@@MEAAXXZ 000000014005c516 f   mfc140:mfc140.dll
 0001:0005b530       __security_check_cookie    000000014005c530 f   msvcrt:_amdsecgs_.obj
 0001:0005b554       ??3@YAXPEAX_K@Z            000000014005c554 f   msvcrt:delete_scalar_size.obj
 0001:0005b55c       ??_Etype_info@@UEAAPEAXI@Z 000000014005c55c f i msvcrt:std_type_info_static.obj
 0001:0005b55c       ??_Gtype_info@@UEAAPEAXI@Z 000000014005c55c f i msvcrt:std_type_info_static.obj
 0001:0005b588       __scrt_acquire_startup_lock 000000014005c588 f   msvcrt:utility.obj
 0001:0005b5c4       __scrt_initialize_crt      000000014005c5c4 f   msvcrt:utility.obj
 0001:0005b610       __scrt_initialize_onexit_tables 000000014005c610 f   msvcrt:utility.obj
 0001:0005b6dc       __scrt_is_nonwritable_in_current_image 000000014005c6dc f   msvcrt:utility.obj
 0001:0005b778       __scrt_release_startup_lock 000000014005c778 f   msvcrt:utility.obj
 0001:0005b79c       __scrt_uninitialize_crt    000000014005c79c f   msvcrt:utility.obj
 0001:0005b7c8       _onexit                    000000014005c7c8 f   msvcrt:utility.obj
 0001:0005b818       atexit                     000000014005c818 f   msvcrt:utility.obj
 0001:0005b830       ??_M@YAXPEAX_K1P6AX0@Z@Z   000000014005c830 f   msvcrt:ehvecdtr.obj
 0001:0005b89c       ?__ArrayUnwind@@YAXPEAX_K1P6AX0@Z@Z 000000014005c89c f   msvcrt:ehvecdtr.obj
 0001:0005b900       ??_L@YAXPEAX_K1P6AX0@Z2@Z  000000014005c900 f   msvcrt:ehvecctr.obj
 0001:0005b970       ??_V@YAXPEAX_K@Z           000000014005c970 f   msvcrt:delete_array_size.obj
 0001:0005b978       __raise_securityfailure    000000014005c978 f   msvcrt:gs_report.obj
 0001:0005b9ac       __report_gsfailure         000000014005c9ac f   msvcrt:gs_report.obj
 0001:0005ba80       __report_rangecheckfailure 000000014005ca80 f   msvcrt:gs_report.obj
 0001:0005ba94       __report_securityfailure   000000014005ca94 f   msvcrt:gs_report.obj
 0001:0005bfb0       WinMainCRTStartup          000000014005cfb0 f   msvcrt:exe_winmain.obj
 0001:0005bfc4       _guard_check_icall         000000014005cfc4 f i msvcrt:checkcfg.obj
 0001:0005bfcc       __isa_available_init       000000014005cfcc f   msvcrt:_cpu_disp_.obj
 0001:0005c194       _get_startup_argv_mode     000000014005d194 f   msvcrt:argv_mode.obj
 0001:0005c19c       __scrt_is_ucrt_dll_in_use  000000014005d19c f   msvcrt:ucrt_detection.obj
 0001:0005c1a8       __scrt_fastfail            000000014005d1a8 f   msvcrt:utility_desktop.obj
 0001:0005c2f0       __scrt_get_show_window_mode 000000014005d2f0 f   msvcrt:utility_desktop.obj
 0001:0005c32c       __scrt_is_managed_app      000000014005d32c f   msvcrt:utility_desktop.obj
 0001:0005c380       __scrt_set_unhandled_exception_filter 000000014005d380 f   msvcrt:utility_desktop.obj
 0001:0005c390       __scrt_unhandled_exception_filter 000000014005d390 f   msvcrt:utility_desktop.obj
 0001:0005c3c8       __security_init_cookie     000000014005d3c8 f   msvcrt:gs_support.obj
 0001:0005c474       _get_startup_file_mode     000000014005d474 f   msvcrt:file_mode.obj
 0001:0005c47c       ?__scrt_initialize_type_info@@YAXXZ 000000014005d47c f   msvcrt:tncleanup.obj
 0001:0005c48c       __local_stdio_scanf_options 000000014005d48c f i msvcrt:default_local_stdio_options.obj
 0001:0005c494       __scrt_initialize_default_local_stdio_options 000000014005d494 f   msvcrt:default_local_stdio_options.obj
 0001:0005c4b0       __scrt_is_user_matherr_present 000000014005d4b0 f   msvcrt:matherr_detection.obj
 0001:0005c4bc       __scrt_get_dyn_tls_init_callback 000000014005d4bc f   msvcrt:dyn_tls_init.obj
 0001:0005c4c4       __scrt_get_dyn_tls_dtor_callback 000000014005d4c4 f   msvcrt:dyn_tls_dtor.obj
 0001:0005c4cc       _RTC_Initialize            000000014005d4cc f   msvcrt:_initsect_.obj
 0001:0005c518       _RTC_Terminate             000000014005d518 f   msvcrt:_initsect_.obj
 0001:0005c564       __GSHandlerCheck           000000014005d564 f   msvcrt:_gshandler_.obj
 0001:0005c584       __GSHandlerCheckCommon     000000014005d584 f   msvcrt:_gshandler_.obj
 0001:0005c5e0       IsProcessorFeaturePresent  000000014005d5e0 f   kernel32:KERNEL32.dll
 0001:0005c5e8       ??0CAtlBaseModule@ATL@@QEAA@XZ 000000014005d5e8 f   atls:atlbase.obj
 0001:0005c690       ??1CAtlBaseModule@ATL@@QEAA@XZ 000000014005d690 f   atls:atlbase.obj
 0001:0005c6c4       ??_G_Fac_node@std@@QEAAPEAXI@Z 000000014005d6c4 f i msvcprt:locale0_implib.obj
 0001:0005c750       ?_Facet_Register@std@@YAXPEAV_Facet_base@1@@Z 000000014005d750 f   msvcprt:locale0_implib.obj
 0001:0005c788       ?showmanyc@?$basic_streambuf@DU?$char_traits@D@std@@@std@@MEAA_JXZ 000000014005d788 f   msvcprt:MSVCP140.dll
 0001:0005c78e       ?xsgetn@?$basic_streambuf@DU?$char_traits@D@std@@@std@@MEAA_JPEAD_J@Z 000000014005d78e f   msvcprt:MSVCP140.dll
 0001:0005c794       ?xsputn@?$basic_streambuf@DU?$char_traits@D@std@@@std@@MEAA_JPEBD_J@Z 000000014005d794 f   msvcprt:MSVCP140.dll
 0001:0005c79a       __std_terminate            000000014005d79a f   vcruntime:VCRUNTIME140.dll
 0001:0005c7a0       _purecall                  000000014005d7a0 f   vcruntime:VCRUNTIME140.dll
 0001:0005c7a6       memset                     000000014005d7a6 f   vcruntime:VCRUNTIME140.dll
 0001:0005c7ac       __C_specific_handler       000000014005d7ac f   vcruntime:VCRUNTIME140.dll
 0001:0005c7b2       __CxxFrameHandler3         000000014005d7b2 f   vcruntime:VCRUNTIME140.dll
 0001:0005c7b8       __vcrt_InitializeCriticalSectionEx 000000014005d7b8 f   vcruntime:VCRUNTIME140.dll
 0001:0005c7be       free                       000000014005d7be f   ucrt:api-ms-win-crt-heap-l1-1-0.dll
 0001:0005c7c4       exit                       000000014005d7c4 f   ucrt:api-ms-win-crt-runtime-l1-1-0.dll
 0001:0005c7ca       _configure_narrow_argv     000000014005d7ca f   ucrt:api-ms-win-crt-runtime-l1-1-0.dll
 0001:0005c7d0       _initialize_narrow_environment 000000014005d7d0 f   ucrt:api-ms-win-crt-runtime-l1-1-0.dll
 0001:0005c7d6       _initialize_onexit_table   000000014005d7d6 f   ucrt:api-ms-win-crt-runtime-l1-1-0.dll
 0001:0005c7dc       _register_onexit_function  000000014005d7dc f   ucrt:api-ms-win-crt-runtime-l1-1-0.dll
 0001:0005c7e2       _crt_atexit                000000014005d7e2 f   ucrt:api-ms-win-crt-runtime-l1-1-0.dll
 0001:0005c7e8       _cexit                     000000014005d7e8 f   ucrt:api-ms-win-crt-runtime-l1-1-0.dll
 0001:0005c7ee       terminate                  000000014005d7ee f   ucrt:api-ms-win-crt-runtime-l1-1-0.dll
 0001:0005c7f4       _seh_filter_exe            000000014005d7f4 f   ucrt:api-ms-win-crt-runtime-l1-1-0.dll
 0001:0005c7fa       _set_app_type              000000014005d7fa f   ucrt:api-ms-win-crt-runtime-l1-1-0.dll
 0001:0005c800       __setusermatherr           000000014005d800 f   ucrt:api-ms-win-crt-math-l1-1-0.dll
 0001:0005c806       _get_narrow_winmain_command_line 000000014005d806 f   ucrt:api-ms-win-crt-runtime-l1-1-0.dll
 0001:0005c80c       _initterm                  000000014005d80c f   ucrt:api-ms-win-crt-runtime-l1-1-0.dll
 0001:0005c812       _initterm_e                000000014005d812 f   ucrt:api-ms-win-crt-runtime-l1-1-0.dll
 0001:0005c818       _exit                      000000014005d818 f   ucrt:api-ms-win-crt-runtime-l1-1-0.dll
 0001:0005c81e       _set_fmode                 000000014005d81e f   ucrt:api-ms-win-crt-stdio-l1-1-0.dll
 0001:0005c824       _c_exit                    000000014005d824 f   ucrt:api-ms-win-crt-runtime-l1-1-0.dll
 0001:0005c82a       _register_thread_local_exe_atexit_callback 000000014005d82a f   ucrt:api-ms-win-crt-runtime-l1-1-0.dll
 0001:0005c830       _configthreadlocale        000000014005d830 f   ucrt:api-ms-win-crt-locale-l1-1-0.dll
 0001:0005c836       _set_new_mode              000000014005d836 f   ucrt:api-ms-win-crt-heap-l1-1-0.dll
 0001:0005c83c       __p__commode               000000014005d83c f   ucrt:api-ms-win-crt-stdio-l1-1-0.dll
 0001:0005c844       ?AfxInitialize@@YAHHK@Z    000000014005d844 f   mfcs140:appmodul.obj
 0001:0005c87c       WinMain                    000000014005d87c f   mfcs140:appmodul.obj
 0001:0005c882       ?AfxWinMain@@YAHPEAUHINSTANCE__@@0PEADH@Z 000000014005d882 f   mfc140:mfc140.dll
 0001:0005c888       __vcrt_initialize          000000014005d888 f   msvcrt:ucrt_stubs.obj
 0001:0005c888       _should_initialize_environment 000000014005d888 f   msvcrt:env_mode.obj
 0001:0005c888       __acrt_uninitialize        000000014005d888 f   msvcrt:ucrt_stubs.obj
 0001:0005c888       __scrt_stub_for_acrt_initialize 000000014005d888 f   msvcrt:ucrt_stubs.obj
 0001:0005c888       __vcrt_uninitialize        000000014005d888 f   msvcrt:ucrt_stubs.obj
 0001:0005c888       __scrt_stub_for_acrt_uninitialize 000000014005d888 f   msvcrt:ucrt_stubs.obj
 0001:0005c888       __acrt_initialize          000000014005d888 f   msvcrt:ucrt_stubs.obj
 0001:0005c88c       __GSHandlerCheck_EH        000000014005d88c f   msvcrt:gshandlereh.obj
 0001:0005c920       __chkstk                   000000014005d920 f   msvcrt:_chkstk_.obj
 0001:0005c920       _alloca_probe              000000014005d920 f   msvcrt:_chkstk_.obj
 0001:0005c972       _CxxThrowException         000000014005d972 f   vcruntime:VCRUNTIME140.dll
 0001:0005c978       memcmp                     000000014005d978 f   vcruntime:VCRUNTIME140.dll
 0001:0005c97e       memcpy                     000000014005d97e f   vcruntime:VCRUNTIME140.dll
 0001:0005c984       ceil                       000000014005d984 f   ucrt:api-ms-win-crt-math-l1-1-0.dll
 0001:0005c9a0       _guard_dispatch_icall_nop  000000014005d9a0 f   msvcrt:_guard_dispatch_.obj
 0002:00000000       __imp_InitCommonControlsEx 0000000140064000     comctl32:COMCTL32.dll
 0002:00000008       \177COMCTL32_NULL_THUNK_DATA 0000000140064008     comctl32:COMCTL32.dll
 0002:00000010       __imp_CreateFontIndirectA  0000000140064010     gdi32:GDI32.dll
 0002:00000018       __imp_GetObjectA           0000000140064018     gdi32:GDI32.dll
 0002:00000020       \177GDI32_NULL_THUNK_DATA  0000000140064020     gdi32:GDI32.dll
 0002:00000028       __imp_WaitForSingleObject  0000000140064028     kernel32:KERNEL32.dll
 0002:00000030       __imp_CreateWaitableTimerA 0000000140064030     kernel32:KERNEL32.dll
 0002:00000038       __imp_CancelWaitableTimer  0000000140064038     kernel32:KERNEL32.dll
 0002:00000040       __imp_ReleaseSemaphore     0000000140064040     kernel32:KERNEL32.dll
 0002:00000048       __imp_Sleep                0000000140064048     kernel32:KERNEL32.dll
 0002:00000050       __imp_GetPrivateProfileIntA 0000000140064050     kernel32:KERNEL32.dll
 0002:00000058       __imp_GetPrivateProfileStringA 0000000140064058     kernel32:KERNEL32.dll
 0002:00000060       __imp_GetLastError         0000000140064060     kernel32:KERNEL32.dll
 0002:00000068       __imp_CreateSemaphoreA     0000000140064068     kernel32:KERNEL32.dll
 0002:00000070       __imp_SetEvent             0000000140064070     kernel32:KERNEL32.dll
 0002:00000078       __imp_CreateEventA         0000000140064078     kernel32:KERNEL32.dll
 0002:00000080       __imp_GetLocalTime         0000000140064080     kernel32:KERNEL32.dll
 0002:00000088       __imp_GetTickCount         0000000140064088     kernel32:KERNEL32.dll
 0002:00000090       __imp_QueryPerformanceCounter 0000000140064090     kernel32:KERNEL32.dll
 0002:00000098       __imp_QueryPerformanceFrequency 0000000140064098     kernel32:KERNEL32.dll
 0002:000000a0       __imp_ResetEvent           00000001400640a0     kernel32:KERNEL32.dll
 0002:000000a8       __imp_InitializeCriticalSectionEx 00000001400640a8     kernel32:KERNEL32.dll
 0002:000000b0       __imp_RaiseException       00000001400640b0     kernel32:KERNEL32.dll
 0002:000000b8       __imp_GetCurrentThreadId   00000001400640b8     kernel32:KERNEL32.dll
 0002:000000c0       __imp_WaitForMultipleObjects 00000001400640c0     kernel32:KERNEL32.dll
 0002:000000c8       __imp_LoadLibraryA         00000001400640c8     kernel32:KERNEL32.dll
 0002:000000d0       __imp_GetProcAddress       00000001400640d0     kernel32:KERNEL32.dll
 0002:000000d8       __imp_GetCurrentDirectoryA 00000001400640d8     kernel32:KERNEL32.dll
 0002:000000e0       __imp_GetStartupInfoA      00000001400640e0     kernel32:KERNEL32.dll
 0002:000000e8       __imp_CreateProcessA       00000001400640e8     kernel32:KERNEL32.dll
 0002:000000f0       __imp_SetThreadPriority    00000001400640f0     kernel32:KERNEL32.dll
 0002:000000f8       __imp_TerminateThread      00000001400640f8     kernel32:KERNEL32.dll
 0002:00000100       __imp_OpenFileMappingA     0000000140064100     kernel32:KERNEL32.dll
 0002:00000108       __imp_CloseHandle          0000000140064108     kernel32:KERNEL32.dll
 0002:00000110       __imp_UnmapViewOfFile      0000000140064110     kernel32:KERNEL32.dll
 0002:00000118       __imp_WriteFile            0000000140064118     kernel32:KERNEL32.dll
 0002:00000120       __imp_CreateFileA          0000000140064120     kernel32:KERNEL32.dll
 0002:00000128       __imp_CreateMailslotA      0000000140064128     kernel32:KERNEL32.dll
 0002:00000130       __imp_ReadFile             0000000140064130     kernel32:KERNEL32.dll
 0002:00000138       __imp_OutputDebugStringW   0000000140064138     kernel32:KERNEL32.dll
 0002:00000140       __imp_GetOverlappedResult  0000000140064140     kernel32:KERNEL32.dll
 0002:00000148       __imp_GetComputerNameA     0000000140064148     kernel32:KERNEL32.dll
 0002:00000150       __imp_GetExitCodeThread    0000000140064150     kernel32:KERNEL32.dll
 0002:00000158       __imp_CancelIo             0000000140064158     kernel32:KERNEL32.dll
 0002:00000160       __imp_RtlCaptureContext    0000000140064160     kernel32:KERNEL32.dll
 0002:00000168       __imp_RtlLookupFunctionEntry 0000000140064168     kernel32:KERNEL32.dll
 0002:00000170       __imp_RtlVirtualUnwind     0000000140064170     kernel32:KERNEL32.dll
 0002:00000178       __imp_UnhandledExceptionFilter 0000000140064178     kernel32:KERNEL32.dll
 0002:00000180       __imp_SetUnhandledExceptionFilter 0000000140064180     kernel32:KERNEL32.dll
 0002:00000188       __imp_GetCurrentProcess    0000000140064188     kernel32:KERNEL32.dll
 0002:00000190       __imp_TerminateProcess     0000000140064190     kernel32:KERNEL32.dll
 0002:00000198       __imp_IsProcessorFeaturePresent 0000000140064198     kernel32:KERNEL32.dll
 0002:000001a0       __imp_CreateEventW         00000001400641a0     kernel32:KERNEL32.dll
 0002:000001a8       __imp_GetModuleHandleW     00000001400641a8     kernel32:KERNEL32.dll
 0002:000001b0       __imp_IsDebuggerPresent    00000001400641b0     kernel32:KERNEL32.dll
 0002:000001b8       __imp_GetStartupInfoW      00000001400641b8     kernel32:KERNEL32.dll
 0002:000001c0       __imp_GetCurrentProcessId  00000001400641c0     kernel32:KERNEL32.dll
 0002:000001c8       __imp_GetSystemTimeAsFileTime 00000001400641c8     kernel32:KERNEL32.dll
 0002:000001d0       __imp_InitializeSListHead  00000001400641d0     kernel32:KERNEL32.dll
 0002:000001d8       __imp_SetWaitableTimer     00000001400641d8     kernel32:KERNEL32.dll
 0002:000001e0       __imp_DeleteCriticalSection 00000001400641e0     kernel32:KERNEL32.dll
 0002:000001e8       __imp_InitializeCriticalSection 00000001400641e8     kernel32:KERNEL32.dll
 0002:000001f0       __imp_LeaveCriticalSection 00000001400641f0     kernel32:KERNEL32.dll
 0002:000001f8       __imp_MapViewOfFile        00000001400641f8     kernel32:KERNEL32.dll
 0002:00000200       __imp_EnterCriticalSection 0000000140064200     kernel32:KERNEL32.dll
 0002:00000208       \177KERNEL32_NULL_THUNK_DATA 0000000140064208     kernel32:KERNEL32.dll
 0002:00000210       __imp_?flush@?$basic_ostream@DU?$char_traits@D@std@@@std@@QEAAAEAV12@XZ 0000000140064210     msvcprt:MSVCP140.dll
 0002:00000218       __imp_??6?$basic_ostream@DU?$char_traits@D@std@@@std@@QEAAAEAV01@P6AAEAV01@AEAV01@@Z@Z 0000000140064218     msvcprt:MSVCP140.dll
 0002:00000220       __imp_??1?$basic_ostream@DU?$char_traits@D@std@@@std@@UEAA@XZ 0000000140064220     msvcprt:MSVCP140.dll
 0002:00000228       __imp_?xsputn@?$basic_streambuf@DU?$char_traits@D@std@@@std@@MEAA_JPEBD_J@Z 0000000140064228     msvcprt:MSVCP140.dll
 0002:00000230       __imp_?xsgetn@?$basic_streambuf@DU?$char_traits@D@std@@@std@@MEAA_JPEAD_J@Z 0000000140064230     msvcprt:MSVCP140.dll
 0002:00000238       __imp_?showmanyc@?$basic_streambuf@DU?$char_traits@D@std@@@std@@MEAA_JXZ 0000000140064238     msvcprt:MSVCP140.dll
 0002:00000240       __imp_??1?$basic_streambuf@DU?$char_traits@D@std@@@std@@UEAA@XZ 0000000140064240     msvcprt:MSVCP140.dll
 0002:00000248       __imp_??1?$basic_ios@DU?$char_traits@D@std@@@std@@UEAA@XZ 0000000140064248     msvcprt:MSVCP140.dll
 0002:00000250       __imp_?out@?$codecvt@DDU_Mbstatet@@@std@@QEBAHAEAU_Mbstatet@@PEBD1AEAPEBDPEAD3AEAPEAD@Z 0000000140064250     msvcprt:MSVCP140.dll
 0002:00000258       __imp_?in@?$codecvt@DDU_Mbstatet@@@std@@QEBAHAEAU_Mbstatet@@PEBD1AEAPEBDPEAD3AEAPEAD@Z 0000000140064258     msvcprt:MSVCP140.dll
 0002:00000260       __imp_??0?$basic_ostream@DU?$char_traits@D@std@@@std@@QEAA@PEAV?$basic_streambuf@DU?$char_traits@D@std@@@1@_N@Z 0000000140064260     msvcprt:MSVCP140.dll
 0002:00000268       __imp_??0?$basic_ios@DU?$char_traits@D@std@@@std@@IEAA@XZ 0000000140064268     msvcprt:MSVCP140.dll
 0002:00000270       __imp_?setstate@?$basic_ios@DU?$char_traits@D@std@@@std@@QEAAXH_N@Z 0000000140064270     msvcprt:MSVCP140.dll
 0002:00000278       __imp_?clear@?$basic_ios@DU?$char_traits@D@std@@@std@@QEAAXH_N@Z 0000000140064278     msvcprt:MSVCP140.dll
 0002:00000280       __imp_?unshift@?$codecvt@DDU_Mbstatet@@@std@@QEBAHAEAU_Mbstatet@@PEAD1AEAPEAD@Z 0000000140064280     msvcprt:MSVCP140.dll
 0002:00000288       __imp_?_Osfx@?$basic_ostream@DU?$char_traits@D@std@@@std@@QEAAXXZ 0000000140064288     msvcprt:MSVCP140.dll
 0002:00000290       __imp_?_Init@?$basic_streambuf@DU?$char_traits@D@std@@@std@@IEAAXXZ 0000000140064290     msvcprt:MSVCP140.dll
 0002:00000298       __imp_?getloc@?$basic_streambuf@DU?$char_traits@D@std@@@std@@QEBA?AVlocale@2@XZ 0000000140064298     msvcprt:MSVCP140.dll
 0002:000002a0       __imp_??0?$basic_streambuf@DU?$char_traits@D@std@@@std@@IEAA@XZ 00000001400642a0     msvcprt:MSVCP140.dll
 0002:000002a8       __imp_?sputc@?$basic_streambuf@DU?$char_traits@D@std@@@std@@QEAAHD@Z 00000001400642a8     msvcprt:MSVCP140.dll
 0002:000002b0       __imp_?widen@?$basic_ios@DU?$char_traits@D@std@@@std@@QEBADD@Z 00000001400642b0     msvcprt:MSVCP140.dll
 0002:000002b8       __imp_?_Getcat@?$codecvt@DDU_Mbstatet@@@std@@SA_KPEAPEBVfacet@locale@2@PEBV42@@Z 00000001400642b8     msvcprt:MSVCP140.dll
 0002:000002c0       __imp_?put@?$basic_ostream@DU?$char_traits@D@std@@@std@@QEAAAEAV12@D@Z 00000001400642c0     msvcprt:MSVCP140.dll
 0002:000002c8       __imp_?sputn@?$basic_streambuf@DU?$char_traits@D@std@@@std@@QEAA_JPEBD_J@Z 00000001400642c8     msvcprt:MSVCP140.dll
 0002:000002d0       __imp_?id@?$codecvt@DDU_Mbstatet@@@std@@2V0locale@2@A 00000001400642d0     msvcprt:MSVCP140.dll
 0002:000002d8       __imp_?_Fiopen@std@@YAPEAU_iobuf@@PEBDHH@Z 00000001400642d8     msvcprt:MSVCP140.dll
 0002:000002e0       __imp_?uncaught_exception@std@@YA_NXZ 00000001400642e0     msvcprt:MSVCP140.dll
 0002:000002e8       __imp_?_BADOFF@std@@3_JB   00000001400642e8     msvcprt:MSVCP140.dll
 0002:000002f0       __imp_?_Getgloballocale@locale@std@@CAPEAV_Locimp@12@XZ 00000001400642f0     msvcprt:MSVCP140.dll
 0002:000002f8       __imp_??1_Lockit@std@@QEAA@XZ 00000001400642f8     msvcprt:MSVCP140.dll
 0002:00000300       __imp_??0_Lockit@std@@QEAA@H@Z 0000000140064300     msvcprt:MSVCP140.dll
 0002:00000308       __imp_?_Xlength_error@std@@YAXPEBD@Z 0000000140064308     msvcprt:MSVCP140.dll
 0002:00000310       __imp_?_Xbad_alloc@std@@YAXXZ 0000000140064310     msvcprt:MSVCP140.dll
 0002:00000318       __imp_?always_noconv@codecvt_base@std@@QEBA_NXZ 0000000140064318     msvcprt:MSVCP140.dll
 0002:00000320       __imp_??Bid@locale@std@@QEAA_KXZ 0000000140064320     msvcprt:MSVCP140.dll
 0002:00000328       \177MSVCP140_NULL_THUNK_DATA 0000000140064328     msvcprt:MSVCP140.dll
 0002:00000330       __imp_SQLConnect           0000000140064330     KizuODBC:ODBC32.dll
 0002:00000338       __imp_SQLSetConnectAttr    0000000140064338     KizuODBC:ODBC32.dll
 0002:00000340       __imp_SQLTransact          0000000140064340     KizuODBC:ODBC32.dll
 0002:00000348       __imp_SQLExecute           0000000140064348     KizuODBC:ODBC32.dll
 0002:00000350       __imp_SQLAllocHandle       0000000140064350     KizuODBC:ODBC32.dll
 0002:00000358       __imp_SQLFreeHandle        0000000140064358     KizuODBC:ODBC32.dll
 0002:00000360       __imp_SQLDisconnect        0000000140064360     KizuODBC:ODBC32.dll
 0002:00000368       __imp_SQLExecDirect        0000000140064368     KizuODBC:ODBC32.dll
 0002:00000370       __imp_SQLFetch             0000000140064370     KizuODBC:ODBC32.dll
 0002:00000378       __imp_SQLPrepare           0000000140064378     KizuODBC:ODBC32.dll
 0002:00000380       __imp_SQLBindParameter     0000000140064380     KizuODBC:ODBC32.dll
 0002:00000388       __imp_SQLParamData         0000000140064388     KizuODBC:ODBC32.dll
 0002:00000390       __imp_SQLPutData           0000000140064390     KizuODBC:ODBC32.dll
 0002:00000398       __imp_SQLGetData           0000000140064398     KizuODBC:ODBC32.dll
 0002:000003a0       __imp_SQLError             00000001400643a0     KizuODBC:ODBC32.dll
 0002:000003a8       __imp_SQLGetDiagRec        00000001400643a8     KizuODBC:ODBC32.dll
 0002:000003b0       __imp_SQLSetEnvAttr        00000001400643b0     KizuODBC:ODBC32.dll
 0002:000003b8       __imp_SQLRowCount          00000001400643b8     KizuODBC:ODBC32.dll
 0002:000003c0       \177ODBC32_NULL_THUNK_DATA 00000001400643c0     KizuODBC:ODBC32.dll
 0002:000003c8       __imp_PeekMessageA         00000001400643c8     user32:USER32.dll
 0002:000003d0       __imp_EnableWindow         00000001400643d0     user32:USER32.dll
 0002:000003d8       __imp_SendMessageA         00000001400643d8     user32:USER32.dll
 0002:000003e0       __imp_GetCursorPos         00000001400643e0     user32:USER32.dll
 0002:000003e8       __imp_GetParent            00000001400643e8     user32:USER32.dll
 0002:000003f0       __imp_LoadIconW            00000001400643f0     user32:USER32.dll
 0002:000003f8       __imp_GetSystemMenu        00000001400643f8     user32:USER32.dll
 0002:00000400       __imp_PostThreadMessageA   0000000140064400     user32:USER32.dll
 0002:00000408       __imp_MsgWaitForMultipleObjects 0000000140064408     user32:USER32.dll
 0002:00000410       __imp_PostMessageA         0000000140064410     user32:USER32.dll
 0002:00000418       __imp_SetTimer             0000000140064418     user32:USER32.dll
 0002:00000420       __imp_DrawIcon             0000000140064420     user32:USER32.dll
 0002:00000428       __imp_GetClientRect        0000000140064428     user32:USER32.dll
 0002:00000430       __imp_GetSystemMetrics     0000000140064430     user32:USER32.dll
 0002:00000438       __imp_EnableMenuItem       0000000140064438     user32:USER32.dll
 0002:00000440       __imp_IsIconic             0000000140064440     user32:USER32.dll
 0002:00000448       __imp_KillTimer            0000000140064448     user32:USER32.dll
 0002:00000450       \177USER32_NULL_THUNK_DATA 0000000140064450     user32:USER32.dll
 0002:00000458       __imp___vcrt_InitializeCriticalSectionEx 0000000140064458     vcruntime:VCRUNTIME140.dll
 0002:00000460       __imp___CxxFrameHandler3   0000000140064460     vcruntime:VCRUNTIME140.dll
 0002:00000468       __imp___C_specific_handler 0000000140064468     vcruntime:VCRUNTIME140.dll
 0002:00000470       __imp_memset               0000000140064470     vcruntime:VCRUNTIME140.dll
 0002:00000478       __imp__purecall            0000000140064478     vcruntime:VCRUNTIME140.dll
 0002:00000480       __imp_memmove              0000000140064480     vcruntime:VCRUNTIME140.dll
 0002:00000488       __imp___std_exception_copy 0000000140064488     vcruntime:VCRUNTIME140.dll
 0002:00000490       __imp___std_terminate      0000000140064490     vcruntime:VCRUNTIME140.dll
 0002:00000498       __imp__CxxThrowException   0000000140064498     vcruntime:VCRUNTIME140.dll
 0002:000004a0       __imp_memcmp               00000001400644a0     vcruntime:VCRUNTIME140.dll
 0002:000004a8       __imp_memcpy               00000001400644a8     vcruntime:VCRUNTIME140.dll
 0002:000004b0       __imp___std_exception_destroy 00000001400644b0     vcruntime:VCRUNTIME140.dll
 0002:000004b8       \177VCRUNTIME140_NULL_THUNK_DATA 00000001400644b8     vcruntime:VCRUNTIME140.dll
 0002:000004c0       __imp_accept               00000001400644c0     KizuSOCK3:WS2_32.dll
 0002:000004c8       __imp_listen               00000001400644c8     KizuSOCK3:WS2_32.dll
 0002:000004d0       __imp_htonl                00000001400644d0     KizuSOCK3:WS2_32.dll
 0002:000004d8       __imp_shutdown             00000001400644d8     KizuSOCK3:WS2_32.dll
 0002:000004e0       __imp_WSAEnumNetworkEvents 00000001400644e0     KizuLib:WS2_32.dll
 0002:000004e8       __imp_WSARecvFrom          00000001400644e8     KizuLib:WS2_32.dll
 0002:000004f0       __imp_WSAGetLastError      00000001400644f0     KizuLib:WS2_32.dll
 0002:000004f8       __imp_WSAGetOverlappedResult 00000001400644f8     KizuLib:WS2_32.dll
 0002:00000500       __imp_WSASocketA           0000000140064500     KizuLib:WS2_32.dll
 0002:00000508       __imp_sendto               0000000140064508     KizuLib:WS2_32.dll
 0002:00000510       __imp_inet_addr            0000000140064510     KizuLib:WS2_32.dll
 0002:00000518       __imp_WSACleanup           0000000140064518     KizuLib:WS2_32.dll
 0002:00000520       __imp_WSACloseEvent        0000000140064520     KizuLib:WS2_32.dll
 0002:00000528       __imp_WSAEventSelect       0000000140064528     KizuLib:WS2_32.dll
 0002:00000530       __imp_bind                 0000000140064530     KizuLib:WS2_32.dll
 0002:00000538       __imp_htons                0000000140064538     KizuLib:WS2_32.dll
 0002:00000540       __imp_setsockopt           0000000140064540     KizuLib:WS2_32.dll
 0002:00000548       __imp_socket               0000000140064548     KizuLib:WS2_32.dll
 0002:00000550       __imp_WSACreateEvent       0000000140064550     KizuLib:WS2_32.dll
 0002:00000558       __imp_WSAStartup           0000000140064558     KizuLib:WS2_32.dll
 0002:00000560       __imp_recvfrom             0000000140064560     KizuLib:WS2_32.dll
 0002:00000568       __imp_closesocket          0000000140064568     KizuLib:WS2_32.dll
 0002:00000570       \177WS2_32_NULL_THUNK_DATA 0000000140064570     KizuLib:WS2_32.dll
 0002:00000578       __imp_atoi                 0000000140064578     ucrt:api-ms-win-crt-convert-l1-1-0.dll
 0002:00000580       \177api-ms-win-crt-convert-l1-1-0_NULL_THUNK_DATA 0000000140064580     ucrt:api-ms-win-crt-convert-l1-1-0.dll
 0002:00000588       __imp_remove               0000000140064588     ucrt:api-ms-win-crt-filesystem-l1-1-0.dll
 0002:00000590       __imp__mkdir               0000000140064590     ucrt:api-ms-win-crt-filesystem-l1-1-0.dll
 0002:00000598       __imp__lock_file           0000000140064598     ucrt:api-ms-win-crt-filesystem-l1-1-0.dll
 0002:000005a0       __imp_rename               00000001400645a0     ucrt:api-ms-win-crt-filesystem-l1-1-0.dll
 0002:000005a8       __imp__unlock_file         00000001400645a8     ucrt:api-ms-win-crt-filesystem-l1-1-0.dll
 0002:000005b0       \177api-ms-win-crt-filesystem-l1-1-0_NULL_THUNK_DATA 00000001400645b0     ucrt:api-ms-win-crt-filesystem-l1-1-0.dll
 0002:000005b8       __imp__set_new_mode        00000001400645b8     ucrt:api-ms-win-crt-heap-l1-1-0.dll
 0002:000005c0       __imp_free                 00000001400645c0     ucrt:api-ms-win-crt-heap-l1-1-0.dll
 0002:000005c8       \177api-ms-win-crt-heap-l1-1-0_NULL_THUNK_DATA 00000001400645c8     ucrt:api-ms-win-crt-heap-l1-1-0.dll
 0002:000005d0       __imp__setmbcp             00000001400645d0     ucrt:api-ms-win-crt-locale-l1-1-0.dll
 0002:000005d8       __imp__configthreadlocale  00000001400645d8     ucrt:api-ms-win-crt-locale-l1-1-0.dll
 0002:000005e0       __imp_setlocale            00000001400645e0     ucrt:api-ms-win-crt-locale-l1-1-0.dll
 0002:000005e8       \177api-ms-win-crt-locale-l1-1-0_NULL_THUNK_DATA 00000001400645e8     ucrt:api-ms-win-crt-locale-l1-1-0.dll
 0002:000005f0       __imp__finite              00000001400645f0     ucrt:api-ms-win-crt-math-l1-1-0.dll
 0002:000005f8       __imp__isnan               00000001400645f8     ucrt:api-ms-win-crt-math-l1-1-0.dll
 0002:00000600       __imp___setusermatherr     0000000140064600     ucrt:api-ms-win-crt-math-l1-1-0.dll
 0002:00000608       __imp_ceil                 0000000140064608     ucrt:api-ms-win-crt-math-l1-1-0.dll
 0002:00000610       \177api-ms-win-crt-math-l1-1-0_NULL_THUNK_DATA 0000000140064610     ucrt:api-ms-win-crt-math-l1-1-0.dll
 0002:00000618       __imp__invalid_parameter_noinfo_noreturn 0000000140064618     ucrt:api-ms-win-crt-runtime-l1-1-0.dll
 0002:00000620       __imp__errno               0000000140064620     ucrt:api-ms-win-crt-runtime-l1-1-0.dll
 0002:00000628       __imp__beginthreadex       0000000140064628     ucrt:api-ms-win-crt-runtime-l1-1-0.dll
 0002:00000630       __imp_exit                 0000000140064630     ucrt:api-ms-win-crt-runtime-l1-1-0.dll
 0002:00000638       __imp__register_thread_local_exe_atexit_callback 0000000140064638     ucrt:api-ms-win-crt-runtime-l1-1-0.dll
 0002:00000640       __imp__c_exit              0000000140064640     ucrt:api-ms-win-crt-runtime-l1-1-0.dll
 0002:00000648       __imp__invalid_parameter_noinfo 0000000140064648     ucrt:api-ms-win-crt-runtime-l1-1-0.dll
 0002:00000650       __imp__exit                0000000140064650     ucrt:api-ms-win-crt-runtime-l1-1-0.dll
 0002:00000658       __imp__initterm_e          0000000140064658     ucrt:api-ms-win-crt-runtime-l1-1-0.dll
 0002:00000660       __imp__initterm            0000000140064660     ucrt:api-ms-win-crt-runtime-l1-1-0.dll
 0002:00000668       __imp__get_narrow_winmain_command_line 0000000140064668     ucrt:api-ms-win-crt-runtime-l1-1-0.dll
 0002:00000670       __imp__set_app_type        0000000140064670     ucrt:api-ms-win-crt-runtime-l1-1-0.dll
 0002:00000678       __imp__seh_filter_exe      0000000140064678     ucrt:api-ms-win-crt-runtime-l1-1-0.dll
 0002:00000680       __imp_terminate            0000000140064680     ucrt:api-ms-win-crt-runtime-l1-1-0.dll
 0002:00000688       __imp__cexit               0000000140064688     ucrt:api-ms-win-crt-runtime-l1-1-0.dll
 0002:00000690       __imp__crt_atexit          0000000140064690     ucrt:api-ms-win-crt-runtime-l1-1-0.dll
 0002:00000698       __imp__register_onexit_function 0000000140064698     ucrt:api-ms-win-crt-runtime-l1-1-0.dll
 0002:000006a0       __imp__initialize_onexit_table 00000001400646a0     ucrt:api-ms-win-crt-runtime-l1-1-0.dll
 0002:000006a8       __imp__initialize_narrow_environment 00000001400646a8     ucrt:api-ms-win-crt-runtime-l1-1-0.dll
 0002:000006b0       __imp__configure_narrow_argv 00000001400646b0     ucrt:api-ms-win-crt-runtime-l1-1-0.dll
 0002:000006b8       \177api-ms-win-crt-runtime-l1-1-0_NULL_THUNK_DATA 00000001400646b8     ucrt:api-ms-win-crt-runtime-l1-1-0.dll
 0002:000006c0       __imp_ungetc               00000001400646c0     ucrt:api-ms-win-crt-stdio-l1-1-0.dll
 0002:000006c8       __imp___stdio_common_vsprintf_s 00000001400646c8     ucrt:api-ms-win-crt-stdio-l1-1-0.dll
 0002:000006d0       __imp__set_fmode           00000001400646d0     ucrt:api-ms-win-crt-stdio-l1-1-0.dll
 0002:000006d8       __imp___p__commode         00000001400646d8     ucrt:api-ms-win-crt-stdio-l1-1-0.dll
 0002:000006e0       __imp___stdio_common_vsprintf 00000001400646e0     ucrt:api-ms-win-crt-stdio-l1-1-0.dll
 0002:000006e8       __imp_fgetc                00000001400646e8     ucrt:api-ms-win-crt-stdio-l1-1-0.dll
 0002:000006f0       __imp_fclose               00000001400646f0     ucrt:api-ms-win-crt-stdio-l1-1-0.dll
 0002:000006f8       __imp__get_stream_buffer_pointers 00000001400646f8     ucrt:api-ms-win-crt-stdio-l1-1-0.dll
 0002:00000700       __imp_fwrite               0000000140064700     ucrt:api-ms-win-crt-stdio-l1-1-0.dll
 0002:00000708       __imp_fgetpos              0000000140064708     ucrt:api-ms-win-crt-stdio-l1-1-0.dll
 0002:00000710       __imp__fseeki64            0000000140064710     ucrt:api-ms-win-crt-stdio-l1-1-0.dll
 0002:00000718       __imp_fsetpos              0000000140064718     ucrt:api-ms-win-crt-stdio-l1-1-0.dll
 0002:00000720       __imp_setvbuf              0000000140064720     ucrt:api-ms-win-crt-stdio-l1-1-0.dll
 0002:00000728       __imp_fflush               0000000140064728     ucrt:api-ms-win-crt-stdio-l1-1-0.dll
 0002:00000730       __imp_fputc                0000000140064730     ucrt:api-ms-win-crt-stdio-l1-1-0.dll
 0002:00000738       \177api-ms-win-crt-stdio-l1-1-0_NULL_THUNK_DATA 0000000140064738     ucrt:api-ms-win-crt-stdio-l1-1-0.dll
 0002:00000740       __imp__time64              0000000140064740     ucrt:api-ms-win-crt-time-l1-1-0.dll
 0002:00000748       __imp_strftime             0000000140064748     ucrt:api-ms-win-crt-time-l1-1-0.dll
 0002:00000750       __imp__localtime64_s       0000000140064750     ucrt:api-ms-win-crt-time-l1-1-0.dll
 0002:00000758       \177api-ms-win-crt-time-l1-1-0_NULL_THUNK_DATA 0000000140064758     ucrt:api-ms-win-crt-time-l1-1-0.dll
 0002:00000760       __imp_?DrawItem@CListBox@@UEAAXPEAUtagDRAWITEMSTRUCT@@@Z 0000000140064760     mfc140:mfc140.dll
 0002:00000768       __imp_?MeasureItem@CListBox@@UEAAXPEAUtagMEASUREITEMSTRUCT@@@Z 0000000140064768     mfc140:mfc140.dll
 0002:00000770       __imp_?CompareItem@CListBox@@UEAAHPEAUtagCOMPAREITEMSTRUCT@@@Z 0000000140064770     mfc140:mfc140.dll
 0002:00000778       __imp_?DeleteItem@CListBox@@UEAAXPEAUtagDELETEITEMSTRUCT@@@Z 0000000140064778     mfc140:mfc140.dll
 0002:00000780       __imp_?VKeyToItem@CListBox@@UEAAHII@Z 0000000140064780     mfc140:mfc140.dll
 0002:00000788       __imp_?CharToItem@CListBox@@UEAAHII@Z 0000000140064788     mfc140:mfc140.dll
 0002:00000790       __imp_??0CDialogEx@@QEAA@IPEAVCWnd@@@Z 0000000140064790     mfc140:mfc140.dll
 0002:00000798       __imp_?LoadSysPolicies@CWinApp@@UEAAHXZ 0000000140064798     mfc140:mfc140.dll
 0002:000007a0       __imp_?LoadAppLangResourceDLL@CWinApp@@UEAAPEAUHINSTANCE__@@XZ 00000001400647a0     mfc140:mfc140.dll
 0002:000007a8       __imp_?RestartInstance@CWinApp@@UEAAHXZ 00000001400647a8     mfc140:mfc140.dll
 0002:000007b0       __imp_?IsTaskbarInteractionEnabled@CWinApp@@UEAAHXZ 00000001400647b0     mfc140:mfc140.dll
 0002:000007b8       __imp_?GetDataRecoveryHandler@CWinApp@@UEAAPEAVCDataRecoveryHandler@@XZ 00000001400647b8     mfc140:mfc140.dll
 0002:000007c0       __imp_?ApplicationRecoveryCallback@CWinApp@@UEAAKPEAX@Z 00000001400647c0     mfc140:mfc140.dll
 0002:000007c8       __imp_?RegisterWithRestartManager@CWinApp@@UEAAJHAEBV?$CStringT@DV?$StrTraitMFC_DLL@DV?$ChTraitsCRT@D@ATL@@@@@ATL@@@Z 00000001400647c8     mfc140:mfc140.dll
 0002:000007d0       __imp_?RegisterWithRestartManager@CWinApp@@UEAAJPEB_WKP6AKPEAX@Z1KK@Z 00000001400647d0     mfc140:mfc140.dll
 0002:000007d8       __imp_?WinHelpInternal@CWinApp@@UEAAX_KI@Z 00000001400647d8     mfc140:mfc140.dll
 0002:000007e0       __imp_?HtmlHelpA@CWinApp@@UEAAX_KI@Z 00000001400647e0     mfc140:mfc140.dll
 0002:000007e8       __imp_?WinHelpA@CWinApp@@UEAAX_KI@Z 00000001400647e8     mfc140:mfc140.dll
 0002:000007f0       __imp_?OnDDECommand@CWinApp@@UEAAHPEAD@Z 00000001400647f0     mfc140:mfc140.dll
 0002:000007f8       __imp_?DoWaitCursor@CWinApp@@UEAAXH@Z 00000001400647f8     mfc140:mfc140.dll
 0002:00000800       __imp_?DoMessageBox@CWinApp@@UEAAHPEBDII@Z 0000000140064800     mfc140:mfc140.dll
 0002:00000808       __imp_?SaveAllModified@CWinApp@@UEAAHXZ 0000000140064808     mfc140:mfc140.dll
 0002:00000810       __imp_?InitApplication@CWinApp@@UEAAHXZ 0000000140064810     mfc140:mfc140.dll
 0002:00000818       __imp_?AddToRecentFileList@CWinApp@@UEAAXPEBD@Z 0000000140064818     mfc140:mfc140.dll
 0002:00000820       __imp_?OpenDocumentFile@CWinApp@@UEAAPEAVCDocument@@PEBD@Z 0000000140064820     mfc140:mfc140.dll
 0002:00000828       __imp_?OpenDocumentFile@CWinApp@@UEAAPEAVCDocument@@PEBDH@Z 0000000140064828     mfc140:mfc140.dll
 0002:00000830       __imp_?Unregister@CWinApp@@UEAAHXZ 0000000140064830     mfc140:mfc140.dll
 0002:00000838       __imp_?Register@CWinApp@@UEAAHXZ 0000000140064838     mfc140:mfc140.dll
 0002:00000840       __imp_?InitLibId@CWinApp@@UEAAXXZ 0000000140064840     mfc140:mfc140.dll
 0002:00000848       __imp_?WriteProfileBinary@CWinApp@@UEAAHPEBD0PEAEI@Z 0000000140064848     mfc140:mfc140.dll
 0002:00000850       __imp_?GetProfileBinary@CWinApp@@UEAAHPEBD0PEAPEAEPEAI@Z 0000000140064850     mfc140:mfc140.dll
 0002:00000858       __imp_?WriteProfileStringA@CWinApp@@UEAAHPEBD00@Z 0000000140064858     mfc140:mfc140.dll
 0002:00000860       __imp_?GetProfileStringA@CWinApp@@UEAA?AV?$CStringT@DV?$StrTraitMFC_DLL@DV?$ChTraitsCRT@D@ATL@@@@@ATL@@PEBD00@Z 0000000140064860     mfc140:mfc140.dll
 0002:00000868       __imp_?WriteProfileInt@CWinApp@@UEAAHPEBD0H@Z 0000000140064868     mfc140:mfc140.dll
 0002:00000870       __imp_?GetProfileIntA@CWinApp@@UEAAIPEBD0H@Z 0000000140064870     mfc140:mfc140.dll
 0002:00000878       __imp_?Delete@CWinThread@@UEAAXXZ 0000000140064878     mfc140:mfc140.dll
 0002:00000880       __imp_?GetMainWnd@CWinThread@@UEAAPEAVCWnd@@XZ 0000000140064880     mfc140:mfc140.dll
 0002:00000888       __imp_?ProcessMessageFilter@CWinThread@@UEAAHHPEAUtagMSG@@@Z 0000000140064888     mfc140:mfc140.dll
 0002:00000890       __imp_?ProcessWndProcException@CWinApp@@UEAA_JPEAVCException@@PEBUtagMSG@@@Z 0000000140064890     mfc140:mfc140.dll
 0002:00000898       __imp_?ExitInstance@CWinApp@@UEAAHXZ 0000000140064898     mfc140:mfc140.dll
 0002:000008a0       __imp_?IsIdleMessage@CWinThread@@UEAAHPEAUtagMSG@@@Z 00000001400648a0     mfc140:mfc140.dll
 0002:000008a8       __imp_?OnIdle@CWinApp@@UEAAHJ@Z 00000001400648a8     mfc140:mfc140.dll
 0002:000008b0       __imp_?PumpMessage@CWinThread@@UEAAHXZ 00000001400648b0     mfc140:mfc140.dll
 0002:000008b8       __imp_?PreTranslateMessage@CWinThread@@UEAAHPEAUtagMSG@@@Z 00000001400648b8     mfc140:mfc140.dll
 0002:000008c0       __imp_?Run@CWinApp@@UEAAHXZ 00000001400648c0     mfc140:mfc140.dll
 0002:000008c8       __imp_?GetInterfaceMap@CCmdTarget@@MEBAPEBUAFX_INTERFACEMAP@@XZ 00000001400648c8     mfc140:mfc140.dll
 0002:000008d0       __imp_?OnFinalRelease@CCmdTarget@@UEAAXXZ 00000001400648d0     mfc140:mfc140.dll
 0002:000008d8       __imp_?GetRuntimeClass@CWinApp@@UEBAPEAUCRuntimeClass@@XZ 00000001400648d8     mfc140:mfc140.dll
 0002:000008e0       __imp_??1CDialogImpl@@MEAA@XZ 00000001400648e0     mfc140:mfc140.dll
 0002:000008e8       __imp_?GetRuntimeClass@CBrush@@UEBAPEAUCRuntimeClass@@XZ 00000001400648e8     mfc140:mfc140.dll
 0002:000008f0       __imp_??1CDialog@@UEAA@XZ  00000001400648f0     mfc140:mfc140.dll
 0002:000008f8       __imp_?Create@CListBox@@UEAAHKAEBUtagRECT@@PEAVCWnd@@I@Z 00000001400648f8     mfc140:mfc140.dll
 0002:00000900       __imp_?DoModal@CDialog@@UEAA_JXZ 0000000140064900     mfc140:mfc140.dll
 0002:00000908       __imp_?SetRegistryKey@CWinApp@@IEAAXPEBD@Z 0000000140064908     mfc140:mfc140.dll
 0002:00000910       __imp_?GetThisClass@CMFCVisualManagerWindows@@SAPEAUCRuntimeClass@@XZ 0000000140064910     mfc140:mfc140.dll
 0002:00000918       __imp_?SetDefaultManager@CMFCVisualManager@@SAXPEAUCRuntimeClass@@@Z 0000000140064918     mfc140:mfc140.dll
 0002:00000920       __imp_??0CShellManager@@QEAA@XZ 0000000140064920     mfc140:mfc140.dll
 0002:00000928       __imp_?AfxEnableControlContainer@@YAXPEAVCOccManager@@@Z 0000000140064928     mfc140:mfc140.dll
 0002:00000930       __imp_?InitInstance@CWinApp@@UEAAHXZ 0000000140064930     mfc140:mfc140.dll
 0002:00000938       __imp_??1CWinApp@@UEAA@XZ  0000000140064938     mfc140:mfc140.dll
 0002:00000940       __imp_??0CWinApp@@QEAA@PEBD@Z 0000000140064940     mfc140:mfc140.dll
 0002:00000948       __imp_?GetThisMessageMap@CWinApp@@KAPEBUAFX_MSGMAP@@XZ 0000000140064948     mfc140:mfc140.dll
 0002:00000950       __imp_?OnHelp@CWinApp@@IEAAXXZ 0000000140064950     mfc140:mfc140.dll
 0002:00000958       __imp_?SpanIncluding@?$CStringT@DV?$StrTraitMFC_DLL@DV?$ChTraitsCRT@D@ATL@@@@@ATL@@QEBA?AV12@PEBD@Z 0000000140064958     mfc140:mfc140.dll
 0002:00000960       __imp_?Mid@?$CStringT@DV?$StrTraitMFC_DLL@DV?$ChTraitsCRT@D@ATL@@@@@ATL@@QEBA?AV12@H@Z 0000000140064960     mfc140:mfc140.dll
 0002:00000968       __imp_?FindOneOf@?$CStringT@DV?$StrTraitMFC_DLL@DV?$ChTraitsCRT@D@ATL@@@@@ATL@@QEBAHPEBD@Z 0000000140064968     mfc140:mfc140.dll
 0002:00000970       __imp_?Replace@?$CStringT@DV?$StrTraitMFC_DLL@DV?$ChTraitsCRT@D@ATL@@@@@ATL@@QEAAHPEBD0@Z 0000000140064970     mfc140:mfc140.dll
 0002:00000978       __imp_?GetThisMessageMap@CListCtrl@@KAPEBUAFX_MSGMAP@@XZ 0000000140064978     mfc140:mfc140.dll
 0002:00000980       __imp_?FromHandle@CWnd@@SAPEAV1@PEAUHWND__@@@Z 0000000140064980     mfc140:mfc140.dll
 0002:00000988       __imp_?GetDlgCtrlID@CWnd@@QEBAHXZ 0000000140064988     mfc140:mfc140.dll
 0002:00000990       __imp_?MoveWindow@CWnd@@QEAAXHHHHH@Z 0000000140064990     mfc140:mfc140.dll
 0002:00000998       __imp_?Default@CWnd@@IEAA_JXZ 0000000140064998     mfc140:mfc140.dll
 0002:000009a0       __imp_?SetWindowTextA@CWnd@@QEAAXPEBD@Z 00000001400649a0     mfc140:mfc140.dll
 0002:000009a8       __imp_?GetRuntimeClass@CButton@@UEBAPEAUCRuntimeClass@@XZ 00000001400649a8     mfc140:mfc140.dll
 0002:000009b0       __imp_?GetMessageMap@CWnd@@MEBAPEBUAFX_MSGMAP@@XZ 00000001400649b0     mfc140:mfc140.dll
 0002:000009b8       __imp_?OnChildNotify@CButton@@MEAAHI_K_JPEA_J@Z 00000001400649b8     mfc140:mfc140.dll
 0002:000009c0       __imp_?Create@CButton@@UEAAHPEBDKAEBUtagRECT@@PEAVCWnd@@I@Z 00000001400649c0     mfc140:mfc140.dll
 0002:000009c8       __imp_?DrawItem@CButton@@UEAAXPEAUtagDRAWITEMSTRUCT@@@Z 00000001400649c8     mfc140:mfc140.dll
 0002:000009d0       __imp_?GetSubItemRect@CListCtrl@@QEBAHHHHAEAVCRect@@@Z 00000001400649d0     mfc140:mfc140.dll
 0002:000009d8       __imp_?GetItemText@CListCtrl@@QEBA?AV?$CStringT@DV?$StrTraitMFC_DLL@DV?$ChTraitsCRT@D@ATL@@@@@ATL@@HH@Z 00000001400649d8     mfc140:mfc140.dll
 0002:000009e0       __imp_?Attach@CGdiObject@@QEAAHPEAX@Z 00000001400649e0     mfc140:mfc140.dll
 0002:000009e8       __imp_?FromHandle@CGdiObject@@SAPEAV1@PEAX@Z 00000001400649e8     mfc140:mfc140.dll
 0002:000009f0       __imp_??1CButton@@UEAA@XZ  00000001400649f0     mfc140:mfc140.dll
 0002:000009f8       __imp_?GetRuntimeClass@CGdiObject@@UEBAPEAUCRuntimeClass@@XZ 00000001400649f8     mfc140:mfc140.dll
 0002:00000a00       __imp_?DeleteObject@CGdiObject@@QEAAHXZ 0000000140064a00     mfc140:mfc140.dll
 0002:00000a08       __imp_?AfxMessageBox@@YAHPEBDII@Z 0000000140064a08     mfc140:mfc140.dll
 0002:00000a10       __imp_?GetRuntimeClass@CFont@@UEBAPEAUCRuntimeClass@@XZ 0000000140064a10     mfc140:mfc140.dll
 0002:00000a18       __imp_??1CListCtrl@@UEAA@XZ 0000000140064a18     mfc140:mfc140.dll
 0002:00000a20       __imp_??0CWnd@@QEAA@XZ     0000000140064a20     mfc140:mfc140.dll
 0002:00000a28       __imp_?GetRuntimeClass@CListCtrl@@UEBAPEAUCRuntimeClass@@XZ 0000000140064a28     mfc140:mfc140.dll
 0002:00000a30       __imp_?OnCmdMsg@CCmdTarget@@UEAAHIHPEAXPEAUAFX_CMDHANDLERINFO@@@Z 0000000140064a30     mfc140:mfc140.dll
 0002:00000a38       __imp_?OnFinalRelease@CWnd@@UEAAXXZ 0000000140064a38     mfc140:mfc140.dll
 0002:00000a40       __imp_?GetRuntimeClass@CListBox@@UEBAPEAUCRuntimeClass@@XZ 0000000140064a40     mfc140:mfc140.dll
 0002:00000a48       __imp_?GetDispatchIID@CCmdTarget@@UEAAHPEAU_GUID@@@Z 0000000140064a48     mfc140:mfc140.dll
 0002:00000a50       __imp_?GetTypeInfoCount@CCmdTarget@@UEAAIXZ 0000000140064a50     mfc140:mfc140.dll
 0002:00000a58       __imp_?GetTypeLibCache@CCmdTarget@@UEAAPEAVCTypeLibCache@@XZ 0000000140064a58     mfc140:mfc140.dll
 0002:00000a60       __imp_?GetTypeLib@CCmdTarget@@UEAAJKPEAPEAUITypeLib@@@Z 0000000140064a60     mfc140:mfc140.dll
 0002:00000a68       __imp_?GetMessageMap@CListCtrl@@MEBAPEBUAFX_MSGMAP@@XZ 0000000140064a68     mfc140:mfc140.dll
 0002:00000a70       __imp_?GetCommandMap@CCmdTarget@@MEBAPEBUAFX_OLECMDMAP@@XZ 0000000140064a70     mfc140:mfc140.dll
 0002:00000a78       __imp_?GetDispatchMap@CCmdTarget@@MEBAPEBUAFX_DISPMAP@@XZ 0000000140064a78     mfc140:mfc140.dll
 0002:00000a80       __imp_??1CListBox@@UEAA@XZ 0000000140064a80     mfc140:mfc140.dll
 0002:00000a88       __imp_?OnChildNotify@CListBox@@MEAAHI_K_JPEA_J@Z 0000000140064a88     mfc140:mfc140.dll
 0002:00000a90       __imp_?GetConnectionMap@CCmdTarget@@MEBAPEBUAFX_CONNECTIONMAP@@XZ 0000000140064a90     mfc140:mfc140.dll
 0002:00000a98       __imp_?GetInterfaceMap@CWnd@@MEBAPEBUAFX_INTERFACEMAP@@XZ 0000000140064a98     mfc140:mfc140.dll
 0002:00000aa0       __imp_?GetEventSinkMap@CCmdTarget@@MEBAPEBUAFX_EVENTSINKMAP@@XZ 0000000140064aa0     mfc140:mfc140.dll
 0002:00000aa8       __imp_?OnCreateAggregates@CCmdTarget@@UEAAHXZ 0000000140064aa8     mfc140:mfc140.dll
 0002:00000ab0       __imp_?GetInterfaceHook@CCmdTarget@@UEAAPEAUIUnknown@@PEBX@Z 0000000140064ab0     mfc140:mfc140.dll
 0002:00000ab8       __imp_?GetExtraConnectionPoints@CCmdTarget@@MEAAHPEAVCPtrArray@@@Z 0000000140064ab8     mfc140:mfc140.dll
 0002:00000ac0       __imp_?GetConnectionHook@CCmdTarget@@MEAAPEAUIConnectionPoint@@AEBU_GUID@@@Z 0000000140064ac0     mfc140:mfc140.dll
 0002:00000ac8       __imp_?PreSubclassWindow@CWnd@@UEAAXXZ 0000000140064ac8     mfc140:mfc140.dll
 0002:00000ad0       __imp_?Create@CWnd@@UEAAHPEBD0KAEBUtagRECT@@PEAV1@IPEAUCCreateContext@@@Z 0000000140064ad0     mfc140:mfc140.dll
 0002:00000ad8       __imp_?CreateEx@CWnd@@UEAAHKPEBD0KAEBUtagRECT@@PEAV1@IPEAX@Z 0000000140064ad8     mfc140:mfc140.dll
 0002:00000ae0       __imp_?CreateEx@CWnd@@UEAAHKPEBD0KHHHHPEAUHWND__@@PEAUHMENU__@@PEAX@Z 0000000140064ae0     mfc140:mfc140.dll
 0002:00000ae8       __imp_?DestroyWindow@CWnd@@UEAAHXZ 0000000140064ae8     mfc140:mfc140.dll
 0002:00000af0       __imp_?PreCreateWindow@CWnd@@UEAAHAEAUtagCREATESTRUCTA@@@Z 0000000140064af0     mfc140:mfc140.dll
 0002:00000af8       __imp_?CalcWindowRect@CWnd@@UEAAXPEAUtagRECT@@I@Z 0000000140064af8     mfc140:mfc140.dll
 0002:00000b00       __imp_?GetMenu@CWnd@@UEBAPEAVCMenu@@XZ 0000000140064b00     mfc140:mfc140.dll
 0002:00000b08       __imp_?SetMenu@CWnd@@UEAAHPEAVCMenu@@@Z 0000000140064b08     mfc140:mfc140.dll
 0002:00000b10       __imp_?OnToolHitTest@CWnd@@UEBA_JVCPoint@@PEAUtagTOOLINFOA@@@Z 0000000140064b10     mfc140:mfc140.dll
 0002:00000b18       __imp_?GetScrollBarCtrl@CWnd@@UEBAPEAVCScrollBar@@H@Z 0000000140064b18     mfc140:mfc140.dll
 0002:00000b20       __imp_?WinHelpA@CWnd@@UEAAX_KI@Z 0000000140064b20     mfc140:mfc140.dll
 0002:00000b28       __imp_?HtmlHelpA@CWnd@@UEAAX_KI@Z 0000000140064b28     mfc140:mfc140.dll
 0002:00000b30       __imp_?WinHelpInternal@CWnd@@UEAAX_KI@Z 0000000140064b30     mfc140:mfc140.dll
 0002:00000b38       __imp_?ContinueModal@CWnd@@UEAAHXZ 0000000140064b38     mfc140:mfc140.dll
 0002:00000b40       __imp_?EndModalLoop@CWnd@@UEAAXH@Z 0000000140064b40     mfc140:mfc140.dll
 0002:00000b48       __imp_?OnDrawIconicThumbnailOrLivePreview@CWnd@@UEAAXAEAVCDC@@VCRect@@VCSize@@HAEAH@Z 0000000140064b48     mfc140:mfc140.dll
 0002:00000b50       __imp_?EnsureStdObj@CWnd@@UEAAJXZ 0000000140064b50     mfc140:mfc140.dll
 0002:00000b58       __imp_?get_accParent@CWnd@@UEAAJPEAPEAUIDispatch@@@Z 0000000140064b58     mfc140:mfc140.dll
 0002:00000b60       __imp_?get_accChildCount@CWnd@@UEAAJPEAJ@Z 0000000140064b60     mfc140:mfc140.dll
 0002:00000b68       __imp_?get_accChild@CWnd@@UEAAJUtagVARIANT@@PEAPEAUIDispatch@@@Z 0000000140064b68     mfc140:mfc140.dll
 0002:00000b70       __imp_?get_accName@CWnd@@UEAAJUtagVARIANT@@PEAPEA_W@Z 0000000140064b70     mfc140:mfc140.dll
 0002:00000b78       __imp_?get_accValue@CWnd@@UEAAJUtagVARIANT@@PEAPEA_W@Z 0000000140064b78     mfc140:mfc140.dll
 0002:00000b80       __imp_?get_accDescription@CWnd@@UEAAJUtagVARIANT@@PEAPEA_W@Z 0000000140064b80     mfc140:mfc140.dll
 0002:00000b88       __imp_?get_accRole@CWnd@@UEAAJUtagVARIANT@@PEAU2@@Z 0000000140064b88     mfc140:mfc140.dll
 0002:00000b90       __imp_?get_accState@CWnd@@UEAAJUtagVARIANT@@PEAU2@@Z 0000000140064b90     mfc140:mfc140.dll
 0002:00000b98       __imp_?get_accHelp@CWnd@@UEAAJUtagVARIANT@@PEAPEA_W@Z 0000000140064b98     mfc140:mfc140.dll
 0002:00000ba0       __imp_?get_accHelpTopic@CWnd@@UEAAJPEAPEA_WUtagVARIANT@@PEAJ@Z 0000000140064ba0     mfc140:mfc140.dll
 0002:00000ba8       __imp_?get_accKeyboardShortcut@CWnd@@UEAAJUtagVARIANT@@PEAPEA_W@Z 0000000140064ba8     mfc140:mfc140.dll
 0002:00000bb0       __imp_?get_accFocus@CWnd@@UEAAJPEAUtagVARIANT@@@Z 0000000140064bb0     mfc140:mfc140.dll
 0002:00000bb8       __imp_?get_accSelection@CWnd@@UEAAJPEAUtagVARIANT@@@Z 0000000140064bb8     mfc140:mfc140.dll
 0002:00000bc0       __imp_?get_accDefaultAction@CWnd@@UEAAJUtagVARIANT@@PEAPEA_W@Z 0000000140064bc0     mfc140:mfc140.dll
 0002:00000bc8       __imp_?accSelect@CWnd@@UEAAJJUtagVARIANT@@@Z 0000000140064bc8     mfc140:mfc140.dll
 0002:00000bd0       __imp_?accLocation@CWnd@@UEAAJPEAJ000UtagVARIANT@@@Z 0000000140064bd0     mfc140:mfc140.dll
 0002:00000bd8       __imp_?accNavigate@CWnd@@UEAAJJUtagVARIANT@@PEAU2@@Z 0000000140064bd8     mfc140:mfc140.dll
 0002:00000be0       __imp_?accHitTest@CWnd@@UEAAJJJPEAUtagVARIANT@@@Z 0000000140064be0     mfc140:mfc140.dll
 0002:00000be8       __imp_?accDoDefaultAction@CWnd@@UEAAJUtagVARIANT@@@Z 0000000140064be8     mfc140:mfc140.dll
 0002:00000bf0       __imp_?put_accName@CWnd@@UEAAJUtagVARIANT@@PEA_W@Z 0000000140064bf0     mfc140:mfc140.dll
 0002:00000bf8       __imp_?put_accValue@CWnd@@UEAAJUtagVARIANT@@PEA_W@Z 0000000140064bf8     mfc140:mfc140.dll
 0002:00000c00       __imp_?SetProxy@CWnd@@UEAAJPEAUIAccessibleProxy@@@Z 0000000140064c00     mfc140:mfc140.dll
 0002:00000c08       __imp_?CreateAccessibleProxy@CWnd@@UEAAJ_K_JPEA_J@Z 0000000140064c08     mfc140:mfc140.dll
 0002:00000c10       __imp_?OnCommand@CWnd@@MEAAH_K_J@Z 0000000140064c10     mfc140:mfc140.dll
 0002:00000c18       __imp_?OnNotify@CWnd@@MEAAH_K_JPEA_J@Z 0000000140064c18     mfc140:mfc140.dll
 0002:00000c20       __imp_?GetSuperWndProcAddr@CWnd@@MEAAPEAP6A_JPEAUHWND__@@I_K_J@ZXZ 0000000140064c20     mfc140:mfc140.dll
 0002:00000c28       __imp_?PreTranslateMessage@CWnd@@UEAAHPEAUtagMSG@@@Z 0000000140064c28     mfc140:mfc140.dll
 0002:00000c30       __imp_?OnAmbientProperty@CWnd@@UEAAHPEAVCOleControlSite@@JPEAUtagVARIANT@@@Z 0000000140064c30     mfc140:mfc140.dll
 0002:00000c38       __imp_?WindowProc@CWnd@@MEAA_JI_K_J@Z 0000000140064c38     mfc140:mfc140.dll
 0002:00000c40       __imp_?OnWndMsg@CWnd@@MEAAHI_K_JPEA_J@Z 0000000140064c40     mfc140:mfc140.dll
 0002:00000c48       __imp_?DefWindowProcA@CWnd@@MEAA_JI_K_J@Z 0000000140064c48     mfc140:mfc140.dll
 0002:00000c50       __imp_?PostNcDestroy@CWnd@@MEAAXXZ 0000000140064c50     mfc140:mfc140.dll
 0002:00000c58       __imp_?OnChildNotify@CListCtrl@@MEAAHI_K_JPEA_J@Z 0000000140064c58     mfc140:mfc140.dll
 0002:00000c60       __imp_?OnTouchInputs@CWnd@@MEAAHIPEAUtagTOUCHINPUT@@@Z 0000000140064c60     mfc140:mfc140.dll
 0002:00000c68       __imp_?OnTouchInput@CWnd@@MEAAHVCPoint@@HHPEAUtagTOUCHINPUT@@@Z 0000000140064c68     mfc140:mfc140.dll
 0002:00000c70       __imp_?GetGestureStatus@CWnd@@MEAAKVCPoint@@@Z 0000000140064c70     mfc140:mfc140.dll
 0002:00000c78       __imp_?OnGestureZoom@CWnd@@MEAAHVCPoint@@J@Z 0000000140064c78     mfc140:mfc140.dll
 0002:00000c80       __imp_?OnGesturePan@CWnd@@MEAAHVCPoint@@0@Z 0000000140064c80     mfc140:mfc140.dll
 0002:00000c88       __imp_?OnGestureRotate@CWnd@@MEAAHVCPoint@@N@Z 0000000140064c88     mfc140:mfc140.dll
 0002:00000c90       __imp_?OnGestureTwoFingerTap@CWnd@@MEAAHVCPoint@@@Z 0000000140064c90     mfc140:mfc140.dll
 0002:00000c98       __imp_?OnGesturePressAndTap@CWnd@@MEAAHVCPoint@@J@Z 0000000140064c98     mfc140:mfc140.dll
 0002:00000ca0       __imp_?ResizeDynamicLayout@CWnd@@MEAAXXZ 0000000140064ca0     mfc140:mfc140.dll
 0002:00000ca8       __imp_?CheckAutoCenter@CWnd@@UEAAHXZ 0000000140064ca8     mfc140:mfc140.dll
 0002:00000cb0       __imp_?AfxFindResourceHandle@@YAPEAUHINSTANCE__@@PEBD0@Z 0000000140064cb0     mfc140:mfc140.dll
 0002:00000cb8       __imp_?IsFrameWnd@CWnd@@UEBAHXZ 0000000140064cb8     mfc140:mfc140.dll
 0002:00000cc0       __imp_?CreateControlContainer@CWnd@@MEAAHPEAPEAVCOleControlContainer@@@Z 0000000140064cc0     mfc140:mfc140.dll
 0002:00000cc8       __imp_?AfxGetModuleState@@YAPEAVAFX_MODULE_STATE@@XZ 0000000140064cc8     mfc140:mfc140.dll
 0002:00000cd0       __imp_?SetItemText@CListCtrl@@QEAAHHHPEBD@Z 0000000140064cd0     mfc140:mfc140.dll
 0002:00000cd8       __imp_?Right@?$CStringT@DV?$StrTraitMFC_DLL@DV?$ChTraitsCRT@D@ATL@@@@@ATL@@QEBA?AV12@H@Z 0000000140064cd8     mfc140:mfc140.dll
 0002:00000ce0       __imp_?Delete@?$CStringT@DV?$StrTraitMFC_DLL@DV?$ChTraitsCRT@D@ATL@@@@@ATL@@QEAAHHH@Z 0000000140064ce0     mfc140:mfc140.dll
 0002:00000ce8       __imp_??0?$CStringT@DV?$StrTraitMFC_DLL@DV?$ChTraitsCRT@D@ATL@@@@@ATL@@QEAA@PEBDH@Z 0000000140064ce8     mfc140:mfc140.dll
 0002:00000cf0       __imp_?CreateControlSite@CWnd@@MEAAHPEAVCOleControlContainer@@PEAPEAVCOleControlSite@@IAEBU_GUID@@@Z 0000000140064cf0     mfc140:mfc140.dll
 0002:00000cf8       __imp_?SetOccDialogInfo@CWnd@@MEAAHPEAU_AFX_OCC_DIALOG_INFO@@@Z 0000000140064cf8     mfc140:mfc140.dll
 0002:00000d00       __imp_?GetOccDialogInfo@CWnd@@MEAAPEAU_AFX_OCC_DIALOG_INFO@@XZ 0000000140064d00     mfc140:mfc140.dll
 0002:00000d08       __imp_?Compare@?$CStringT@DV?$StrTraitMFC_DLL@DV?$ChTraitsCRT@D@ATL@@@@@ATL@@QEBAHPEBD@Z 0000000140064d08     mfc140:mfc140.dll
 0002:00000d10       __imp_?GetBuffer@?$CSimpleStringT@D$00@ATL@@QEAAPEADXZ 0000000140064d10     mfc140:mfc140.dll
 0002:00000d18       __imp_?GetManager@?$CStringT@DV?$StrTraitMFC_DLL@DV?$ChTraitsCRT@D@ATL@@@@@ATL@@QEBAPEAUIAtlStringMgr@2@XZ 0000000140064d18     mfc140:mfc140.dll
 0002:00000d20       __imp_??0?$CStringT@DV?$StrTraitMFC_DLL@DV?$ChTraitsCRT@D@ATL@@@@@ATL@@QEAA@PEAUIAtlStringMgr@1@@Z 0000000140064d20     mfc140:mfc140.dll
 0002:00000d28       __imp_?Concatenate@?$CSimpleStringT@D$00@ATL@@KAXAEAV12@PEBDH1H@Z 0000000140064d28     mfc140:mfc140.dll
 0002:00000d30       __imp_?DrawItem@CListCtrl@@UEAAXPEAUtagDRAWITEMSTRUCT@@@Z 0000000140064d30     mfc140:mfc140.dll
 0002:00000d38       __imp_?GetThisClass@CListCtrl@@SAPEAUCRuntimeClass@@XZ 0000000140064d38     mfc140:mfc140.dll
 0002:00000d40       __imp_?PreInitDialog@CDialog@@MEAAXXZ 0000000140064d40     mfc140:mfc140.dll
 0002:00000d48       __imp_?OnOK@CDialog@@MEAAXXZ 0000000140064d48     mfc140:mfc140.dll
 0002:00000d50       __imp_?AfxThrowMemoryException@@YAXXZ 0000000140064d50     mfc140:mfc140.dll
 0002:00000d58       __imp_?OnSetFont@CDialog@@UEAAXPEAVCFont@@@Z 0000000140064d58     mfc140:mfc140.dll
 0002:00000d60       __imp_?CreateIndirect@CDialog@@UEAAHPEBUDLGTEMPLATE@@PEAVCWnd@@PEAX@Z 0000000140064d60     mfc140:mfc140.dll
 0002:00000d68       __imp_?AfxThrowOleException@@YAXJ@Z 0000000140064d68     mfc140:mfc140.dll
 0002:00000d70       __imp_?AppendFormat@?$CStringT@DV?$StrTraitMFC_DLL@DV?$ChTraitsCRT@D@ATL@@@@@ATL@@QEAAXPEBDZZ 0000000140064d70     mfc140:mfc140.dll
 0002:00000d78       __imp_?DDX_Control@@YAXPEAVCDataExchange@@HAEAVCWnd@@@Z 0000000140064d78     mfc140:mfc140.dll
 0002:00000d80       __imp_?Create@CDialog@@UEAAHPEBDPEAVCWnd@@@Z 0000000140064d80     mfc140:mfc140.dll
 0002:00000d88       __imp_?GetOccDialogInfo@CDialog@@MEAAPEAU_AFX_OCC_DIALOG_INFO@@XZ 0000000140064d88     mfc140:mfc140.dll
 0002:00000d90       __imp_?SetOccDialogInfo@CDialog@@MEAAHPEAU_AFX_OCC_DIALOG_INFO@@@Z 0000000140064d90     mfc140:mfc140.dll
 0002:00000d98       __imp_??4?$CStringT@DV?$StrTraitMFC_DLL@DV?$ChTraitsCRT@D@ATL@@@@@ATL@@QEAAAEAV01@AEBV01@@Z 0000000140064d98     mfc140:mfc140.dll
 0002:00000da0       __imp_?CheckAutoCenter@CDialog@@UEAAHXZ 0000000140064da0     mfc140:mfc140.dll
 0002:00000da8       __imp_?PreTranslateMessage@CDialogEx@@UEAAHPEAUtagMSG@@@Z 0000000140064da8     mfc140:mfc140.dll
 0002:00000db0       __imp_?OnCommand@CDialogEx@@MEAAH_K_J@Z 0000000140064db0     mfc140:mfc140.dll
 0002:00000db8       __imp_?OnCmdMsg@CDialog@@UEAAHIHPEAXPEAUAFX_CMDHANDLERINFO@@@Z 0000000140064db8     mfc140:mfc140.dll
 0002:00000dc0       __imp_?GetRuntimeClass@CDialogEx@@UEBAPEAUCRuntimeClass@@XZ 0000000140064dc0     mfc140:mfc140.dll
 0002:00000dc8       __imp_?OnChildNotify@CWnd@@MEAAHI_K_JPEA_J@Z 0000000140064dc8     mfc140:mfc140.dll
 0002:00000dd0       __imp_?SetDlgItemInt@CWnd@@QEAAXHIH@Z 0000000140064dd0     mfc140:mfc140.dll
 0002:00000dd8       __imp_?GetDlgItemInt@CWnd@@QEBAIHPEAHH@Z 0000000140064dd8     mfc140:mfc140.dll
 0002:00000de0       __imp_?IsDlgButtonChecked@CWnd@@QEBAIH@Z 0000000140064de0     mfc140:mfc140.dll
 0002:00000de8       __imp_?MessageBoxA@CWnd@@QEAAHPEBD0I@Z 0000000140064de8     mfc140:mfc140.dll
 0002:00000df0       __imp_?OnPaint@CDialog@@IEAAXXZ 0000000140064df0     mfc140:mfc140.dll
 0002:00000df8       __imp_??1CPaintDC@@UEAA@XZ 0000000140064df8     mfc140:mfc140.dll
 0002:00000e00       __imp_??0CPaintDC@@QEAA@PEAVCWnd@@@Z 0000000140064e00     mfc140:mfc140.dll
 0002:00000e08       __imp_?FromHandle@CMenu@@SAPEAV1@PEAUHMENU__@@@Z 0000000140064e08     mfc140:mfc140.dll
 0002:00000e10       __imp_?GetWindowTextA@CWnd@@QEBAXAEAV?$CStringT@DV?$StrTraitMFC_DLL@DV?$ChTraitsCRT@D@ATL@@@@@ATL@@@Z 0000000140064e10     mfc140:mfc140.dll
 0002:00000e18       __imp_?InsertItem@CListCtrl@@QEAAHIHPEBDIIH_J@Z 0000000140064e18     mfc140:mfc140.dll
 0002:00000e20       __imp_?Empty@?$CSimpleStringT@D$00@ATL@@QEAAXXZ 0000000140064e20     mfc140:mfc140.dll
 0002:00000e28       __imp_?FromHandle@CImageList@@SAPEAV1@PEAU_IMAGELIST@@@Z 0000000140064e28     mfc140:mfc140.dll
 0002:00000e30       __imp_?Create@CImageList@@QEAAHHHIHH@Z 0000000140064e30     mfc140:mfc140.dll
 0002:00000e38       __imp_??1CImageList@@UEAA@XZ 0000000140064e38     mfc140:mfc140.dll
 0002:00000e40       __imp_??0CImageList@@QEAA@XZ 0000000140064e40     mfc140:mfc140.dll
 0002:00000e48       __imp_?GetDlgItem@CWnd@@QEBAPEAV1@H@Z 0000000140064e48     mfc140:mfc140.dll
 0002:00000e50       __imp_?SubclassWindow@CWnd@@QEAAHPEAUHWND__@@@Z 0000000140064e50     mfc140:mfc140.dll
 0002:00000e58       __imp_?SetDlgItemTextA@CWnd@@QEAAXHPEBD@Z 0000000140064e58     mfc140:mfc140.dll
 0002:00000e60       __imp_??4?$CStringT@DV?$StrTraitMFC_DLL@DV?$ChTraitsCRT@D@ATL@@@@@ATL@@QEAAAEAV01@PEBD@Z 0000000140064e60     mfc140:mfc140.dll
 0002:00000e68       __imp_??Y?$CStringT@DV?$StrTraitMFC_DLL@DV?$ChTraitsCRT@D@ATL@@@@@ATL@@QEAAAEAV01@AEBV?$CSimpleStringT@D$00@1@@Z 0000000140064e68     mfc140:mfc140.dll
 0002:00000e70       __imp_?CheckRadioButton@CWnd@@QEAAXHHH@Z 0000000140064e70     mfc140:mfc140.dll
 0002:00000e78       __imp_??Y?$CStringT@DV?$StrTraitMFC_DLL@DV?$ChTraitsCRT@D@ATL@@@@@ATL@@QEAAAEAV01@PEBD@Z 0000000140064e78     mfc140:mfc140.dll
 0002:00000e80       __imp_?CheckDlgButton@CWnd@@QEAAXHI@Z 0000000140064e80     mfc140:mfc140.dll
 0002:00000e88       __imp_??0?$CStringT@DV?$StrTraitMFC_DLL@DV?$ChTraitsCRT@D@ATL@@@@@ATL@@QEAA@AEBV01@@Z 0000000140064e88     mfc140:mfc140.dll
 0002:00000e90       __imp_?OnInitDialog@CDialog@@UEAAHXZ 0000000140064e90     mfc140:mfc140.dll
 0002:00000e98       __imp_?Format@?$CStringT@DV?$StrTraitMFC_DLL@DV?$ChTraitsCRT@D@ATL@@@@@ATL@@QEAAXPEBDZZ 0000000140064e98     mfc140:mfc140.dll
 0002:00000ea0       __imp_??0?$CStringT@DV?$StrTraitMFC_DLL@DV?$ChTraitsCRT@D@ATL@@@@@ATL@@QEAA@XZ 0000000140064ea0     mfc140:mfc140.dll
 0002:00000ea8       __imp_?GetThisMessageMap@CDialogEx@@KAPEBUAFX_MSGMAP@@XZ 0000000140064ea8     mfc140:mfc140.dll
 0002:00000eb0       __imp_??_U@YAPEAX_K@Z      0000000140064eb0     mfc140:mfc140.dll
 0002:00000eb8       __imp_?IsInvokeAllowed@CCmdTarget@@UEAAHJ@Z 0000000140064eb8     mfc140:mfc140.dll
 0002:00000ec0       __imp_?DDX_Radio@@YAXPEAVCDataExchange@@HAEAH@Z 0000000140064ec0     mfc140:mfc140.dll
 0002:00000ec8       __imp_??3@YAXPEAX@Z        0000000140064ec8     mfc140:mfc140.dll
 0002:00000ed0       __imp_??2@YAPEAX_K@Z       0000000140064ed0     mfc140:mfc140.dll
 0002:00000ed8       __imp_??1?$CStringT@DV?$StrTraitMFC_DLL@DV?$ChTraitsCRT@D@ATL@@@@@ATL@@QEAA@XZ 0000000140064ed8     mfc140:mfc140.dll
 0002:00000ee0       __imp_?AfxWinMain@@YAHPEAUHINSTANCE__@@0PEADH@Z 0000000140064ee0     mfc140:mfc140.dll
 0002:00000ee8       __imp_??0?$CStringT@DV?$StrTraitMFC_DLL@DV?$ChTraitsCRT@D@ATL@@@@@ATL@@QEAA@PEBD@Z 0000000140064ee8     mfc140:mfc140.dll
 0002:00000ef0       __imp_??_V@YAXPEAX@Z       0000000140064ef0     mfc140:mfc140.dll
 0002:00000ef8       __imp_?CreateIndirect@CDialog@@UEAAHPEAXPEAVCWnd@@@Z 0000000140064ef8     mfc140:mfc140.dll
 0002:00000f00       \177mfc140_NULL_THUNK_DATA 0000000140064f00     mfc140:mfc140.dll
 0002:00000f08       __imp_bcp_done             0000000140064f08     sqlncli11:sqlncli11.dll
 0002:00000f10       __imp_bcp_batch            0000000140064f10     sqlncli11:sqlncli11.dll
 0002:00000f18       __imp_bcp_sendrow          0000000140064f18     sqlncli11:sqlncli11.dll
 0002:00000f20       __imp_bcp_bind             0000000140064f20     sqlncli11:sqlncli11.dll
 0002:00000f28       __imp_bcp_initA            0000000140064f28     sqlncli11:sqlncli11.dll
 0002:00000f30       __imp_bcp_collen           0000000140064f30     sqlncli11:sqlncli11.dll
 0002:00000f38       \177sqlncli11_NULL_THUNK_DATA 0000000140064f38     sqlncli11:sqlncli11.dll
 0002:00000f40       __guard_check_icall_fptr   0000000140064f40     msvcrt:guard_support.obj
 0002:00000f48       __guard_dispatch_icall_fptr 0000000140064f48     msvcrt:guard_support.obj
 0002:00000f50       __xc_a                     0000000140064f50     msvcrt:initializers.obj
 0002:00001188       __xc_z                     0000000140065188     msvcrt:initializers.obj
 0002:00001190       __xi_a                     0000000140065190     msvcrt:initializers.obj
 0002:000011b0       __xi_z                     00000001400651b0     msvcrt:initializers.obj
 0002:000011b8       __xl_a                     00000001400651b8     msvcrt:tlssup.obj
 0002:000011c0       __xl_z                     00000001400651c0     msvcrt:tlssup.obj
 0002:000011c8       __xp_a                     00000001400651c8     msvcrt:initializers.obj
 0002:000011d0       __xp_z                     00000001400651d0     msvcrt:initializers.obj
 0002:000011d8       __xt_a                     00000001400651d8     msvcrt:initializers.obj
 0002:000011e0       __xt_z                     00000001400651e0     msvcrt:initializers.obj
 0002:000011f8       ??_7type_info@@6B@         00000001400651f8     msvcrt:std_type_info_static.obj
 0002:00001210       ??_C@_1BK@MGMFAEKH@?$AAk?$AAe?$AAr?$AAn?$AAe?$AAl?$AA3?$AA2?$AA?4?$AAd?$AAl?$AAl?$AA?$AA@ 0000000140065210     msvcrt:thread_safe_statics.obj
 0002:00001230       ??_C@_0BM@HLJJNPAH@InitializeConditionVariable?$AA@ 0000000140065230     msvcrt:thread_safe_statics.obj
 0002:00001250       ??_C@_0BJ@JEBJOJFJ@SleepConditionVariableCS?$AA@ 0000000140065250     msvcrt:thread_safe_statics.obj
 0002:00001270       ??_C@_0BJ@PGPPEPCC@WakeAllConditionVariable?$AA@ 0000000140065270     msvcrt:thread_safe_statics.obj
 0002:00001290       GUID_ATLVer110             0000000140065290     atls:atlbase.obj
 0002:000012a0       ??_C@_1IC@ONKHOIDK@?$AAE?$AAR?$AAR?$AAO?$AAR?$AA?5?$AA?3?$AA?5?$AAU?$AAn?$AAa?$AAb?$AAl?$AAe?$AA?5?$AAt?$AAo?$AA?5?$AAi?$AAn?$AAi?$AAt?$AAi?$AAa?$AAl?$AAi?$AAz?$AAe?$AA?5?$AAc?$AAr?$AAi@ 00000001400652a0     atls:atlbase.obj
 0002:00001350       ??_C@_07IKMDKPP@?$ID?S?$ID?VERR?$AA@ 0000000140065350     AlarmeManager.obj
 0002:00001358       ??_C@_0L@LBPPBNFE@?$LK?$LC?Y?$IP?n?$JF?qERR?$AA@ 0000000140065358     AlarmeManager.obj
 0002:00001368       ??_C@_0M@FBJNGPOM@?$IO?$MA?$JA?Q?$JB?$JH?$JAMERR?$AA@ 0000000140065368     AlarmeManager.obj
 0002:00001378       ??_C@_07JALMDDHN@?$IP?F?$JG?$LOERR?$AA@ 0000000140065378     AlarmeManager.obj
 0002:00001380       ??_C@_06OGKCJHB@?$LG?R?WERR?$AA@ 0000000140065380     AlarmeManager.obj
 0002:00001388       ??_C@_07CKFEGNKN@?$IJ?$LH?$JDxERR?$AA@ 0000000140065388     AlarmeManager.obj
 0002:00001390       ??_C@_06PCIBHCLE@?ar?$JA?Z?$IL?$NP?$AA@ 0000000140065390     AlarmeManager.obj
 0002:00001398       ??_C@_04OODBAIHE@?$JE?w?$IP?$KM?$AA@ 0000000140065398     AlarmeManager.obj
 0002:000013a0       ??_C@_04PJEKDIGP@?$IO?$PM?$IK?z?$AA@ 00000001400653a0     AlarmeManager.obj
 0002:000013a8       ??_C@_04PHLLACAE@?$JF?2?$JH?$KA?$AA@ 00000001400653a8     AlarmeManager.obj
 0002:000013b0       ??_C@_04LBOJKODG@?$LN?X?J?$NO?$AA@ 00000001400653b0     AlarmeManager.obj
 0002:000013b8       ??_C@_03IPKIDLDG@?M?$LJ?$NO?$AA@ 00000001400653b8     AlarmeManager.obj
 0002:000013bc       ??_C@_04GBPHJKJL@?$IPd?$JB?e?$AA@ 00000001400653bc     AlarmeManager.obj
 0002:000013c4       ??_C@_04PKAMBGFF@?$JIA?$JB?$LB?$AA@ 00000001400653c4     AlarmeManager.obj
 0002:000013d0       ??_C@_08GPEFMELE@?$IM?$JP?$IN?$LI?$IKJ?$IOn?$AA@ 00000001400653d0     AlarmeManager.obj
 0002:000013e0       ??_C@_08PNMIDLEM@?$IM?$JP?$IN?$LI?$JC?b?$IO?$HO?$AA@ 00000001400653e0     AlarmeManager.obj
 0002:000013f0       ??_C@_08KLAPPDFO@?$JDr?$JC?$IG?$IKJ?$IOn?$AA@ 00000001400653f0     AlarmeManager.obj
 0002:00001400       ??_C@_08DJICAMKG@?$JDr?$JC?$IG?$JC?b?$IO?$HO?$AA@ 0000000140065400     AlarmeManager.obj
 0002:00001410       ??_C@_0P@LAIHEGNG@?$JB?$LB?$INs?$JFs?$IJ?B?$JE?2?$IJ?p?$IP?$JM?$AA@ 0000000140065410     AlarmeManager.obj
 0002:00001420       ??_C@_0P@BEHKAPGK@?$IDp?$ID?$IJ?$ID?$IB?$IB?$FL?$ID?$FO?$IO?f?$JD?$LO?$AA@ 0000000140065420     AlarmeManager.obj
 0002:00001430       ??_C@_0P@LKLHCMEJ@LINKSW?$JA?$NN?$JC?h?$IK?$KO?$JH?$LJ?$AA@ 0000000140065430     AlarmeManager.obj
 0002:00001440       ??_C@_0BD@PPHEGMED@?$IDJ?$ID?$IB?$ID?$IJ?$JBI?$JB?p?$JA?$NN?$JC?h?$IK?$KO?$JH?$LJ?$AA@ 0000000140065440     AlarmeManager.obj
 0002:00001458       ??_C@_0BB@GBLEBINB@?$JDr?$JC?$IG?$IOQ?$IJ?A?$JA?$NN?$JC?h?$IK?$KO?$JH?$LJ?$AA@ 0000000140065458     AlarmeManager.obj
 0002:00001470       ??_C@_0BD@KJIALANG@?$IL?$FL?$IO?$JH?$IM?$JP?$IN?$LI?$IDR?$IDC?$ID?$IL?$IO?s?$JAM?$AA@ 0000000140065470     AlarmeManager.obj
 0002:00001488       ??_C@_0BD@HNNIFHBC@?$IL?$FL?$IO?$JH?$JF?2?$IO?$KG?$IDR?$IDC?$ID?$IL?$IO?s?$JAM?$AA@ 0000000140065488     AlarmeManager.obj
 0002:000014a0       ??_C@_0BC@BKNPJOHD@?$IM?$JP?$IN?$LI?$JHp?$IP?n?$JF?q?5?$IN?D?$IO?s?$JAM?$AA@ 00000001400654a0     AlarmeManager.obj
 0002:000014b8       ??_C@_0BC@PIPGBMNG@?$JF?2?$IO?$KG?$JHp?$IP?n?$JF?q?5?$IN?D?$IO?s?$JAM?$AA@ 00000001400654b8     AlarmeManager.obj
 0002:000014d0       ??_C@_0BF@JLKNMNJI@PI?5?$IM?$JP?$IN?$LI?$IK?n?$JD_WPD?$IM?$JP?$IPoDM?$AA@ 00000001400654d0     AlarmeManager.obj
 0002:000014e8       ??_C@_0BF@HJIEEPDN@PI?5?$JF?2?$IO?$KG?$IK?n?$JD_WPD?$IM?$JP?$IPoDM?$AA@ 00000001400654e8     AlarmeManager.obj
 0002:00001500       ??_C@_0O@JCLIPLHD@PI?5?$LM?$KM?$LA?$LG?$KP?D?$JAM?$IN?$IG?$AA@ 0000000140065500     AlarmeManager.obj
 0002:00001510       ??_C@_0BC@NHPNOGIE@PI?5?J?$NP?D?W?$LC?D?X?$LO?$KP?D?N?$NO?$MA?$NN?$AA@ 0000000140065510     AlarmeManager.obj
 0002:00001528       ??_C@_0BD@GBFJMOLE@PO?5SEQ?$LG?$LD?$NN?$MA?X?$LO?$KP?D?N?$NO?$MA?$NN?$AA@ 0000000140065528     AlarmeManager.obj
 0002:00001540       ??_C@_0O@DFLFDHK@?$LC?F?$LM?$KM?Y?$JD?$GA?$JF?$LG?$IO?s?$JAM?$AA@ 0000000140065540     AlarmeManager.obj
 0002:00001550       ??_C@_0BB@OHJLAKGK@?$JA?$NN?$JE?u?$II?Y?$IP?m?$IMx?$JF?q?$IJ?p?$IP?$JM?$AA@ 0000000140065550     AlarmeManager.obj
 0002:00001568       ??_C@_0BB@CBDEBDPL@?$IM?$IH?$IK?W?$IM?$JP?$IPo?$IMx?$JF?q?$IJ?p?$IP?$JM?$AA@ 0000000140065568     AlarmeManager.obj
 0002:00001580       ??_C@_0BD@HCLJMDLH@PI?5?$IM?$JP?$IN?$LI?$IK?n?$JD_WPD?$IM?$JP?$IPo?$AA@ 0000000140065580     AlarmeManager.obj
 0002:00001598       ??_C@_0BD@OOGEJNPJ@PI?5?$JF?2?$IO?$KG?$IK?n?$JD_WPD?$IM?$JP?$IPo?$AA@ 0000000140065598     AlarmeManager.obj
 0002:000015b0       ??_C@_09GMLLEKAI@AlarmeMgr?$AA@ 00000001400655b0     AlarmeManager.obj
 0002:000015c0       ??_C@_0BP@DAEHMFNK@?$FL?$CFs?$FN?5ThreadEvent?5EventNo?5NG?$DN?$CFd?$AA@ 00000001400655c0     AlarmeManager.obj
 0002:000015e0       ??_C@_0BO@MEDCBNBP@?$FL?$CFs?$FN?5?ar?$JA?Z?$IL?$NP?$ID?$IJ?$ID?$JD?$IDv?$IP?s?$JB?T?$JF?O?$IJ?$LL?$IM?$JP?$JCm?$AA@ 00000001400655e0     AlarmeManager.obj
 0002:00001600       ??_C@_0CJ@FBCNJDJ@?$FL?$CFs?$FN?5DM?$IMx?$JF?q?$IP?n?$JF?q?5?$IDL?$ID?$IF?$IB?$FL?$IDt?$ID?$IL?$CI?ar?$JA?Z?$IL@ 0000000140065600     AlarmeManager.obj
 0002:00001630       ??_C@_0CA@HEFFMGEA@?$FL?$CFs?$FN?5?ar?$JA?Z?$IL?$NP?$IDA?$ID?$IJ?$IB?$FL?$ID?$IA?$IP?s?$JB?T?$JF?O?$IJ?$LL?$IM?$JP?$JCm?$AA@ 0000000140065630     AlarmeManager.obj
 0002:00001650       ??_C@_0CL@MCAGLHLM@?$FL?$CFs?$FN?5DM?$IMx?$JF?q?$IP?n?$JF?q?5?$IDL?$ID?$IF?$IB?$FL?$IDt?$ID?$IL?$CI?ar?$JA?Z?$IL@ 0000000140065650     AlarmeManager.obj
 0002:00001680       ??_C@_0BM@OEGCMPFP@?$FL?$CFs?$FN?5?$IDp?$IDg?$ID?$IJ?$IDC?$IDg?$IP?s?$JB?T?$JF?O?$IJ?$LL?$IM?$JP?$JCm?$AA@ 0000000140065680     AlarmeManager.obj
 0002:000016a0       ??_C@_0CH@LPHCKNCD@?$FL?$CFs?$FN?5DM?$IMx?$JF?q?$IP?n?$JF?q?5?$IDL?$ID?$IF?$IB?$FL?$IDt?$ID?$IL?$CI?$IDp?$IDg?$ID@ 00000001400656a0     AlarmeManager.obj
 0002:000016c8       ??_C@_0CD@MCCJAMDL@?$FL?$CFs?$FN?5DM?$IMx?$JF?q?$IP?n?$JF?q?5?$IDL?$ID?$IF?$IB?$FL?$IDt?$ID?$IL?$CI?$ID?$HL?$IDC?$ID@ 00000001400656c8     AlarmeManager.obj
 0002:000016f0       ??_C@_0DA@EAAKADIM@?$FL?$CFs?$FN?5?$IM?$IH?$IK?W?$IM?$JP?$IPo?$ID?$HL?$IDC?$IDX?$IM?s?$JF?b?5?$FLmen?3?$CFd?5@ 00000001400656f0     AlarmeManager.obj
 0002:00001720       ??_C@_0CL@PBDMIHPN@?$FL?$CFs?$FN?5?$IM?$IH?$IK?W?$IM?$JP?$IPo?$ID?$HL?$IDC?$IDX?$IPo?$JH?M?$JA?$NN?$JC?h?5?$FLmen@ 0000000140065720     AlarmeManager.obj
 0002:00001750       ??_C@_0BE@IOMHLKBA@?$FL?$CFs?$FN?5?J?$NP?D?W?$LC?D?ar?$IP?$IJ?$IK?z?$IJ?$LL?$AA@ 0000000140065750     AlarmeManager.obj
 0002:00001768       ??_C@_0DB@IODAJMKB@?$FL?$CFs?$FN?5?J?$NP?D?W?$LC?D?ar?$JC?G?$IJ?A?5?$CI?$CFs?$CJ?$CImen?$DN?$CFd?$CJ?$CIK@ 0000000140065768     AlarmeManager.obj
 0002:000017a0       ??_C@_0DL@DPCKMPGO@?$FL?$CFs?$FN?5?J?$NP?D?W?$LC?D?ar?$JC?G?$IJ?A?$IDL?$ID?$IF?$IB?$FL?$IDt?$ID?$IL?5?$CI?$CFs?$CJ@ 00000001400657a0     AlarmeManager.obj
 0002:000017e0       ??_C@_0DP@JBGMIIPB@?$FL?$CFs?$FN?5?$IDp?$IDg?$ID?$IJ?$IDC?$IDg?$JB?N?$IP?$NL?ar?5?$IMx?$JF?q?$IJ?p?$IP?$JM?$IBB@ 00000001400657e0     AlarmeManager.obj
 0002:00001820       ??_C@_0DB@EINJFC@?$FL?$CFs?$FN?5?J?$NP?D?W?$LC?D?ar?$IN?m?$IP?$JM?5?$CI?$CFs?$CJ?$CImen?$DN?$CFd?$CJ?$CIK@ 0000000140065820     AlarmeManager.obj
 0002:00001858       ??_C@_0CA@DEJPFODL@?$FL?$CFs?$FN?5?J?$NP?D?W?$LC?D?ar?$JC?G?$IJ?A?$IDL?$ID?$IF?$IB?$FL?$IDt?$ID?$IL?$IJ?p?$IP?$JM?$AA@ 0000000140065858     AlarmeManager.obj
 0002:00001878       ??_C@_0CH@GEBAIPHA@?$FL?$CFs?$FN?5?$JA?$NN?$JE?u?$II?Y?$IP?m?$ID?$HL?$IDC?$IDX?$IPo?$JH?M?$IDL?$ID?$ID?$ID?$JD?$IDZ?$ID@ 0000000140065878     AlarmeManager.obj
 0002:000018a0       ??_C@_0CA@DIAFEEKN@?$FL?$CFs?$FN?5?$JA?$NN?$JE?u?$II?Y?$IP?m?$ID?$HL?$IDC?$IDX?$JF?O?$INX?$FL?$CFs?$IB?$KI?$CFs?$FN?$AA@ 00000001400658a0     AlarmeManager.obj
 0002:000018c0       ??_C@_0BB@MOGOBHAF@list?$DMT?$DO?5too?5long?$AA@ 00000001400658c0     AlarmeManager.obj
 0002:000018d8       ??_C@_0BC@KBDMBKEH@deque?$DMT?$DO?5too?5long?$AA@ 00000001400658d8     AlarmeManager.obj
 0002:000018f8       ??_7AlarmeManager@@6B@     00000001400658f8     AlarmeManager.obj
 0002:00001938       ??_7AutoLock@KizuLib@@6B@  0000000140065938     AlarmeManager.obj
 0002:00001940       ??_C@_00CNPNBAHC@?$AA@     0000000140065940     AlarmeManager.obj
 0002:00001950       ??_7BCPSaveManager@@6B@    0000000140065950     BcpSaveManager.obj
 0002:000019c8       ??_C@_06DJDHLFOJ@BCPMgr?$AA@ 00000001400659c8     BcpSaveManager.obj
 0002:000019d0       ??_C@_0BI@LPNGOCE@?$FL?$CFs?$FN?5BCP?5?$IP?s?$JB?T?$IC?I?$II?Y?$IP?m?$JE?$KN?$JA?$LG?$AA@ 00000001400659d0     BcpSaveManager.obj
 0002:000019e8       ??_C@_0L@PMBDLOLB@BCP_ERR_ID?$AA@ 00000001400659e8     BcpSaveManager.obj
 0002:000019f8       ??_C@_0BI@CHDDKJNB@?$FL?$CFs?$FN?5BCP?5?$IP?s?$JB?T?$IC?$KK?$JA?$LD?$IP?m?$JF?$JM?$IL?$IM?$AA@ 00000001400659f8     BcpSaveManager.obj
 0002:00001a10       ??_C@_0P@BKOCCLBC@T_DEFECT_IMG_T?$AA@ 0000000140065a10     BcpSaveManager.obj
 0002:00001a20       ??_C@_0P@GHKJOMF@T_DEFECT_IMG_B?$AA@ 0000000140065a20     BcpSaveManager.obj
 0002:00001a30       ??_C@_0BB@IFEKHENE@T_DEFECT_ATTR0_T?$AA@ 0000000140065a30     BcpSaveManager.obj
 0002:00001a48       ??_C@_0BB@DNPGBDLB@T_DEFECT_ATTR1_T?$AA@ 0000000140065a48     BcpSaveManager.obj
 0002:00001a60       ??_C@_0BB@CPEDLMFP@T_DEFECT_ATTR2_T?$AA@ 0000000140065a60     BcpSaveManager.obj
 0002:00001a78       ??_C@_0BB@JHPPNLDK@T_DEFECT_ATTR3_T?$AA@ 0000000140065a78     BcpSaveManager.obj
 0002:00001a90       ??_C@_0BB@KCIODID@T_DEFECT_ATTR4_T?$AA@ 0000000140065a90     BcpSaveManager.obj
 0002:00001aa8       ??_C@_0BB@JJNCMBAD@T_DEFECT_ATTR0_B?$AA@ 0000000140065aa8     BcpSaveManager.obj
 0002:00001ac0       ??_C@_0BB@CBGOKGGG@T_DEFECT_ATTR1_B?$AA@ 0000000140065ac0     BcpSaveManager.obj
 0002:00001ad8       ??_C@_0BB@DDNLAJII@T_DEFECT_ATTR2_B?$AA@ 0000000140065ad8     BcpSaveManager.obj
 0002:00001af0       ??_C@_0BB@ILGHGOON@T_DEFECT_ATTR3_B?$AA@ 0000000140065af0     BcpSaveManager.obj
 0002:00001b08       ??_C@_0BB@BGLAFGFE@T_DEFECT_ATTR4_B?$AA@ 0000000140065b08     BcpSaveManager.obj
 0002:00001b20       ??_C@_0CH@BADPLJOL@?$FLBcpSaveManager?$FN?5BCP?5?$IO?$KJ?$JD?$KO?$IDR?$ID?$HO?$IDb?$ID@ 0000000140065b20     BcpSaveManager.obj
 0002:00001b48       ??_C@_02LFGCCOHG@DB?$AA@   0000000140065b48     BcpSaveManager.obj
 0002:00001b50       ??_C@_0P@OBNDCGCB@?4?2KizuTask?4ini?$AA@ 0000000140065b50     BcpSaveManager.obj
 0002:00001b60       ??_C@_09MNJBPPCL@LnkSpdMgr?$AA@ 0000000140065b60     CamLinkSpeedManager.obj
 0002:00001b70       ??_C@_0DC@KLHGFFIM@?$FL?$CFs?$FN?5?$JG?$LD?$IM?x?$IC?H?$IDp?$IDP?$IDb?$IDg?$IC?p?$IO?s?$JAM?4?5?$FLsize@ 0000000140065b70     CamLinkSpeedManager.obj
 0002:00001ba8       ??_C@_0DN@GLBOHGFM@?$FL?$CFs?$FN?5?$IDV?$ID?$IK?$IDA?$ID?$IL?$JC?J?$JAM?$JB?$KM?$JDx?5?$JF?O?$INX?$JHv?$IL?$IB?$IC?p@ 0000000140065ba8     CamLinkSpeedManager.obj
 0002:00001be8       ??_C@_0DP@EJANFGBO@?$FL?$CFs?$FN?5UDP?$IDp?$IDP?$IDb?$IDg?$JE?$LL?$JD?G?$IK?$KO?$JH?$LJ?5?$FLCamID?3@ 0000000140065be8     CamLinkSpeedManager.obj
 0002:00001c28       ??_C@_0CD@OEDGEACP@?$FL?$CFs?$FN?5Socket?5Creation?5Err?5?$FLPort?3?$CF@ 0000000140065c28     CamLinkSpeedManager.obj
 0002:00001c50       ??_C@_0CC@DMNMEPCH@?$FL?$CFs?$FN?5Socket?5Error?4?5Bind?5?$FLPort?3?$CFd@ 0000000140065c50     CamLinkSpeedManager.obj
 0002:00001c78       ??_C@_0BE@PDDHIAGM@CAMLINKSW_PCID?$CFd_?$CFd?$AA@ 0000000140065c78     CamLinkSpeedManager.obj
 0002:00001c90       ??_C@_09BJAEPIJN@TO_DEFECT?$AA@ 0000000140065c90     CamLinkSpeedManager.obj
 0002:00001ca0       ??_C@_0DB@DDKACKKO@?$FL?$CFs?$FN?5INI?$JA?$NN?$JC?h?$II?Y?$IP?m?$FL?$CFs?5?$DN?5?$CFd?$FN?$IB?$KI?$FLFPGA@ 0000000140065ca0     CamLinkSpeedManager.obj
 0002:00001cd8       ??_C@_0DF@MLMHDGLF@?$FL?$CFs?$FN?5INI?$JA?$NN?$JC?h?$JD?G?$IN?$JO?$IK?$KO?$JH?$LJ?$FL?$CFs?5?$DN?5?$CFd?$FN?$IB?$KI?$FL@ 0000000140065cd8     CamLinkSpeedManager.obj
 0002:00001d18       ??_7CamLinkSpeedManager@@6B@ 0000000140065d18     CamLinkSpeedManager.obj
 0002:00001d58       ??_7?$ThreadQueue@USEND_UDP@CmdSender@@@KizuLib@@6B@ 0000000140065d58     CmdSender.obj
 0002:00001d68       ??_7CmdSender@@6B@         0000000140065d68     CmdSender.obj
 0002:00001da0       ??_C@_07HEFIHPFC@CmdSend?$AA@ 0000000140065da0     CmdSender.obj
 0002:00001da8       ??_C@_0BA@FOJOKABD@HT_SEND_PORT_?$CFd?$AA@ 0000000140065da8     CmdSender.obj
 0002:00001db8       ??_C@_03OPEAKHDL@UDP?$AA@  0000000140065db8     CmdSender.obj
 0002:00001dc0       ??_C@_0O@JAJAKMEL@HT_SEND_IP_?$CFd?$AA@ 0000000140065dc0     CmdSender.obj
 0002:00001dd0       ??_C@_0O@KFOPIKMJ@192?49?4200?4255?$AA@ 0000000140065dd0     CmdSender.obj
 0002:00001de0       ??_C@_0BC@JFKCCEOG@?$FL?$CFs?$FN?5?$IDR?$ID?$HN?$ID?$JD?$IDh?$JB?$JH?$JAM?$AA@ 0000000140065de0     CmdSender.obj
 0002:00001df4       ??_C@_06PIAPLGAB@?$FL?$JF?2?$JG?J?$FN?$AA@ 0000000140065df4     CmdSender.obj
 0002:00001dfc       ??_C@_06DIADKKFG@?$FL?$JH?$KA?$JG?J?$FN?$AA@ 0000000140065dfc     CmdSender.obj
 0002:00001e08       ??_C@_0BF@BIJHMKIA@?$FL?$IM?$JP?$IN?$LI?$IKJ?$IOn?$CINC_START?$CJ?$FN?$AA@ 0000000140065e08     CmdSender.obj
 0002:00001e20       ??_C@_0BE@MNKJNMLN@?$FL?$IM?$JP?$IN?$LI?$JC?b?$IO?$HO?$CINC_STOP?$CJ?$FN?$AA@ 0000000140065e20     CmdSender.obj
 0002:00001e38       ??_C@_0BL@IHFIKHPK@?$FL?$IDp?$ID?$IJ?$ID?$IB?$IB?$FL?$ID?$FO?$JF?O?$INX?$CINC_PARAM?$CJ?$FN?$AA@ 0000000140065e38     CmdSender.obj
 0002:00001e58       ??_C@_0BM@NOIGCPHE@?$FL?$IP?c?$II?J?$IP?n?$JF?q?$JB?$JH?$JAM?$CINC_COILINFO?$CJ?$FN?$AA@ 0000000140065e58     CmdSender.obj
 0002:00001e78       ??_C@_0BB@HAGNELEA@?$FL?$JFs?$JG?$LO?$IC?H?$IDR?$ID?$HN?$ID?$JD?$IDh?$FN?$AA@ 0000000140065e78     CmdSender.obj
 0002:00001e90       ??_C@_0L@BHOKLAFP@?$FLscode?$DN?$CFd?$FN?$AA@ 0000000140065e90     CmdSender.obj
 0002:00001ea0       ??_C@_0L@DKJMCOAE@?$FL?$IDR?$IDC?$ID?$ILNo?$DN?$AA@ 0000000140065ea0     CmdSender.obj
 0002:00001eac       ??_C@_01LBDDMOBJ@?$FN?$AA@ 0000000140065eac     CmdSender.obj
 0002:00001eb0       ??_C@_0BA@PBLPIIAC@?$CFs?$FLerr_code?$DN?$CFd?$FN?$AA@ 0000000140065eb0     CmdSender.obj
 0002:00001ec0       ??_C@_06IDEFLBMH@?$IKJ?$JF?z?$JC?$IG?$AA@ 0000000140065ec0     CoilBaseManager.obj
 0002:00001ec8       ??_C@_06BIEDMKIB@?$II?$LD?$IJ?$LK?$JC?$IG?$AA@ 0000000140065ec8     CoilBaseManager.obj
 0002:00001ed0       ??_C@_04JIMLEBHB@?$IP?$IJ?$IK?z?$AA@ 0000000140065ed0     CoilBaseManager.obj
 0002:00001ed8       ??_C@_04GJGLOLBO@?$JF?2?$JG?J?$AA@ 0000000140065ed8     CoilBaseManager.obj
 0002:00001ee0       ??_C@_04NPBLBBGB@?$JH?$KA?$JG?J?$AA@ 0000000140065ee0     CoilBaseManager.obj
 0002:00001ee8       ??_C@_0N@KAGDPDHP@SCODE_TOP_ID?$AA@ 0000000140065ee8     CoilBaseManager.obj
 0002:00001ef8       ??_C@_0N@FBONPMEL@SCODE_BOT_ID?$AA@ 0000000140065ef8     CoilBaseManager.obj
 0002:00001f08       ??_C@_0N@BNKJJPLB@PCODE_TOP_ID?$AA@ 0000000140065f08     CoilBaseManager.obj
 0002:00001f18       ??_C@_0N@OMCHJAIF@PCODE_BOT_ID?$AA@ 0000000140065f18     CoilBaseManager.obj
 0002:00001f28       ??_C@_07KOHFLHL@CoilMgr?$AA@ 0000000140065f28     CoilBaseManager.obj
 0002:00001f30       ??_C@_0M@HNEKAPHO@TBL_TO_COIL?$AA@ 0000000140065f30     CoilBaseManager.obj
 0002:00001f40       ??_C@_0CA@HGPMMHEB@?$IDR?$IDC?$ID?$IL?$IP?n?$JF?q?$IDe?$IB?$FL?$IDu?$ID?$IL?5?$IDA?$IDN?$IDZ?$IDX?$IO?$LI?$JEs?$AA@ 0000000140065f40     CoilBaseManager.obj
 0002:00001f60       ??_C@_0M@NGACPDGE@COIL_KEN_ID?$AA@ 0000000140065f60     CoilBaseManager.obj
 0002:00001f70       ??_C@_0M@CKBFELOI@COIL_DSP_ID?$AA@ 0000000140065f70     CoilBaseManager.obj
 0002:00001f80       ??_C@_0BD@DEIANBJI@COIL_TIMING_ERR_ID?$AA@ 0000000140065f80     CoilBaseManager.obj
 0002:00001f98       ??_C@_0N@IJEBOEIN@COIL_INIT_ID?$AA@ 0000000140065f98     CoilBaseManager.obj
 0002:00001fa8       ??_C@_0BA@NINNBONA@COIL_RESTART_ID?$AA@ 0000000140065fa8     CoilBaseManager.obj
 0002:00001fb8       ??_C@_0BF@FEKIOOC@?$CF02d?$CF02d?$CF02d?$CF02d?$CF02d?$AA@ 0000000140065fb8     CoilBaseManager.obj
 0002:00001fd0       ??_C@_09EOOKGDEH@DummyCoil?$AA@ 0000000140065fd0     CoilBaseManager.obj
 0002:00001fe0       ??_C@_0EB@HOOBAHDM@?$FLCoilManager?$FN?5?$IM?$JP?$IN?$LI?$JHp?$IO?s?$JAM?$IDR?$IDC?$ID?$IL?$IP?n@ 0000000140065fe0     CoilBaseManager.obj
 0002:00002028       ??_C@_0CK@IEOLGIOO@?$FL?$IM?$JP?$IN?$LI?$JHp?$IDR?$IDC?$ID?$IL?$IP?n?$JF?q?5?$IL?f?$JF?$KK?$DN?$CFd?5?$IDR?$IDC?$ID?$IL@ 0000000140066028     CoilBaseManager.obj
 0002:00002058       ??_C@_0DP@KELHBBJJ@?$FL?$CFs?$FN?5?$IM?$JP?$IN?$LI?$JHp?$IO?$JP?$IDR?$IDC?$ID?$IL?$IDo?$IDb?$IDt?$ID?$EA?$IC?I?$IK?y?$IC@ 0000000140066058     CoilBaseManager.obj
 0002:00002098       ??_C@_0BM@GEPFALKI@?$FL?$IM?$JP?$IN?$LI?$JHp?$IBF?$IDR?$IDC?$ID?$ILNo?$DN?$CFs?5ID?$DN?$CFs?$FN?$AA@ 0000000140066098     CoilBaseManager.obj
 0002:000020c0       ??_C@_0FP@NJPNNAI@?$FLCoilManager?$FN?5?$IM?$LL?$IDR?$IDC?$ID?$IL?$IC?L?$IO?$JP?$IDR?$IDC?$ID?$IL@ 00000001400660c0     CoilBaseManager.obj
 0002:00002120       ??_C@_0CO@GFFADGCG@?$FL?$IM?$LL?$IDR?$IDC?$ID?$IL?$IC?L?$IO?$JP?$IDR?$IDC?$ID?$ILNo?$DN?$CF?412s?5?$IO?$JP?$IDR@ 0000000140066120     CoilBaseManager.obj
 0002:00002150       ??_C@_0CH@HBJFKMBO@?$FL?$CFs?$FN?5?$IDE?$IDH?$IB?$FL?$ID?$HN?$IN?$NO?5?$JEF?$IO?$KP?$IBI?$IBI?5?$FL?$IDR?$IDC?$ID?$IL@ 0000000140066150     CoilBaseManager.obj
 0002:00002178       ??_C@_0DA@PKIJNDAC@?$FL?$CFs?$FN?5?$IM?$JP?$IN?$LI?$IK?n?$JD_?$IDR?$IDC?$ID?$IL?$IP?n?$JF?q?$IO?s?$JAM?5?$FL?$CFs?$FN@ 0000000140066178     CoilBaseManager.obj
 0002:000021a8       ??_C@_0O@FIBJKGDE@?5?$DM?$IDE?$IDH?$IB?$FL?$ID?$HN?$IN?$NO?$DO?$AA@ 00000001400661a8     CoilBaseManager.obj
 0002:000021b8       ??_C@_0BH@MLBLBDBO@?$FL?$IM?$JP?$IN?$LI?$JHp?5?$IDR?$IDC?$ID?$ILNo?$DN?$CFs?$CFs?$FN?$AA@ 00000001400661b8     CoilBaseManager.obj
 0002:000021d0       ??_C@_0FC@KIIAILCI@?$FL?$CFs?$FN?5?$IM?$JP?$IN?$LI?$IK?n?$JD_?5?$IDp?$ID?$IJ?$ID?$IB?$IB?$FL?$ID?$FO?$IO?$JG?$JBO?$JD?G?$IN?$JO@ 00000001400661d0     CoilBaseManager.obj
 0002:00002230       ??_C@_0FC@LLPKFGM@?$FL?$CFs?$FN?5?$IM?$JP?$IN?$LI?$IK?n?$JD_?5?$IDp?$ID?$IJ?$ID?$IB?$IB?$FL?$ID?$FO?$IO?$JG?$JBO?$JD?G?$IN?$JO@ 0000000140066230     CoilBaseManager.obj
 0002:00002290       ??_C@_0EB@JPNCLLFJ@?$FLCoilManager?$FN?5?$JF?2?$IO?$KG?$JHp?$IO?s?$JAM?$IDR?$IDC?$ID?$IL?$IP?n@ 0000000140066290     CoilBaseManager.obj
 0002:000022d8       ??_C@_0CK@NENDPMJD@?$FL?$JF?2?$IO?$KG?$JHp?$IDR?$IDC?$ID?$IL?$IP?n?$JF?q?5?$IL?f?$JF?$KK?$DN?$CFd?5?$IDR?$IDC?$ID?$IL@ 00000001400662d8     CoilBaseManager.obj
 0002:00002308       ??_C@_0DO@DANABMFJ@?$FL?$CFs?$FN?5?$JF?2?$IO?$KG?$JHp?$IO?$JP?$IDR?$IDC?$ID?$IL?$IDo?$IDb?$IDt?$ID?$EA?$IC?I?$IK?y?$IC@ 0000000140066308     CoilBaseManager.obj
 0002:00002348       ??_C@_0BL@IAIFMEHA@?$FL?$JF?2?$IO?$KG?$JHp?$IBF?$IDR?$IDC?$ID?$ILNo?$DN?$CF12?412s?$FN?$AA@ 0000000140066348     CoilBaseManager.obj
 0002:00002368       ??_C@_0CB@EFLBKAMH@?$FL?$CFs?$FN?5?$JF?2?$IO?$KG?$IK?n?$JD_?$IDR?$IDC?$ID?$IL?$IP?n?$JF?q?$IO?s?$JAM?5?$FL?$CFs?$FN@ 0000000140066368     CoilBaseManager.obj
 0002:00002390       ??_C@_0BF@DEOEIDCH@?$FL?$JF?2?$IO?$KG?$JHp?5?$IDR?$IDC?$ID?$ILNo?$DN?$CFs?$FN?$AA@ 0000000140066390     CoilBaseManager.obj
 0002:000023a8       ??_C@_0BM@POBBKOAI@?$FL?$CFs?$FN?5?$IM?$JP?$IN?$LI?$JHp?$IO?$JP?$IDR?$IDC?$ID?$IL?$IP?n?$JF?q?$JG?$LD?$IC?$LF?$AA@ 00000001400663a8     CoilBaseManager.obj
 0002:000023c8       ??_C@_08NAPHEDN@?$FL?$IM?$JP?$IN?$LI?$JHp?$FN?$AA@ 00000001400663c8     CoilBaseManager.obj
 0002:000023d8       ??_C@_0BP@NLOLEAOF@?$FL?$CFs?$FN?5?$FL?$CFs?$FN?5?$IM?$JP?$IN?$LI?$II?J?$JCu?5SPM?$IP?s?$JB?T?$IBF?$CFs?$AA@ 00000001400663d8     CoilBaseManager.obj
 0002:00002400       ??_C@_0EO@MHCKGIHN@?$FL?$CFs?$FN?5?$IM?$JP?$IN?$LI?$II?J?$JCu?5?$IDp?$ID?$IJ?$ID?$IB?$IB?$FL?$ID?$FO?$JF?O?$INX?$JHv?$IL?$IB@ 0000000140066400     CoilBaseManager.obj
 0002:00002450       ??_C@_0CE@FICNDFLK@?$FL?$CFs?$FN?5?$FL?$CFs?$FN?5?$IM?$JP?$IN?$LI?$II?J?$JCu?5SPM?$JAL?$IC?Q?$JH?$KG?$DN?$CF?44@ 0000000140066450     CoilBaseManager.obj
 0002:00002478       ??_C@_0BM@FKFCCMFP@?$FL?$CFs?$FN?5?$JF?2?$IO?$KG?$JHp?$IO?$JP?$IDR?$IDC?$ID?$IL?$IP?n?$JF?q?$JG?$LD?$IC?$LF?$AA@ 0000000140066478     CoilBaseManager.obj
 0002:00002498       ??_C@_08MKEKIAGG@?$FL?$JF?2?$IO?$KG?$JHp?$FN?$AA@ 0000000140066498     CoilBaseManager.obj
 0002:000024b0       ??_C@_0FG@PFGMDLKK@?$FL?$CFs?$FN?5?$JF?2?$IO?$KG?$JHp?$IDR?$IDC?$ID?$IL?$IP?n?$JF?q?$JA?X?$IC?h?$JB?V?$IC?$KG?$IC?$LO?$IC@ 00000001400664b0     CoilBaseManager.obj
 0002:00002508       ??_C@_0BJ@KOJHDOHP@?$FL?$IDR?$IDC?$ID?$ILNo?$DN?$CFs?0?5?$JG?$LN?$JH?$NPNo?$DN?$CFs?$FN?$AA@ 0000000140066508     CoilBaseManager.obj
 0002:00002528       ??_C@_0DC@BKEIOENK@?$FL?$CFs?$FN?5?$JF?2?$IO?$KG?$JHp?$IDR?$IDC?$ID?$IL?5?$IJ?$LM?$JFR?$JFt?$IC?$KP?5?$IDR?$IDC?$ID@ 0000000140066528     CoilBaseManager.obj
 0002:00002560       ??_C@_0CF@EHEBFKNF@?$FL?$CFs?$FN?5?$JF?2?$IO?$KG?$JHp?$IDR?$IDC?$ID?$IL?$IP?n?$JF?q?5?$JFR?$JFt?$IC?$KP?$IO?$LI?$JEs@ 0000000140066560     CoilBaseManager.obj
 0002:00002588       ??_C@_0DB@GGGHGFCJ@?$FL?$CFs?$FN?5?$JF?2?$IO?$KG?$JHp?$IDR?$IDC?$ID?$IL?$JA?X?$IC?h?$JB?V?$IC?$KG?$IK?$KO?$JH?$LJ?5re@ 0000000140066588     CoilBaseManager.obj
 0002:000025c0       ??_C@_0O@DLPJNELJ@?$FL?$IDR?$IDC?$ID?$ILNo?$DN?$CFs?$FN?$AA@ 00000001400665c0     CoilBaseManager.obj
 0002:000025d0       ??_C@_0CK@IGPLAKB@?$FL?$CFs?$FN?5?$IM?$LL?$IPo?$JB?$KE?$IDR?$IDC?$ID?$IL?$JD?$OA?$IC?I?$IC?$KI?$IC?$KP?$IC?i?$CFd?$JD_?$JG@ 00000001400665d0     CoilBaseManager.obj
 0002:00002600       ??_C@_0EA@JFJCKGLN@?$FL?$CFs?$FN?5?$IDV?$ID?$ID?$IB?$FL?$IDJ?$IDb?$IDg?$IK?G?$JH?$JN?$IJ?q?$JA?$JE?$IP?c?$IM?$MA?$JD?$JO?$JC@ 0000000140066600     CoilBaseManager.obj
 0002:00002640       ??_C@_0BB@EOIMLFI@?$FL?$IDR?$IDC?$ID?$ILNo?$DN?$CF?412s?$FN?$AA@ 0000000140066640     CoilBaseManager.obj
 0002:00002660       ??_C@_0EN@FJFJHHDB@?$FL?$CFs?$FN?5?$IDV?$ID?$ID?$IB?$FL?$IDJ?$IDb?$IDg?$II?J?$JCu?5?$IDR?$IDC?$ID?$IL?$JA?X?$IC?h@ 0000000140066660     CoilBaseManager.obj
 0002:000026b0       ??_C@_0BN@GGDMEGJA@?$FL?$CFs?$FN?5DB?$JF?$NL?$JB?$LG?$IO?$JO?5?$IDR?$IDC?$ID?$IL?$IP?n?$JF?q?$II?Y?$IP?m?$AA@ 00000001400666b0     CoilBaseManager.obj
 0002:000026d0       ??_C@_0CM@OJPJBKME@?$FL?$IDR?$IDC?$ID?$IL?$IP?n?$JF?q?$IK?G?$JH?$JN?$IC?E?$IM?$LL?$IN?$NN?$ID?$IM?$IDR?$IB?$FL?$IDh?$II?J?$JC@ 00000001400666d0     CoilBaseManager.obj
 0002:00002700       ??_C@_0CM@GELBFHMB@?$FL?$CFs?$FN?5DB?$JDo?$JI?$FO?$II?K?$JH?$IK?$IDL?$ID?$IF?$IB?$FL?$IDt?$ID?$IL?5?$FLDBDAT@ 0000000140066700     CoilBaseManager.obj
 0002:00002730       ??_C@_0BC@KCCLCME@?$FLDBDATA_COIL_INF?$FN?$AA@ 0000000140066730     CoilBaseManager.obj
 0002:00002748       ??_C@_0DO@IGMPDKDO@?$FL?$CFs?$FN?5DB?$JDo?$JI?$FO?$II?K?$JH?$IK?$IDL?$ID?$IF?$IB?$FL?$IDt?$ID?$IL?5?$FLDB_CO@ 0000000140066748     CoilBaseManager.obj
 0002:00002788       ??_C@_0BD@EBKFKIDG@?$FLDB_COIL_POSITION?$FN?$AA@ 0000000140066788     CoilBaseManager.obj
 0002:000027a0       ??_C@_0BN@MICPAICG@?$FL?$CFs?$FN?5DB?$JF?$NL?$JB?$LG?$IO?$JO?5?$IDR?$IDC?$ID?$IL?$IO?$MA?$JA?Q?$II?Y?$IP?m?$AA@ 00000001400667a0     CoilBaseManager.obj
 0002:000027c0       ??_C@_02HCPMAEIL@?$IB?$JL?$AA@ 00000001400667c0     CoilBaseManager.obj
 0002:000027c4       ??_C@_02FBPFADCC@?$IB?$HO?$AA@ 00000001400667c4     CoilBaseManager.obj
 0002:000027c8       ??_C@_0CP@HIKHHDA@?$FL?$CFs?$FN?5DB?5COIL_RESULT?5?$JDo?$JI?$FO?5?$FL?$CFs?$FN?$FL?$CFs@ 00000001400667c8     CoilBaseManager.obj
 0002:000027f8       ??_C@_0DC@GGNFPDNK@?$DM?$DM?$DM?9?9?9?9?9?9?9?9?9?9?9?9?9?9?9?9?9?9?9?9?9?9?9?9?9?9?9?9?9@ 00000001400667f8     CoilBaseManager.obj
 0002:00002830       ??_C@_0CP@CMCOFHAE@?$FL?$CFs?$FN?5DB?$JDo?$JI?$FO?$II?K?$JH?$IK?$IDL?$ID?$IF?$IB?$FL?$IDt?$ID?$IL?5?$FLDBDAT@ 0000000140066830     CoilBaseManager.obj
 0002:00002860       ??_C@_0BF@GAOKFANG@?$FLDBDATA_COIL_RESULT?$FN?$AA@ 0000000140066860     CoilBaseManager.obj
 0002:00002878       ??_C@_0CM@BGLNPACC@?$FL?$CFs?$FN?5DB?$JDo?$JI?$FO?$II?K?$JH?$IK?$IDL?$ID?$IF?$IB?$FL?$IDt?$ID?$IL?5?$FLDB_CO@ 0000000140066878     CoilBaseManager.obj
 0002:000028a8       ??_C@_0BC@HICOBFCH@?$FLDB_COIL_CUT_POS?$FN?$AA@ 00000001400668a8     CoilBaseManager.obj
 0002:000028c0       ??_C@_0DG@KNEFGMGI@?$FL?$CFs?$FN?5DB?$JDo?$JI?$FO?$II?K?$JH?$IK?$IDL?$ID?$IF?$IB?$FL?$IDt?$ID?$IL?5?$FLDBDAT@ 00000001400668c0     CoilBaseManager.obj
 0002:000028f8       ??_C@_0BM@EBELOHCC@?$FLDBDATA_COIL_RESULT_UPDATE?$FN?$AA@ 00000001400668f8     CoilBaseManager.obj
 0002:00002920       ??_7CoilBaseManager@@6B@   0000000140066920     CoilBaseManager.obj
 0002:00002960       ??_7CoilManager@@6B@       0000000140066960     CoilManager.obj
 0002:00002998       ??_C@_0DF@FPNCNOGN@?$FL?$CFs?$FN?5?$IDV?$ID?$ID?$IB?$FL?$IDJ?$IDb?$IDg?$JAM?$IN?$IGON?$CFd?$IJ?q?$JG?Z?5?$DM?$CF@ 0000000140066998     CoilManager.obj
 0002:000029d0       ??_C@_0CF@EJAANPPC@?$FL?$CFs?$FN?5?$IM?$IH?$IK?W?$IM?$JP?$IPo?$IMx?$JF?q?$IPo?$JH?M?5?$IO?s?$JFt?$IK?$KO?$JH?$LJ?$IBI@ 00000001400669d0     CoilManager.obj
 0002:000029f8       ??_C@_0CF@PDKMPCGN@?$FL?$CFs?$FN?5?$IM?$IH?$IK?W?$IM?$JP?$IPo?$IMx?$JF?q?$IJ?p?$IP?$JM?5?$IO?s?$JFt?$IK?$KO?$JH?$LJ?$IBI@ 00000001400669f8     CoilManager.obj
 0002:00002a20       ??_C@_06EEMINEIM@C?3?2CSV?$AA@ 0000000140066a20     CoilManager.obj
 0002:00002a28       ??_C@_0O@GJEEHDCA@DEF_DUMP_PATH?$AA@ 0000000140066a28     CoilManager.obj
 0002:00002a40       ??_C@_0FJ@FKJCCPMP@?$FL?$CFs?$FN?5?ar?$JE?$KN?$JA?$LG?5?$FL?$CFs?$FN?$FLmen?$DN?$CFd?5row?$DN?$CFd?5c@ 0000000140066a40     CoilManager.obj
 0002:00002aa0       ??_C@_0CA@FKOMKCPK@?$FL?$CFs?$FN?5?ar?$JA?Z?$IL?$NP?$ID?$IJ?$ID?$JD?$IDv?$IPo?$JH?M?$JB?N?$IP?$NL?ar?$JE?$KN?$JA?$LG?$AA@ 0000000140066aa0     CoilManager.obj
 0002:00002ac0       ??_C@_0EF@LDNODKAJ@?$FL?$CFs?$FN?5?$ID?$HL?$IDC?$IDX?$JHp?$II?J?$JCu?5?$FL?$CFs?$FN?$FLmen?$DN?$CFd?5ro@ 0000000140066ac0     CoilManager.obj
 0002:00002b08       ??_C@_0BI@GMGOAFBI@?$FL?$CFs?$FN?5?$ID?$HL?$IDC?$IDX?$IBF?$JIA?$JB?$LB?ar?$IM?$JP?$IPo?$AA@ 0000000140066b08     CoilManager.obj
 0002:00002b20       ??_C@_0BK@BPJDKNJE@?$FL?$CFs?$FN?5?$ID?$HL?$IDC?$IDX?$IBF?$JF?2?$JH?$KA?$JG?J?ar?$IM?$JP?$IPo?$AA@ 0000000140066b20     CoilManager.obj
 0002:00002b40       ??_C@_0FM@EKOEOEGM@?$FL?$CFs?$FN?5?$IMx?$JF?q?$IPo?$JH?M?$JB?N?$IP?$NL?$FL?ar?$JE?$KN?$JA?$LG?$IO?$JO?$FN?5?$FL?$CFs?$FN@ 0000000140066b40     CoilManager.obj
 0002:00002ba0       ??_C@_0DF@NLPALIE@?$FL?$CFs?$FN?5?ar?$JA?$JE?$INX?$JAV?$IBi?$JB?N?$IP?$NL?$IDR?$IDC?$ID?$IL?$JG?$LD?$IC?$LF?$IBj?$IK@ 0000000140066ba0     CoilManager.obj
 0002:00002bd8       ??_C@_0DF@LABKMPGD@?$FL?$CFs?$FN?5?ar?$JA?$JE?$IO?f?$JD?$LO?$IBi?$JB?N?$IP?$NL?$IDR?$IDC?$ID?$IL?$JG?$LD?$IC?$LF?$IBj?$IK@ 0000000140066bd8     CoilManager.obj
 0002:00002c10       ??_C@_01LFCBOECM@?4?$AA@   0000000140066c10     DbBaseManager.obj
 0002:00002c18       ??_C@_09GKBOAPFD@TI_DELETE?$AA@ 0000000140066c18     DbBaseManager.obj
 0002:00002c28       ??_C@_0BF@KGGMNLDK@?$FL?$CFs?$FN?5DB?5?$IDR?$IDl?$IDN?$IDg?$IO?$LI?$JEs?$AA@ 0000000140066c28     DbBaseManager.obj
 0002:00002c40       ??_C@_0BH@MAGNNINH@?$FL?$CFs?$FN?5BCP?5Init?$IO?$LI?$JEs?5?$FL?$CFs?$FN?$AA@ 0000000140066c40     DbBaseManager.obj
 0002:00002c58       ??_C@_0BL@PJCJPJ@?$FL?$CFs?$FN?5BCP?5?$IDR?$IDl?$IDN?$IDg?$IK?$KO?$JH?$LJ?5?$FL?$CFs?$FN?$AA@ 0000000140066c58     DbBaseManager.obj
 0002:00002c78       ??_C@_0BH@FJMCCFNH@?$FL?$CFs?$FN?5BCP?5?$IKJ?$JF?z?$IK?$KO?$JH?$LJ?5?$FL?$CFs?$FN?$AA@ 0000000140066c78     DbBaseManager.obj
 0002:00002c90       ??_C@_0BH@GJBBHJHA@?$FL?$CFs?$FN?5BCP?5?$IKJ?$JF?z?$IO?$LI?$JEs?5?$FL?$CFs?$FN?$AA@ 0000000140066c90     DbBaseManager.obj
 0002:00002ca8       ??_C@_0BK@PECNKPMD@?$FL?$CFs?$FN?5BCP?5sendrow?$IO?$LI?$JEs?5?$FL?$CFs?$FN?$AA@ 0000000140066ca8     DbBaseManager.obj
 0002:00002cc8       ??_C@_0BI@DCFOEKLB@?$FL?$CFs?$FN?5BCP?5batch?$IO?$LI?$JEs?5?$FL?$CFs?$FN?$AA@ 0000000140066cc8     DbBaseManager.obj
 0002:00002ce0       ??_C@_0BJ@FKOJOGCJ@?$FL?$CFs?$FN?5BCP?5collen?$IO?$LI?$JEs?5?$FL?$CFs?$FN?$AA@ 0000000140066ce0     DbBaseManager.obj
 0002:00002d00       ??_C@_0ED@JFCAAKHK@?$FL?$CFs?$FN?5?ar?$IO?$MA?$JA?Q?$JEj?$IK?$PM?$IPI?$IC?m?$IC?h?$IBB?$JHL?$IKQ?$JEj?$IK?$PM?$DN@ 0000000140066d00     DbBaseManager.obj
 0002:00002d50       ??_C@_0EK@DIKDHKBN@?$FL?$CFs?$FN?5?$JDo?$JI?$FO?$IK?T?$IC?I?$IN?$IH?$IC?m?$IC?H?$IC?$KC?$II?W?$IBA?ar?$IO?$MA?$JA?Q?$JE@ 0000000140066d50     DbBaseManager.obj
 0002:00002da0       ??_C@_0BM@GAJHBADJ@?$FL?$CFs?$FN?5?$DM?$CFs?$DO?5?$CFs?5?$JF?$NL?$JB?$LG?ar?$IM?B?$JA?$JE?$JC?$LE?$IC?$KG?$AA@ 0000000140066da0     DbBaseManager.obj
 0002:00002dc0       ??_C@_09MIGNJMLB@?$FL?$DM?$CFs?$DO?5?$CFs?$FN?$AA@ 0000000140066dc0     DbBaseManager.obj
 0002:00002dd0       ??_C@_0BC@PNKDNIBA@DB_SAVE_MAX_?$CFd_ID?$AA@ 0000000140066dd0     DbBaseManager.obj
 0002:00002df0       ??_7?$ThreadQueue@UDeliveryDB@DbBaseManager@@@KizuLib@@6B@ 0000000140066df0     DbBaseManager.obj
 0002:00002e00       ??_7?$ThreadQueue@UDELIVERYSQL@DBSaveManager@@@KizuLib@@6B@ 0000000140066e00     DbBaseManager.obj
 0002:00002e10       ??_7DbBaseManager@@6B@     0000000140066e10     DbBaseManager.obj
 0002:00002e88       ??_C@_01PKGAHCOL@?$CJ?$AA@ 0000000140066e88     DBManager.obj
 0002:00002e98       ??_7DBManager@@6B@         0000000140066e98     DBManager.obj
 0002:00002f10       ??_C@_01NBENCBCI@?$CK?$AA@ 0000000140066f10     DBManager.obj
 0002:00002f14       ??_C@_05MBCIFLDO@DBMgr?$AA@ 0000000140066f14     DBManager.obj
 0002:00002f20       ??_C@_0BB@KPNPAAPO@DB_SAVE_MAX_1_ID?$AA@ 0000000140066f20     DBManager.obj
 0002:00002f38       ??_C@_0BB@OIHPHKCO@DB_SAVE_MAX_2_ID?$AA@ 0000000140066f38     DBManager.obj
 0002:00002f50       ??_C@_0BC@ENPJMMJF@DB_SAVE_SKIP_1_ID?$AA@ 0000000140066f50     DBManager.obj
 0002:00002f68       ??_C@_0BC@KFJLGEF@DB_SAVE_SKIP_2_ID?$AA@ 0000000140066f68     DBManager.obj
 0002:00002f7c       ??_C@_06DNKMJCIK@STATUS?$AA@ 0000000140066f7c     DBManager.obj
 0002:00002f88       ??_C@_0N@KNMCFHGH@INSERT?5INTO?5?$AA@ 0000000140066f88     DBManager.obj
 0002:00002f98       ??_C@_0L@CKNDCPKK@T_COIL_INF?$AA@ 0000000140066f98     DBManager.obj
 0002:00002fa8       ??_C@_08PNDGPBJO@?5VALUES?$CI?$AA@ 0000000140066fa8     DBManager.obj
 0002:00002fb8       ??_C@_0CF@LNOPECOL@?$FL?$CFs?$FN?5?$JF?$NL?$JB?$LG?$JC?$IG?$IDR?$IDC?$ID?$IL?$IDo?$IDb?$IDt?$ID?$EA?$IC?I?$JG?$LD?$IC?$LF?5@ 0000000140066fb8     DBManager.obj
 0002:00002fe0       ??_C@_0BI@OGOMLFAO@?$FL?$CFs?3DBDATA_COIL_RESULT?$FN?$AA@ 0000000140066fe0     DBManager.obj
 0002:00002ff8       ??_C@_0DE@OLOAFPJH@?$FL?$CFs?$FN?5DB?$IP?$JB?$IC?$KL?$JIR?$IC?g?$IC?$LF?$JE?$KN?$JA?$LG?5?$FL?$CFs?$FN?$FL?$JHL?$IKQ?$DN@ 0000000140066ff8     DBManager.obj
 0002:00003030       ??_C@_0BO@KPCFHGNB@?$FL?$CFs?$DL?5?$JHL?$IKQ?$DN?$CFd?3?$CFd?5?1?5?$JG?$LD?$IKQ?$DN?$CFd?3?$CFd?$FN?$AA@ 0000000140067030     DBManager.obj
 0002:00003050       ??_C@_0CL@HPKJPOOO@?$FL?$CFs?$FN?5DB?$JDo?$JI?$FO?$II?K?$JH?$IK?$IDL?$ID?$IF?$IB?$FL?$IDt?$ID?$IL?5?$FLBCP_B@ 0000000140067050     DBManager.obj
 0002:00003080       ??_C@_0BB@IHEKBMHJ@?$FLBCP_BATCH_EXEC?$FN?$AA@ 0000000140067080     DBManager.obj
 0002:00003098       ??_C@_0O@CFLDFAPO@T_COIL_RESULT?$AA@ 0000000140067098     DBManager.obj
 0002:000030a8       ??_C@_04OGKJMPGK@?$CF02d?$AA@ 00000001400670a8     DBManager.obj
 0002:000030b0       ??_C@_08GPHMBMCE@SO_TRAND?$AA@ 00000001400670b0     DBManager.obj
 0002:000030c0       ??_C@_0BA@IBBHIJEP@?$FL?$CFs?$FN?5?$IDR?$IDC?$ID?$IL?$IO?$MA?$JA?Q?$AA@ 00000001400670c0     DBManager.obj
 0002:000030d0       ??_C@_0O@NBEPJDIA@T_COIL_CAMERA?$AA@ 00000001400670d0     DBManager.obj
 0002:000030e0       ??_C@_0CP@JLGHPHPM@?$FL?$CFs?$FN?5DB?$JDo?$JI?$FO?$II?K?$JH?$IK?$IDL?$ID?$IF?$IB?$FL?$IDt?$ID?$IL?5?$FLDBDAT@ 00000001400670e0     DBManager.obj
 0002:00003110       ??_C@_0BF@NHKDPACO@?$FLDBDATA_COIL_CAMERA?$FN?$AA@ 0000000140067110     DBManager.obj
 0002:00003128       ??_C@_0BA@MACFKJBC@?$FL?$CFs?$FN?5?$IDJ?$ID?$IB?$ID?$IJ?$IO?$MA?$JA?Q?$AA@ 0000000140067128     DBManager.obj
 0002:00003138       ??_C@_04LIFAFMCE@?$FL?$CFs?$FN?$AA@ 0000000140067138     DBManager.obj
 0002:00003140       ??_C@_07PCCOPOHM@UPDATE?5?$AA@ 0000000140067140     DBManager.obj
 0002:00003148       ??_C@_05GENJOELA@?5SET?5?$AA@ 0000000140067148     DBManager.obj
 0002:00003150       ??_C@_0BB@FGGIHDCC@?$IPo?$JB?$KE?$JCP?$II?J?$JA?f?$JC?$FL?$II?J?$JCu?$AA@ 0000000140067150     DBManager.obj
 0002:00003168       ??_C@_0L@PMHGMCO@?$JF?2?$IO?$KG?$IO?$MA?$JB?$KK?$JC?$LH?$AA@ 0000000140067168     DBManager.obj
 0002:00003178       ??_C@_0M@HLIMCJMF@SPM?$II?$LD?$IJ?$LK?$JHL?$JG?$LD?$AA@ 0000000140067178     DBManager.obj
 0002:00003188       ??_C@_07HEBAGGGB@?5WHERE?5?$AA@ 0000000140067188     DBManager.obj
 0002:00003190       ??_C@_06PGHFKOOK@?$IK?G?$JH?$JNNo?$AA@ 0000000140067190     DBManager.obj
 0002:00003198       ??_C@_0DB@HGIICBLF@?$FL?$CFs?$FN?5DB?$JDo?$JI?$FO?$II?K?$JH?$IK?$IDL?$ID?$IF?$IB?$FL?$IDt?$ID?$IL?5?$FLDBDAT@ 0000000140067198     DBManager.obj
 0002:000031d0       ??_C@_0BH@FLOCFPEP@?$FLDBDATA_RESULT_UPDATE?$FN?$AA@ 00000001400671d0     DBManager.obj
 0002:000031e8       ??_C@_0BA@MNKJLFKN@T_COIL_POSITION?$AA@ 00000001400671e8     DBManager.obj
 0002:000031f8       ??_C@_0DB@FIDCEOGG@?$FL?$CFs?$FN?5DB?$JDo?$JI?$FO?$II?K?$JH?$IK?$IDL?$ID?$IF?$IB?$FL?$IDt?$ID?$IL?5?$FLDBDAT@ 00000001400671f8     DBManager.obj
 0002:00003230       ??_C@_0N@JGKHDKFN@T_COIL_TRAND?$AA@ 0000000140067230     DBManager.obj
 0002:00003240       ??_C@_0CK@OKGAOPDI@?$FL?$CFs?$FN?5DB?$JDo?$JI?$FO?$II?K?$JH?$IK?$IDL?$ID?$IF?$IB?$FL?$IDt?$ID?$IL?5?$FLDB_CO@ 0000000140067240     DBManager.obj
 0002:00003270       ??_C@_0P@EBHAEDAI@T_COIL_CUT_POS?$AA@ 0000000140067270     DBManager.obj
 0002:00003280       ??_C@_0BH@MKDICPFK@?$FL?$CFs?3DBDATA_DEFECT_INF?$FN?$AA@ 0000000140067280     DBManager.obj
 0002:00003298       ??_C@_0P@OFPODGKH@T_DEFECT_INF_T?$AA@ 0000000140067298     DBManager.obj
 0002:000032a8       ??_C@_0P@PJGGIDHA@T_DEFECT_INF_B?$AA@ 00000001400672a8     DBManager.obj
 0002:000032b8       ??_C@_0CK@IFIBBLPA@?$FL?$CFs?$FN?5DB?$JDo?$JI?$FO?$II?K?$JH?$IK?$IDL?$ID?$IF?$IB?$FL?$IDt?$ID?$IL?5?$FLDB_DE@ 00000001400672b8     DBManager.obj
 0002:000032e8       ??_C@_0BA@EMNOFCN@?$FLDB_DEFECT_INF?$FN?$AA@ 00000001400672e8     DBManager.obj
 0002:000032f8       ??_C@_0CO@LCBIKPKL@?$FL?$CFs?$FN?5DB?$JDo?$JI?$FO?$II?K?$JH?$IK?$IDL?$ID?$IF?$IB?$FL?$IDt?$ID?$IL?5?$FLDBDAT@ 00000001400672f8     DBManager.obj
 0002:00003328       ??_C@_0BE@BPAPCDIK@?$FLDBDATA_DEFECT_INF?$FN?$AA@ 0000000140067328     DBManager.obj
 0002:00003340       ??_C@_0BA@PIDLFBIK@T_EDGE_COIL_INF?$AA@ 0000000140067340     DBManager.obj
 0002:00003350       ??_C@_0CN@JEJOOIND@?$FL?$CFs?$FN?5DB?$JDo?$JI?$FO?$II?K?$JH?$IK?$IDL?$ID?$IF?$IB?$FL?$IDt?$ID?$IL?5?$FLDB_ED@ 0000000140067350     DBManager.obj
 0002:00003380       ??_C@_0BD@OEJKIPLJ@?$FLDB_EDGE_COIL_INF?$FN?$AA@ 0000000140067380     DBManager.obj
 0002:00003398       ??_C@_0BC@DMBGKDHL@T_EDGE_CHANGE_INF?$AA@ 0000000140067398     DBManager.obj
 0002:000033b0       ??_C@_0CP@LFEDJOG@?$FL?$CFs?$FN?5DB?$JDo?$JI?$FO?$II?K?$JH?$IK?$IDL?$ID?$IF?$IB?$FL?$IDt?$ID?$IL?5?$FLDB_ED@ 00000001400673b0     DBManager.obj
 0002:000033e0       ??_C@_0BF@EHJADODE@?$FLDB_EDGE_CHANGE_INF?$FN?$AA@ 00000001400673e0     DBManager.obj
 0002:000033f8       ??_C@_0BC@OBLLOIHN@?$FL?$CFs?$FN?5DB?$JA?Z?$JB?$LB?$IDG?$ID?$IJ?$IB?$FL?$AA@ 00000001400673f8     DBManager.obj
 0002:00003410       ??_C@_0BE@FGHIENPG@M_CAMERA_LINKSWITCH?$AA@ 0000000140067410     DBManager.obj
 0002:00003428       ??_C@_0P@BADMJBBH@UPDATE?5?$CFs?5SET?5?$AA@ 0000000140067428     DBManager.obj
 0002:00003438       ??_C@_02KEGNLNML@?0?5?$AA@ 0000000140067438     DBManager.obj
 0002:00003440       ??_C@_0BI@IPHFDIEP@?$FL?$ID?$HL?$IB?$FL?$IDh?$CFd_?$IDJ?$ID?$IB?$ID?$IJ?$JBI?$JB?p?$FN?$DN0?$AA@ 0000000140067440     DBManager.obj
 0002:00003458       ??_C@_0M@KNGBLAEA@?$FL?$CFs?$FN?5?$CFs?$DM?$CFs?$DO?$AA@ 0000000140067458     DBManager.obj
 0002:00003468       ??_C@_0DJ@BPGFJICM@UPDATE?5?$CFs?5SET?5?$FL?$ID?$HL?$IB?$FL?$IDh?$CFd_?$IDJ?$ID?$IB?$ID?$IJ?$JBI@ 0000000140067468     DBManager.obj
 0002:000034a8       ??_C@_0BK@NFNAKMCO@?$FL?$CFs?$FN?5CamLinkSw?5DB?$JC?h?$IL?$GA?$JF?O?$INX?$AA@ 00000001400674a8     DBManager.obj
 0002:000034c8       ??_C@_0BC@OAHAFPFE@?9?9?9?9?9?9?9?9?9?9?9?9?9?9?9?9?9?$AA@ 00000001400674c8     DBManager.obj
 0002:000034e0       ??_C@_0O@CIBMFKLA@PCID?3?$CF02d?$CI?$CFs?$CJ?$AA@ 00000001400674e0     DBManager.obj
 0002:000034f0       ??_C@_0DP@KLPNJNMH@?$FL?$CFs?$FN?5?5?5?$CFs?5LinkswNo?3?$CF02d?5FPGA?3?$CFd?5@ 00000001400674f0     DBManager.obj
 0002:00003530       ??_C@_0DB@LEKGGMHJ@?$FL?$CFs?$FN?5?$IM?$JP?$IN?$LI?$IKJ?$IOn?$JA?$NN?$JC?h?$IDR?$ID?$HN?$ID?$JD?$IDh?$JB?$JH?$JAM?$CIFA@ 0000000140067530     DBManager.obj
 0002:00003568       ??_C@_0N@PHHKBLOB@PARAM_COMMON?$AA@ 0000000140067568     DBManager.obj
 0002:00003578       ??_C@_0BA@OJLJCDCO@PLG?$IDp?$ID?$IL?$IDX?$ID?$IM?$IB?$FL?$IDg?$AA@ 0000000140067578     DBManager.obj
 0002:00003588       ??_C@_0BE@BKAHLNAE@PLG?$IDp?$ID?$IL?$IDX?$ID?$IM?$IB?$FL?$IDg?$JE?d?$IKr?$AA@ 0000000140067588     DBManager.obj
 0002:000035a0       ??_C@_0BE@BNPMFKAG@PLG?$IDp?$ID?$IL?$IDX?$ID?$IM?$IB?$FL?$IDg?$JF?2?$IO?$KG?$AA@ 00000001400675a0     DBManager.obj
 0002:000035b4       ??_C@_04FLGHJGA@Vres?$AA@  00000001400675b4     DBManager.obj
 0002:000035c0       ??_C@_0CM@DEKEDBHI@?$FL?$CFs?$FN?5DB?$JDo?$JI?$FO?$II?K?$JH?$IK?$IDL?$ID?$IF?$IB?$FL?$IDt?$ID?$IL?5?$FLDB_PA@ 00000001400675c0     DBManager.obj
 0002:000035f0       ??_C@_0BC@FKDHNEHN@?$FLDB_PARAM_COMMON?$FN?$AA@ 00000001400675f0     DBManager.obj
 0002:00003608       ??_C@_0DM@CHNEMPLK@?$FL?$CFs?$FN?5?$JDo?$JI?$FO?$IP?s?$IL?$LF?$JG?b?$IC?$KC?$IN?$IH?$IC?m?$IC?$LJ?$IBB?$IDL?$ID?$IF?$IB?$FL?$ID@ 0000000140067608     DBManager.obj
 0002:00003648       ??_C@_0CH@BFOOMNNF@?$FL?$CFs?$FN?5?$JDo?$JI?$FO?$IP?s?$IL?$LF?$JG?b?$IC?$KC?$IN?$IH?$IC?m?$IC?$LJ?$IKJ?$IOn?5?$JHv?$IL?$IB@ 0000000140067648     DBManager.obj
 0002:00003670       ??_C@_0N@GKPJEGGB@T_STATUS_LOG?$AA@ 0000000140067670     DBManager.obj
 0002:00003680       ??_C@_0DB@LBLOGAHE@?$FLDBManager?$FN?5DB?$JDo?$JI?$FO?$II?K?$JH?$IK?$IDL?$ID?$IF?$IB?$FL?$IDt?$ID?$IL@ 0000000140067680     DBManager.obj
 0002:000036b8       ??_C@_0BA@EELPDDBO@?$FLDB_STATUS_LOG?$FN?$AA@ 00000001400676b8     DBManager.obj
 0002:000036c8       ??_C@_0BC@EOODALEL@Unknown?5exception?$AA@ 00000001400676c8     DefectDumpManager.obj
 0002:000036e0       ??_C@_08EPJLHIJG@bad?5cast?$AA@ 00000001400676e0     DefectDumpManager.obj
 0002:000036f0       ??_C@_09JEBCPACM@DefMgr_?$CFd?$AA@ 00000001400676f0     DefectDumpManager.obj
 0002:000036fc       ??_C@_03JOOLLLO@?$CFs?2?$AA@ 00000001400676fc     DefectDumpManager.obj
 0002:00003700       ??_C@_0BD@IELGHLPF@?$CFsbk_?$CFs_?$EA?$CFd_?$CFd?4csv?$AA@ 0000000140067700     DefectDumpManager.obj
 0002:00003718       ??_C@_0M@PJHEONOC@?$CFs?$CFs_?$CFd?4csv?$AA@ 0000000140067718     DefectDumpManager.obj
 0002:00003728       ??_C@_0BC@BJNMHGJO@?$CFsbk_?$CFs_?$EA0_?$CFd?4csv?$AA@ 0000000140067728     DefectDumpManager.obj
 0002:00003740       ??_C@_0CF@EGGNHINK@?$CF04d?1?$CF02d?1?$CF02d?5?$CF02d?3?$CF02d?3?$CF02d?4?$CF0@ 0000000140067740     DefectDumpManager.obj
 0002:00003768       ??_C@_0BA@JFNIOLAK@string?5too?5long?$AA@ 0000000140067768     DefectDumpManager.obj
 0002:00003780       ??_7?$ThreadQueue@UDEFDUMP_QUE@DefectDumpManager@@@KizuLib@@6B@ 0000000140067780     DefectDumpManager.obj
 0002:00003790       ??_7?$basic_filebuf@DU?$char_traits@D@std@@@std@@6B@ 0000000140067790     DefectDumpManager.obj
 0002:00003808       ??_8?$basic_ofstream@DU?$char_traits@D@std@@@std@@7B@ 0000000140067808     DefectDumpManager.obj
 0002:00003818       ??_7?$basic_ofstream@DU?$char_traits@D@std@@@std@@6B@ 0000000140067818     DefectDumpManager.obj
 0002:00003828       ??_7DefectDumpManager@@6B@ 0000000140067828     DefectDumpManager.obj
 0002:00003868       ??_7bad_cast@std@@6B@      0000000140067868     DefectDumpManager.obj
 0002:00003880       ??_7exception@std@@6B@     0000000140067880     DefectDumpManager.obj
 0002:00003890       ??_C@_07JKLPNAFA@DmenMgr?$AA@ 0000000140067890     DmemManager.obj
 0002:00003898       ??_C@_0O@DMOMEOEO@TBL_TO_SEQMEM?$AA@ 0000000140067898     DmemManager.obj
 0002:000038a8       ??_C@_0CG@BPPIIHOC@?$IDf?$IB?$FL?$ID?$FO?$ID?$IB?$ID?$IC?$ID?$IK?$IP?n?$JF?q?$IDe?$IB?$FL?$IDu?$ID?$IL?5?$IDA?$IDN?$IDZ?$ID@ 00000001400678a8     DmemManager.obj
 0002:000038d0       ??_C@_0CA@GFAPMMCN@?$FL?$CFs?$FN?5?$ID?$HL?$IDC?$IDX?$IPo?$JH?M?$JC?$IG?$IC?I?$IC?B?$IC?$KL?$JHv?$IL?$IB?$JEj?$IK?$PM?$AA@ 00000001400678d0     DmemManager.obj
 0002:000038f0       ??_C@_0BC@IABDNLPA@?$FL?$CFs?$FN?5?$IDw?$ID?$IL?$IDV?$IB?$FL?$II?Y?$IP?m?$AA@ 00000001400678f0     DmemManager.obj
 0002:00003908       ??_C@_0BC@LMBNJGGM@DATAMEM_SEQ_HB_ID?$AA@ 0000000140067908     DmemManager.obj
 0002:00003920       ??_C@_0BG@DHKMCOIH@?$FL?$CFs?$FN?5?$IDw?$ID?$IL?$IDV?$IB?$FL?$JA?$LD?$IP?m?$JF?$JM?$ILA?$AA@ 0000000140067920     DmemManager.obj
 0002:00003938       ??_C@_0BK@HFIEKBLC@?$FL?$CFs?$FN?5?$IM?$JP?$IN?$LIWPD?$IDQ?$IB?$FL?$IDg?$JAM?$IN?$IG?5ON?$AA@ 0000000140067938     DmemManager.obj
 0002:00003958       ??_C@_0BL@INCKOPDK@?$FL?$CFs?$FN?5?$IM?$JP?$IN?$LIWPD?$IDQ?$IB?$FL?$IDg?$JAM?$IN?$IG?5OFF?$AA@ 0000000140067958     DmemManager.obj
 0002:00003978       ??_C@_0BK@OBDAFMHO@?$FL?$CFs?$FN?5?$JF?2?$IO?$KGWPD?$IDQ?$IB?$FL?$IDg?$JAM?$IN?$IG?5ON?$AA@ 0000000140067978     DmemManager.obj
 0002:00003998       ??_C@_0BL@BPGMNFFM@?$FL?$CFs?$FN?5?$JF?2?$IO?$KGWPD?$IDQ?$IB?$FL?$IDg?$JAM?$IN?$IG?5OFF?$AA@ 0000000140067998     DmemManager.obj
 0002:000039b8       ??_C@_0CA@IMMBKEJJ@?$FL?$CFs?$FN?5?$IM?$JP?$IN?$LIWPD?5ON?5?$FL?$IDt?$ID?$IM?$IB?$FL?$ID?$IANo?3?$CFd?$FN?$AA@ 00000001400679b8     DmemManager.obj
 0002:000039d8       ??_C@_0BA@MBEBOFAG@?$FL?$CFs?$FN?5?$JF?2?$IO?$KGWPD?5ON?$AA@ 00000001400679d8     DmemManager.obj
 0002:000039e8       ??_C@_0CB@MEKIIOCL@?$FL?$CFs?$FN?5?$IPo?$JB?$KE?$IDt?$ID?$EA?$IB?$FL?$IDX?$IDg?$IDJ?$IDb?$IDg?$JAM?$IN?$IG?5ON@ 00000001400679e8     DmemManager.obj
 0002:00003a10       ??_C@_0BN@KHGFLNDM@?$FL?$CFs?$FN?5?$IPo?$JB?$KE?$ID?$IJ?$IDX?$IDg?$IDJ?$IDb?$IDg?$JAM?$IN?$IG?5ON?$AA@ 0000000140067a10     DmemManager.obj
 0002:00003a30       ??_C@_0BN@BNDJFEFE@?$FL?$CFs?$FN?5?$IDp?$IDg?$ID?$IJ?$IDC?$IDg?$ID?$IK?$IDZ?$IDb?$IDgPB?5ON?$AA@ 0000000140067a30     DmemManager.obj
 0002:00003a50       ??_C@_0BI@HJEJIPDC@?$FL?$CFs?$FN?5?$IDV?$IB?$FL?$IDP?$ID?$JD?$IDT?$IP?s?$JB?T?$JF?$JM?$IL?$IM?$AA@ 0000000140067a50     DmemManager.obj
 0002:00003a68       ??_C@_08LFOMJGDF@?$JA?$LD?$IP?m?$JF?$JM?$ILA?$AA@ 0000000140067a68     DmemManager.obj
 0002:00003a78       ??_C@_0BL@GBDFDMEH@?$FL?$CFs?$FN?5?$IDV?$IB?$FL?$IDP?$ID?$JD?$IDT?5?$IMy?$IM?L?$IP?a?$IP?s?$JB?T?$AA@ 0000000140067a78     DmemManager.obj
 0002:00003a98       ??_C@_08MDANNPAN@?$FL?$IMy?$IM?L?$IP?a?$FN?$AA@ 0000000140067a98     DmemManager.obj
 0002:00003aa8       ??_C@_0BL@CKIHFABO@?$FL?$CFs?$FN?5?$IDV?$IB?$FL?$IDP?$ID?$JD?$IDT?5?$IPd?$IM?L?$IP?a?$IP?s?$JB?T?$AA@ 0000000140067aa8     DmemManager.obj
 0002:00003ac8       ??_C@_08ELILCFOA@?$FL?$IPd?$IM?L?$IP?a?$FN?$AA@ 0000000140067ac8     DmemManager.obj
 0002:00003ad8       ??_C@_0BO@BMNHFPHD@?$FL?$CFs?$FN?5?$IDV?$IB?$FL?$IDP?$ID?$JD?$IDT?$IJ?R?$JD?$KO?$IP?s?$JB?T?3?5?$JA?$LD?$IP?m?$AA@ 0000000140067ad8     DmemManager.obj
 0002:00003af8       ??_C@_06BCFFDPMM@?$FL?$JA?$LD?$IP?m?$FN?$AA@ 0000000140067af8     DmemManager.obj
 0002:00003b00       ??_C@_0CE@DLIABBJI@?$FL?$CFs?$FN?5?$IDV?$IB?$FL?$IDP?$ID?$JD?$IDT?$IJ?R?$JD?$KO?$IP?s?$JB?T?3?5?$IP?$IJ?$IK?z?$IJ?$LL?$IN@ 0000000140067b00     DmemManager.obj
 0002:00003b28       ??_C@_0N@JILBBMIF@?$FL?$IP?$IJ?$IK?z?$IJ?$LL?$IN?O?$IC?$NN?$FN?$AA@ 0000000140067b28     DmemManager.obj
 0002:00003b38       ??_C@_0BO@LCIDAGMF@?$FL?$CFs?$FN?5?$IDV?$IB?$FL?$IDP?$ID?$JD?$IDT?$IJ?R?$JD?$KO?$IP?s?$JB?T?3?5?$JH?2?$JE?u?$AA@ 0000000140067b38     DmemManager.obj
 0002:00003b58       ??_C@_06DAPJHNCM@?$FL?$JH?2?$JE?u?$FN?$AA@ 0000000140067b58     DmemManager.obj
 0002:00003b60       ??_C@_0CA@IJPEOKOB@?$FL?$CFs?$FN?5?$IDV?$IB?$FL?$IDP?$ID?$JD?$IDT?$IJ?R?$JD?$KO?$IP?s?$JB?T?3?5?$IOB?$JB?$JM?$JC?$IG?$AA@ 0000000140067b60     DmemManager.obj
 0002:00003b80       ??_C@_08EDPMKFLB@?$FL?$IOB?$JB?$JM?$JC?$IG?$FN?$AA@ 0000000140067b80     DmemManager.obj
 0002:00003b90       ??_C@_0CA@OGFKPIFF@?$FL?$CFs?$FN?5?$CFs?$IDJ?$ID?$IB?$ID?$IJ?$JB?d?$IO?T?$IDI?$ID?$JD?$ID?$IJ?$IDC?$ID?$JD?$II?J?$JCu?$AA@ 0000000140067b90     DmemManager.obj
 0002:00003bb0       ??_C@_0BE@FBDNDBFN@?$FL?$CFs?3?$IDI?$ID?$JD?$ID?$IJ?$IDC?$ID?$JD?$II?J?$JCu?$FN?$AA@ 0000000140067bb0     DmemManager.obj
 0002:00003bc8       ??_C@_0CA@NKFHBCDC@?$FL?$CFs?$FN?5?$CFs?$IDJ?$ID?$IB?$ID?$IJ?$JB?d?$IO?T?$IDI?$IDt?$ID?$IJ?$IDC?$ID?$JD?$II?J?$JCu?$AA@ 0000000140067bc8     DmemManager.obj
 0002:00003be8       ??_C@_0BE@ICNHMIEM@?$FL?$CFs?3?$IDI?$IDt?$ID?$IJ?$IDC?$ID?$JD?$II?J?$JCu?$FN?$AA@ 0000000140067be8     DmemManager.obj
 0002:00003c00       ??_C@_0BK@NGBJCAOH@?$FL?$CFs?$FN?5?$CFs?$IDJ?$ID?$IB?$ID?$IJ?$JB?d?$IO?T?$JFs?$JG?$LO?$II?J?$JCu?$AA@ 0000000140067c00     DmemManager.obj
 0002:00003c20       ??_C@_0O@BNBODNEG@?$FL?$CFs?3?$JFs?$JG?$LO?$II?J?$JCu?$FN?$AA@ 0000000140067c20     DmemManager.obj
 0002:00003c30       ??_C@_0DJ@HDHPEMFE@?$FL?$CFs?$FN?5?$CFs?$ID?S?$ID?V?$JB?d?$IO?T?$II?J?$JCu?$IDI?$ID?$JD?$ID?$IJ?$IDC?$ID?$JD?$II?H?$IK@ 0000000140067c30     DmemManager.obj
 0002:00003c70       ??_C@_0BH@HOOOGCBM@?$FL?$CFs?3?ar?$JF?$NL?$JB?$LG?$JC?$IG?5Frame?3?$CFd?$FN?$AA@ 0000000140067c70     DmemManager.obj
 0002:00003c90       ??_C@_0ED@ECGFMCLI@?$FL?$CFs?$FN?5?$CFs?$ID?S?$ID?V?$JB?d?$IO?T?$II?J?$JCu?$IDI?$ID?$JD?$ID?$IJ?$IDC?$ID?$JD?$II?H?$IK@ 0000000140067c90     DmemManager.obj
 0002:00003cd8       ??_C@_0CB@PPFOJELM@?$FL?$CFs?3?ar?$JF?$NL?$JB?$LG?$IDX?$IDL?$IDb?$IDv?$IKJ?$IOn?5Frame?3?$CFd?$FN@ 0000000140067cd8     DmemManager.obj
 0002:00003cfc       ??_C@_02GACNOJIN@BK?$AA@   0000000140067cfc     DmemManager.obj
 0002:00003d00       ??_C@_0BJ@BDDOOIKD@?$FL?$CFs?$FN?5?$CFs?5PI?$ID?$GA?$ID?$IJ?$IB?$FL?3?5?$IJ?$FO?$JD?$FN?$JC?$IG?$AA@ 0000000140067d00     DmemManager.obj
 0002:00003d20       ??_C@_0BJ@DBBIKAHK@?$FL?$CFs?$FN?5?$CFs?5PI?$ID?$GA?$ID?$IJ?$IB?$FL?3?5?$JC?b?$IO?$HO?$JC?$IG?$AA@ 0000000140067d20     DmemManager.obj
 0002:00003d40       ??_C@_0BH@LOAKEEOH@?$FL?$CFs?$FN?5?$CFs?5PI?$ID?$GA?$ID?$IJ?$IB?$FL?3?5?$JA?$LD?$IP?m?$AA@ 0000000140067d40     DmemManager.obj
 0002:00003d58       ??_C@_0BH@LKABIPMD@?$FL?$CFs?$FN?5?$CFs?5PI?$ID?$GA?$ID?$IJ?$IB?$FL?3?5?$II?Y?$IP?m?$AA@ 0000000140067d58     DmemManager.obj
 0002:00003d70       ??_C@_0BP@HCPHHNKJ@?$FL?$CFs?$FN?5?$CFs?5?$IDG?$IDA?$IDh?$ID?$IJ?$IDC?$ID?$IE?$IB?$FL?3?5?$IJ?$FO?$JD?$FN?$JC?$IG?$AA@ 0000000140067d70     DmemManager.obj
 0002:00003d90       ??_C@_02DKCKIIND@?$CFs?$AA@ 0000000140067d90     DmemManager.obj
 0002:00003d98       ??_C@_0BP@FANBDFHA@?$FL?$CFs?$FN?5?$CFs?5?$IDG?$IDA?$IDh?$ID?$IJ?$IDC?$ID?$IE?$IB?$FL?3?5?$JC?b?$IO?$HO?$JC?$IG?$AA@ 0000000140067d98     DmemManager.obj
 0002:00003db8       ??_C@_0BN@LDKCOIME@?$FL?$CFs?$FN?5?$CFs?5?$IDG?$IDA?$IDh?$ID?$IJ?$IDC?$ID?$IE?$IB?$FL?3?5?$JA?$LD?$IP?m?$AA@ 0000000140067db8     DmemManager.obj
 0002:00003dd8       ??_C@_0BN@LHKJCDOA@?$FL?$CFs?$FN?5?$CFs?5?$IDG?$IDA?$IDh?$ID?$IJ?$IDC?$ID?$IE?$IB?$FL?3?5?$II?Y?$IP?m?$AA@ 0000000140067dd8     DmemManager.obj
 0002:00003df8       ??_C@_0CB@BKDPNIAL@?$FL?$CFs?$FN?5?$JB?d?$IO?T?$JA?$KH?$IM?d?$JE?U?5INV?$JDd?$IM?$LJ?3?5?$JDd?$IM?$LJOFF@ 0000000140067df8     DmemManager.obj
 0002:00003e20       ??_C@_0CA@LCGKBILJ@?$FL?$CFs?$FN?5?$JB?d?$IO?T?$JA?$KH?$IM?d?$JE?U?5INV?$JDd?$IM?$LJ?3?5?$JDd?$IM?$LJON?$AA@ 0000000140067e20     DmemManager.obj
 0002:00003e40       ??_C@_0BI@CJNDAJEG@?$FL?$CFs?$FN?5?$JDd?$ILC?$IO?$LK?$IB?$EA?$JE?$OA?$IB?$EA?$IKJ?$IP?s?$JB?T?$AA@ 0000000140067e40     DmemManager.obj
 0002:00003e58       ??_C@_0BF@JNCEDAO@?$FL?$JE?$OA?$DL?5?$JF?B?$IP?s?$JB?T?$IB?$KI?$IKJ?$IP?s?$JB?T?$FN?$AA@ 0000000140067e58     DmemManager.obj
 0002:00003e70       ??_C@_0BI@EKKGHDNE@?$FL?$CFs?$FN?5?$JDd?$ILC?$IO?$LK?$IB?$EA?$JE?$OA?$IB?$EA?$JF?B?$IP?s?$JB?T?$AA@ 0000000140067e70     DmemManager.obj
 0002:00003e88       ??_C@_0BF@POHDKBIE@?$FL?$JE?$OA?$DL?5?$IKJ?$IP?s?$JB?T?$IB?$KI?$JF?B?$IP?s?$JB?T?$FN?$AA@ 0000000140067e88     DmemManager.obj
 0002:00003ea0       ??_C@_0BI@LNJFBLNL@?$FL?$CFs?$FN?5?$JDd?$ILC?$IO?$LK?$IB?$EA?$IM?$KO?$IB?$EA?$IKJ?$IP?s?$JB?T?$AA@ 0000000140067ea0     DmemManager.obj
 0002:00003eb8       ??_C@_0BF@KNLKMECH@?$FL?$IM?$KO?$DL?5?$JF?B?$IP?s?$JB?T?$IB?$KI?$IKJ?$IP?s?$JB?T?$FN?$AA@ 0000000140067eb8     DmemManager.obj
 0002:00003ed0       ??_C@_0BI@NOOAGBEJ@?$FL?$CFs?$FN?5?$JDd?$ILC?$IO?$LK?$IB?$EA?$IM?$KO?$IB?$EA?$JF?B?$IP?s?$JB?T?$AA@ 0000000140067ed0     DmemManager.obj
 0002:00003ee8       ??_C@_0BF@FKBLCGKN@?$FL?$IM?$KO?$DL?5?$IKJ?$IP?s?$JB?T?$IB?$KI?$JF?B?$IP?s?$JB?T?$FN?$AA@ 0000000140067ee8     DmemManager.obj
 0002:00003f00       ??_C@_0HO@KHJEPEGJ@?$FL?$CFs?$FN?5?$IDV?$IB?$FL?$IDP?$ID?$JD?$IDT?$IC?f?$IC?h?$JD?$PM?$JH?M?$IC?$LD?$IC?j?$IC?$LN?$IDp?$ID@ 0000000140067f00     DmemManager.obj
 0002:00003f80       ??_C@_0DM@GFHMJIO@?$IM?$JP?$IN?$LI?$JHp?3?$CF?44fmm?1pls?0?5?$IM?$JP?$IN?$LI?$JE?d?$IKr?$JHp?3?$CF?4@ 0000000140067f80     DmemManager.obj
 0002:00003fbc       ??_C@_06IHMGMBEE@?$IM?$JP?$IN?$LI?$JHp?$AA@ 0000000140067fbc     DmemManager.obj
 0002:00003fc8       ??_C@_0L@DAHLAMDJ@?$IM?$JP?$IN?$LI?$JE?d?$IKr?$JHp?$AA@ 0000000140067fc8     DmemManager.obj
 0002:00003fd4       ??_C@_06BFJKCODP@?$JF?2?$IO?$KG?$JHp?$AA@ 0000000140067fd4     DmemManager.obj
 0002:00003fe0       ??_C@_0DA@OGBLJFJM@?$FL?$CFs?$FN?5?$IDV?$IB?$FL?$IDP?$ID?$JD?$IDT?$IC?f?$IC?h?$CFs?$IDp?$ID?$IL?$IDX?$ID?$IM?$IB?$FL?$ID@ 0000000140067fe0     DmemManager.obj
 0002:00004010       ??_C@_0BN@PBFLKCMF@?$FL?$CFs?$IBF?$CF?44fmm?1pls?$IB?$KI?$CF?44fmm?1pls?$FN?$AA@ 0000000140068010     DmemManager.obj
 0002:00004030       ??_C@_0BI@FPOEHIHI@?$FL?$CFs?$FN?5SPM?$IKJ?$JF?z?$JAM?$IN?$IG?5?$II?$LD?$IJ?$LK?$JC?$IG?$AA@ 0000000140068030     DmemManager.obj
 0002:00004048       ??_C@_0BF@NKJBBHBC@?$FLSPM?$IP?s?$JB?T?5?$IKJ?$JF?z?$IB?$KI?$II?$LD?$IJ?$LK?$FN?$AA@ 0000000140068048     DmemManager.obj
 0002:00004060       ??_C@_0BI@MEOCADDO@?$FL?$CFs?$FN?5SPM?$IKJ?$JF?z?$JAM?$IN?$IG?5?$IKJ?$JF?z?$JC?$IG?$AA@ 0000000140068060     DmemManager.obj
 0002:00004078       ??_C@_0BF@EFJNEEMF@?$FLSPM?$IP?s?$JB?T?5?$II?$LD?$IJ?$LK?$IB?$KI?$IKJ?$JF?z?$FN?$AA@ 0000000140068078     DmemManager.obj
 0002:00004090       ??_C@_0CK@LGKIGDNO@?$FL?$CFs?$FN?5?$JDh?$JG?$PL?$IDX?$IDv?$ID?$IM?$IB?$FL?$JB?$JF?$JCu?5?$JA?$IB?$JFt?$IP?s?$JB?T?5?$JG@ 0000000140068090     DmemManager.obj
 0002:000040c0       ??_C@_0CD@CCOKHGBK@?$FL?$JA?$IB?$JFt?$IP?s?$JB?T?$DL?5?$JA?$IB?$JFt?$JC?$IG?$IP?s?$JB?T?$IB?$KI?$JG?$KC?$JA?$IB?$JFt?$IP?s?$JB@ 00000001400680c0     DmemManager.obj
 0002:000040e8       ??_C@_0CK@JKJGMILD@?$FL?$CFs?$FN?5?$JDh?$JG?$PL?$IDX?$IDv?$ID?$IM?$IB?$FL?$JB?$JF?$JCu?5?$JA?$IB?$JFt?$IP?s?$JB?T?5?$JA@ 00000001400680e8     DmemManager.obj
 0002:00004118       ??_C@_0CD@HOADHMCG@?$FL?$JA?$IB?$JFt?$IP?s?$JB?T?$DL?5?$JG?$KC?$JA?$IB?$JFt?$IP?s?$JB?T?$IB?$KI?$JA?$IB?$JFt?$JC?$IG?$IP?s?$JB@ 0000000140068118     DmemManager.obj
 0002:0000413c       ??_C@_02BGGMAGLG@?$IMy?$AA@ 000000014006813c     DmemManager.obj
 0002:00004140       ??_C@_02OLEGNEPD@?$IPd?$AA@ 0000000140068140     DmemManager.obj
 0002:00004148       ??_C@_0CM@HIENOCBC@?$FL?$CFs?$FN?5?ar?$JA?Z?$IL?$NP?$ID?$IJ?$ID?$JD?$IDv?5?$JE?$KN?$JA?$LG?$FLmen?$DN?$CFs?0?5?$II@ 0000000140068148     DmemManager.obj
 0002:00004178       ??_C@_0CG@HDPNHJMB@?$FL?$CFs?$FN?5?ar?$JA?Z?$IL?$NP?$IDA?$ID?$IJ?$IB?$FL?$ID?$IA?5?$JE?$KN?$JA?$LG?$FL?$II?J?$JCu?$DN?$CFd@ 0000000140068178     DmemManager.obj
 0002:000041a0       ??_C@_0DG@OFLCJGJH@?$FL?$CFs?$FN?5?$IDp?$IDg?$ID?$IJ?$IDC?$IDg?$IM?B?$JA?$JE?$JF?O?$INX?$FL?$JF?$NL?$JHL?$IM?B?$JA?$JE@ 00000001400681a0     DmemManager.obj
 0002:000041d8       ??_C@_0CA@MBEKCLAO@?$FL?$CFs?$FN?5?$JA?$NN?$JE?u?$II?Y?$IP?m?$ID?$HL?$IDC?$IDX?5?$IPo?$JH?M?$FLid?$DN?$CFd?$FN?$AA@ 00000001400681d8     DmemManager.obj
 0002:000041f8       ??_C@_0CI@GMDMDHFK@?$FL?$CFs?$FN?5?$IM?$IH?$IK?W?$IM?$JP?$IPo?$ID?$HL?$IDC?$IDX?5?$IPo?$JH?M?$FLmen?$DN?$CFd?0@ 00000001400681f8     DmemManager.obj
 0002:00004220       ??_C@_0CE@JEFCLJCJ@?$FL?$CFs?$FN?5?$IDV?$IB?$FL?$IDP?$ID?$JD?$IDT?$IDJ?$IDE?$ID?$JD?$ID?$FO?$ID?$IK?$IDZ?$IDb?$IDg?$JH@ 0000000140068220     DmemManager.obj
 0002:00004248       ??_C@_0CE@MNAGNHAF@?$FL?$CFs?$FN?5?$IDV?$IB?$FL?$IDP?$ID?$JD?$IDT?$IDJ?$IDE?$ID?$JD?$ID?$FO?$IKJ?$IOn?$JHv?$IL?$IB?$JA@ 0000000140068248     DmemManager.obj
 0002:00004270       ??_C@_0DF@EOAGLDCK@?$FL?$CFs?$FN?5DB?$JDo?$JI?$FO?$II?K?$JH?$IK?$IDL?$ID?$IF?$IB?$FL?$IDt?$ID?$IL?5?$FLDBDAT@ 0000000140068270     DmemManager.obj
 0002:000042a8       ??_C@_0BL@CDHPNPOL@?$FLDBDATA_PULSE_RATE_UPDATE?$FN?$AA@ 00000001400682a8     DmemManager.obj
 0002:000042d0       ??_7?$ThreadQueue@UDELIVERY@DmemManager@@@KizuLib@@6B@ 00000001400682d0     DmemManager.obj
 0002:000042e0       ??_7DmemManager@@6B@       00000001400682e0     DmemManager.obj
 0002:00004320       ??_7EdgePosControl@@6B@    0000000140068320     EdgePosControl.obj
 0002:00004328       ??_C@_04OGKFBPJK@?$JA?$LD?$IP?m?$AA@ 0000000140068328     EdgePosControl.obj
 0002:00004330       ??_C@_08MGEIKKDF@?J?$NO?$KP?$LI?$LB?$KP?L?$NP?$AA@ 0000000140068330     EdgePosControl.obj
 0002:00004340       ??_C@_0BE@IEANPEHI@?$IDX?$IDe?$IB?$FL?$ID?$FO?$IDX?$II?Y?$IP?m?5?$DM?$CFd?$DO?$AA@ 0000000140068340     EdgePosControl.obj
 0002:00004358       ??_C@_0M@DJEKOIJJ@EdgePosCont?$AA@ 0000000140068358     EdgePosControl.obj
 0002:00004368       ??_C@_08MKOBHJCL@?$IP?$IJ?$IK?z?$IP?s?$JB?T?$AA@ 0000000140068368     EdgePosControl.obj
 0002:00004378       ??_C@_08PMPGILLD@?$IDX?$IDL?$IDb?$IDv?$AA@ 0000000140068378     EdgePosControl.obj
 0002:00004388       ??_C@_0N@NABEHIJE@?$JF?P?$IDG?$IDb?$IDW?$JHD?$JA?f?$AA@ 0000000140068388     EdgePosControl.obj
 0002:00004398       ??_C@_0M@EIIKCEIM@?W?$LC?$NN?$LO?$NN?$MA?$LA?$JAU?$JF?$KK?$AA@ 0000000140068398     EdgePosControl.obj
 0002:000043a8       ??_C@_0CB@FFFMNJED@?$FL?$CFs?$FN?5?$DM?$CFs?$DO?5?$JF?$KI?$JH?$JN?$JDI?$IC?H?$IDR?$IDC?$ID?$IL?$JA?X?$JB?V?$JEF?$IO?$KP@ 00000001400683a8     EdgePosControl.obj
 0002:000043d0       ??_C@_0DK@BABHEGIM@?$FL?$CFs?$FN?5?$DM?$CFs?$DO?5?$JI_?$JH?$JN?$JDI?$IC?H?$IDR?$IDC?$ID?$IL?$JA?X?$JB?V?$JEF?$IO?$KP@ 00000001400683d0     EdgePosControl.obj
 0002:00004410       ??_C@_0BD@OJHFBNCB@EdgeRestrictSender?$AA@ 0000000140068410     EdgeRestrictSender.obj
 0002:00004430       ??_7?$ThreadQueue@UNCL_EDGE_RESTRICT_DATA@@@KizuLib@@6B@ 0000000140068430     EdgeRestrictSender.obj
 0002:00004440       ??_7EdgeRestrictSender@@6B@ 0000000140068440     EdgeRestrictSender.obj
 0002:00004480       ??_7HtRecv@@6BKizuHtRecv@@@ 0000000140068480     HtRecv.obj
 0002:000044d8       ??_7HtRecv@@6BThreadManager@@@ 00000001400684d8     HtRecv.obj
 0002:00004568       ??_C@_0BB@NOPKAPEH@FRAME_SKIP_?$CFd_ID?$AA@ 0000000140068568     HtRecv.obj
 0002:00004580       ??_C@_0O@JOOHDOAD@EDGE_NG_?$CFd_ID?$AA@ 0000000140068580     HtRecv.obj
 0002:00004590       ??_C@_0BE@JJDBPDNI@FRAME_UNMATCH_?$CFd_ID?$AA@ 0000000140068590     HtRecv.obj
 0002:000045a8       ??_C@_0O@FMKGHKFE@PANCH_TYPE_ID?$AA@ 00000001400685a8     HtRecv.obj
 0002:000045b8       ??_C@_08FAMEJMP@Japanese?$AA@ 00000001400685b8     HtRecv.obj
 0002:000045c4       ??_C@_06DFGGNMCF@Def_?$CFs?$AA@ 00000001400685c4     HtRecv.obj
 0002:000045d0       ??_C@_0KA@MFKFFGBJ@?$JD?z?$JFt?0?$IK?G?$JH?$JNNo?0?ar?$JIA?$JE?T?0tid?0gid?0?$IN?E?$IPI?$JF@ 00000001400685d0     HtRecv.obj
 0002:00004670       ??_C@_0L@PJMCMHFP@EdgeUdp_?$CFs?$AA@ 0000000140068670     HtRecv.obj
 0002:00004680       ??_C@_0GN@EGMIBMKL@?0?5?$JF?2?$JH?$KA?0?5?$IK?G?$JH?$JNNo?0?5fno?0?5?$JC?$LH?$IO?h?$IL?$JH?$JH?$KD?0?5?$JA@ 0000000140068680     HtRecv.obj
 0002:000046f0       ??_C@_0PL@MJKEMNAD@?$JD?z?$JFt?0?$IK?G?$JH?$JNNo?0?$IPo?$JB?$KE?$IK?G?$JH?$JNNo?0?$JF?2?$JH?$KA?$IL?f?$JF?$KK?0@ 00000001400686f0     HtRecv.obj
 0002:000047f0       ??_C@_0DF@KHOKMFAE@?$FL?$CFs?$FN?5?$DM?$CFs?$DO?5?$IDR?$IDC?$ID?$IL?$JA?X?$JB?V?5?$FL?$CF3?43fm?$FN?5Gr@ 00000001400687f0     HtRecv.obj
 0002:00004830       ??_C@_0EG@BCLLJDAB@?$FL?$CFs?$FN?5?$DM?$CFs?$DO?5?$IB?$JJ?$IB?$JJ?$IB?$JJ?5?$IO?$JP?$IL?f?$IK?T?5?$JG?$KC?$JB?$JH?$JAM?$JB?c@ 0000000140068830     HtRecv.obj
 0002:00004878       ??_C@_0CH@MIFAEILD@?$FL?$CFs?$FN?5?$DM?$CFs?$DO?5?$CFs?$IDR?$IDC?$ID?$IL?$JA?X?$IC?h?$JB?V?$IC?$KG?$JEc?$II?$KM?5?$FL@ 0000000140068878     HtRecv.obj
 0002:000048a0       ??_C@_0CE@EKBPEGNC@?$FL?$CFs?$FN?5?$IPo?$JB?$KE?$JF?$KI?$JH?$JN?$IDR?$IDC?$ID?$IL?$JA?X?$JB?V?$JEc?$II?$KM?5?$FL?$CF?43@ 00000001400688a0     HtRecv.obj
 0002:000048c8       ??_C@_0DC@MFPDNHIH@?$FL?$CFs?$FN?5?$IDt?$ID?$IM?$IB?$FL?$ID?$IA?$IDX?$IDL?$IDb?$IDv?5?$CIfno?$DN?$CFd?0?5c@ 00000001400688c8     HtRecv.obj
 0002:00004900       ??_C@_0DL@GMIAJJCM@?$FL?$CFs?$FN?5?$DM?$CFs?$DO?5?$IDG?$IDb?$IDW?$JFs?$JA?$KO?$IN?$IH?5?$FL?$CFs?$FN?5?$CI?$IM?$JP?$IP@ 0000000140068900     HtRecv.obj
 0002:00004940       ??_C@_0EB@NBGHNHND@?$FL?$CFs?$FN?5?ar?$IJ?f?$JB?$JM?$II?Y?$IP?m?5?$FL?$CFs?5kizuno?$DN?$CFd?5ti@ 0000000140068940     HtRecv.obj
 0002:00004990       ??_C@_0FC@GKAMDIEE@?$FL?$CFs?$FN?5?$JDo?$JI?$FO?$IKO?$IC?LEdasysID?$IC?p?$IM?$JP?$IPo?$IBB?$JA?f?$JD@ 0000000140068990     HtRecv.obj
 0002:000049e8       ??_C@_0BN@EBOCMMPM@?$FL?$CFs?5kizuno?$DN?$CFd?5tid?$DN?$CFd?5gid?$DN?$CFd?$FN?$AA@ 00000001400689e8     HtRecv.obj
 0002:00004a08       ??_C@_0CA@LBODHBFG@?$FL?$CFs?$FN?5?$DM?$CFs?$DO?5?$IDp?$ID?$JD?$ID?$GA?$IM?$IK?$IM?$JP?$IPo?5?$FL?$CF0?43fm?$FN?$AA@ 0000000140068a08     HtRecv.obj
 0002:00004a30       ??_C@_0EO@JALGFJGO@?0?$CFs?0?$CFd?0?$CFd?0?$CFd?0?$CFs?$CI?$CFd?$CJ?0?$CFs?$CI?$CFd?$CJ?0?$CFd?0?$CFd@ 0000000140068a30     HtRecv.obj
 0002:00004a80       ??_C@_02HMHIIJDB@?$IB?$KC?$AA@ 0000000140068a80     HtRecv.obj
 0002:00004a90       ??_C@_0EO@GBFOLIMI@?0?$CFs?0?$CFd?0?$CFd?0?$CFd?0?$CFs?$CI?$CFd?$CJ?0?$CFs?$CI?$CFd?$CJ?0?$CFd?0?$CFd@ 0000000140068a90     HtRecv.obj
 0002:00004ae0       ??_C@_0CO@NNPJFLGD@?$FL?$CFs?$FN?5DB?$JDo?$JI?$FO?$II?K?$JH?$IK?$IDL?$ID?$IF?$IB?$FL?$IDt?$ID?$IL?5?$FLDBDAT@ 0000000140068ae0     HtRecv.obj
 0002:00004b10       ??_C@_0CH@GMJMOKGJ@?$FL?$CFs?$FN?5?$JF?$JN?$JF?$KK?$IK?$IE?$IL?f?$JF?$KK?5?$II?Y?$IP?m?5kizuNo?$DN?5?$CFd?5@ 0000000140068b10     HtRecv.obj
 0002:00004b40       ??_C@_0FL@LBEMMAKD@?$FL?$CFs?$FN?5?ar?$JB?$JH?$JAM?$CI?$JF?$KF?$IC?$KC?$IPo?$IC?$LF?$IPd?$IM?$IH?$IK?W?$II?j?$JH?$JH?$IL?$KN@ 0000000140068b40     HtRecv.obj
 0002:00004ba0       ??_C@_0FL@GPHOPMHN@?$FL?$CFs?$FN?5?ar?$JB?$JH?$JAM?$CI?$JF?$KF?$IC?$KC?$IPo?$IC?$LF?$IPd?$IM?$IH?$IK?W?$II?j?$JH?$JH?$IL?$KN@ 0000000140068ba0     HtRecv.obj
 0002:00004c00       ??_C@_0FN@MDAAONGI@?$FL?$CFs?$FN?5?ar?$JB?$JH?$JAM?$CI?$JF?$KF?$IC?$KC?$IPo?$IC?$LF?$IPd?$IM?$IH?$IK?W?$II?j?$JH?$JH?$IL?$KN@ 0000000140068c00     HtRecv.obj
 0002:00004c60       ??_C@_0BL@PICKNEMO@?$FL?$CFs?$FN?5?$DM?$CFs?$DO?5?$IM?$JP?$IN?$LI?$IKJ?$IOn?$JB?R?$IC?$LP?$JHv?$IL?$IB?$AA@ 0000000140068c60     HtRecvBaseManager.obj
 0002:00004c80       ??_C@_0BH@MDCOJNDO@?$FL?$CFs?$FN?5?$DM?$CFs?$DO?5?$IM?$JP?$IN?$LI?$IKJ?$IOn?$JHv?$IL?$IB?$AA@ 0000000140068c80     HtRecvBaseManager.obj
 0002:00004c98       ??_C@_0BH@KOEIIDPF@?$FL?$CFs?$FN?5?$DM?$CFs?$DO?5?$IM?$JP?$IN?$LI?$JC?b?$IO?$HO?$JHv?$IL?$IB?$AA@ 0000000140068c98     HtRecvBaseManager.obj
 0002:00004cb0       ??_C@_0BO@IPCPGGJA@?$FL?$CFs?$FN?5?$DM?$CFs?$DO?5?$IDA?$IDN?$IDZ?$IDv?$IDg?5?$IDV?$IDO?$IDi?$ID?$IL?$AA@ 0000000140068cb0     HtRecvBaseManager.obj
 0002:00004cd0       ??_C@_0CG@DIOHINAE@?$FL?$CFs?$FN?5?$DM?$CFs?$DO?5?$IDC?$IDj?$IDV?$ID?$ID?$ID?$IL?$JD?$GA?$JF?$LG?5?$IO?s?$JAM?$IKJ?$IO@ 0000000140068cd0     HtRecvBaseManager.obj
 0002:00004d00       ??_C@_0EC@KODDBOCE@?$FL?$CFs?$FN?5?$DM?$CFs?$DO?5?$IM?$JP?$IN?$LI?$JC?$IG?$IC?I?$IC?$KC?$IC?$KL?$IC?H?$IC?h?$IJ?q?$JA?$PM?$JA?X@ 0000000140068d00     HtRecvBaseManager.obj
 0002:00004d48       ??_C@_0BA@LKEKNAOC@?$FL?$CFs?5?$CFs?5mode?$DN?$CFd?$FN?$AA@ 0000000140068d48     HtRecvBaseManager.obj
 0002:00004d58       ??_C@_0BI@MGJLKNIA@?$FL?$CFs?$FN?5?$DM?$CFs?$DO?5?$IJ?q?$JA?$PM?$JA?X?$JCf?5?$DM?$CFs?$DO?$AA@ 0000000140068d58     HtRecvBaseManager.obj
 0002:00004d70       ??_C@_0CC@GJDCKACN@?$FL?$CFs?$FN?5?$DM?$CFs?$DO?5?$IDC?$IDj?$IDV?$ID?$ID?$ID?$IL?$JD?$GA?$JF?$LG?5?$IO?s?$JAM?$II?Y?$IP@ 0000000140068d70     HtRecvBaseManager.obj
 0002:00004d94       ??_C@_02CCPLPKJM@HL?$AA@   0000000140068d94     HtRecvBaseManager.obj
 0002:00004d98       ??_C@_0CJ@BMFEPIJI@?$FL?$CFs?$FN?5?$DM?$CFs?$DO?5?$IDw?$ID?$IL?$IDV?$IB?$FL?$IO?s?$JAM?$IM?c?$IC?L?$IO?$JP?$IO?s?$JAM@ 0000000140068d98     HtRecvBaseManager.obj
 0002:00004dc8       ??_C@_0CG@KOKBBPLK@?$FL?$CFs?$FN?5?$DM?$CFs?$DO?5?$IL?F?$JG?$LB?$JD?$GA?$JF?$LG?$IDw?$IDb?$ID_?$IB?$FL?$JF?$JE?5?$IO?s?$JA@ 0000000140068dc8     HtRecvBaseManager.obj
 0002:00004df0       ??_C@_0CN@OOBKNHLK@?$FL?$CFs?$FN?5?$DM?$CFs?$DO?5?$IL?F?$JG?$LB?$JD?$GA?$JF?$LG?$IDw?$IDb?$ID_?$IB?$FL?$JF?$JE?$IC?L?$IDt@ 0000000140068df0     HtRecvBaseManager.obj
 0002:00004e20       ??_C@_0BO@CPCJHODE@?$FL?$CFs?3?5recvid?$DN?$CFd?5pre?$DN?$CFd?5now?$DN?$CFd?$FN?$AA@ 0000000140068e20     HtRecvBaseManager.obj
 0002:00004e40       ??_C@_0CH@EIKPOLAD@?$FL?$CFs?$FN?5?$DM?$CFs?$DO?5?$JE?$LL?$JC?hPC?$IDN?$ID?$IJ?$IDC?$IDA?$ID?$JD?$IDg?$JG?$LM?$JDo@ 0000000140068e40     HtRecvBaseManager.obj
 0002:00004e68       ??_C@_0BL@HOGMDGBP@?$FL?$CFs?$FN?5?$DM?$CFs?$DO?5?$JCT?$IP?$JN?$IKJ?$IOn?$IO?$LI?$JEs?$IBI?$IBI?$AA@ 0000000140068e68     HtRecvBaseManager.obj
 0002:00004e90       ??_C@_0EB@JNCELMNG@?$FL?$CFs?$FN?5?$DM?$CFs?$DO?5?$IDt?$ID?$IM?$IB?$FL?$ID?$IA?$IDg?$ID?$IJ?$IDb?$IDL?$ID?$JD?$IDO?$IC?$LI@ 0000000140068e90     HtRecvBaseManager.obj
 0002:00004ed8       ??_C@_0CP@INOPHFOC@?$FL?$CFs?$FN?5?$DM?$CFs?$DO?5?$IDt?$ID?$IM?$IB?$FL?$ID?$IA?$IDg?$ID?$IJ?$IDb?$IDL?$ID?$JD?$IDO?$IC?$LI@ 0000000140068ed8     HtRecvBaseManager.obj
 0002:00004f08       ??_C@_0N@GNEFOKML@?$FL?$CFs?0?5Fno?$DN?$CFd?$FN?$AA@ 0000000140068f08     HtRecvBaseManager.obj
 0002:00004f18       ??_C@_0CP@KBIOIEDM@?$FL?$CFs?$FN?5?$DM?$CFs?$DO?5?$IDt?$ID?$IM?$IB?$FL?$ID?$IA?$IDg?$ID?$IJ?$IDb?$IDL?$ID?$JD?$IDO?$IC?$LI@ 0000000140068f18     HtRecvBaseManager.obj
 0002:00004f48       ??_C@_0BN@CNBKNDOL@?$FL?$CFs?$FN?5?$DM?$CFs?$DO?5?$IO?$JP?$IDt?$ID?$IM?$IB?$FL?$ID?$IA?$JD?G?$IN?$JO?$II?Y?$IP?m?$AA@ 0000000140068f48     HtRecvBaseManager.obj
 0002:00004f70       ??_7HtRecvBaseManager@@6BKizuHtRecv@@@ 0000000140068f70     HtRecvBaseManager.obj
 0002:00004fc8       ??_7HtRecvBaseManager@@6BThreadManager@@@ 0000000140068fc8     HtRecvBaseManager.obj
 0002:00005058       ??_C@_0L@DGPOGHNB@TI_RPISAVE?$AA@ 0000000140069058     IfRpiSave.obj
 0002:00005070       ??_7IfRpiSave@@6B@         0000000140069070     IfRpiSave.obj
 0002:00005080       ??_7IPortViewerManager@@6B@ 0000000140069080     IPortViewerManager.obj
 0002:000050b8       ??_C@_0P@IDKILOIF@iPortViewerMgr?$AA@ 00000001400690b8     IPortViewerManager.obj
 0002:000050c8       ??_C@_07OJNPGMAL@camcont?$AA@ 00000001400690c8     IPortViewerManager.obj
 0002:000050d0       ??_C@_0BJ@HNOPLOOI@?$FL?$CFs?$FN?5?$IDX?$ID?$IM?$IDb?$IDh?$IKJ?$IOn?5?$FL0x?$CFX?$FN?$AA@ 00000001400690d0     IPortViewerManager.obj
 0002:000050f0       ??_C@_0CE@OGMLPHAG@?$FLMAIL?$FN?5iPortViewer?$IC?$KJ?$IC?g?$JC?J?$JCm?5?$FLcmd?$DN@ 00000001400690f0     IPortViewerManager.obj
 0002:00005118       ??_C@_0BJ@NHHDCJCL@?$FL?$CFs?$FN?5?$IDX?$ID?$IM?$IDb?$IDh?$IPI?$JH?$LJ?5?$FL0x?$CFX?$FN?$AA@ 0000000140069118     IPortViewerManager.obj
 0002:00005138       ??_C@_0CP@NAKEBJIE@?$FLMAIL?$FN?5?$IDC?$IDx?$ID?$JD?$IDgNo?$JG?$LD?$IC?$LF?5?$FLIPortView@ 0000000140069138     IPortViewerManager.obj
 0002:00005168       ??_C@_0BJ@KIKDIPJE@?$FLIPortViewer?5EventNo?$DN?$CFd?$FN?$AA@ 0000000140069168     IPortViewerManager.obj
 0002:00005190       ??_C@_0EC@POJPGOID@?$FLMAIL?$FN?5iPortViewer?$IC?$KJ?$IC?g?$JC?J?$JCm?5?$CI?$IP?F?$JG?$LO@ 0000000140069190     IPortViewerManager.obj
 0002:000051d4       ??_C@_02BFICIOJL@ON?$AA@   00000001400691d4     IPortViewerManager.obj
 0002:000051d8       ??_C@_03MPPIHBHJ@OFF?$AA@  00000001400691d8     IPortViewerManager.obj
 0002:000051e0       ??_C@_0EA@IKFJLOGO@?$FLMAIL?$FN?5iPortViewer?$IC?$KJ?$IC?g?$JC?J?$JCm?5?$CI?$IP?F?$JG?$LO@ 00000001400691e0     IPortViewerManager.obj
 0002:00005220       ??_C@_0EA@LFAKDKLP@?$FLMAIL?$FN?5iPortViewer?$IC?$KJ?$IC?g?$JC?J?$JCm?5?$CI?$IDJ?$ID?$IB@ 0000000140069220     IPortViewerManager.obj
 0002:00005260       ??_C@_0DH@EOCFMBAO@?$FL?$CFs?$FN?5?$IDJ?$ID?$IB?$ID?$IJ?$JC?$LC?$JA?$KO?$JA?X?$JB?V?5?$IDt?$ID?$IM?$IB?$FL?$ID?$IA?$IDO?$ID?$IJ@ 0000000140069260     IPortViewerManager.obj
 0002:00005298       ??_C@_0DH@HNJBEIPP@?$FL?$CFs?$FN?5?$IDJ?$ID?$IB?$ID?$IJ?$JC?$LC?$JA?$KO?$JA?X?$JB?V?5?$IDt?$ID?$IM?$IB?$FL?$ID?$IA?$IDO?$ID?$IJ@ 0000000140069298     IPortViewerManager.obj
 0002:000052d0       ??_C@_0CB@EIBHHNFB@?$FL?$CFs?$FN?5?$IDJ?$ID?$IB?$ID?$IJ?$JC?$LC?$JA?$KO?$JA?X?$JB?V?5?$FLFPGA?3?$CFd?1?$CFd?$FN@ 00000001400692d0     IPortViewerManager.obj
 0002:000052f8       ??_C@_0DG@DNEKBLDJ@?$FL?$CFs?$FN?5?$IDJ?$ID?$IB?$ID?$IJ?$JC?$LC?$JA?$KO?$JA?X?$JB?V?5?$FL?$IOw?$JC?h?$IDJ?$ID?$IB?$ID?$IJN@ 00000001400692f8     IPortViewerManager.obj
 0002:00005330       ??_C@_0DE@PBHAJKIE@?$FL?$CFs?$FN?5?$IDJ?$ID?$IB?$ID?$IJ?$JC?$LC?$JA?$KO?$JA?X?$JB?V?5?$IDJ?$ID?$IB?$ID?$IJNo?5?$II?Y?$IP@ 0000000140069330     IPortViewerManager.obj
 0002:00005370       ??_C@_0ED@LGCCPOEF@?$FLMAIL?$FN?5iPortViewer?$IC?$KJ?$IC?g?$JC?J?$JCm?5?$CI?$JII?$IM?u@ 0000000140069370     IPortViewerManager.obj
 0002:000053b8       ??_C@_08JBMKHNNG@?$IP?$IJ?$IK?z?$IJ?$LL?$JC?$IG?$AA@ 00000001400693b8     LogicParaRunFunc.obj
 0002:000053c8       ??_C@_08DGEAAGBB@?$IP?$IA?$JE?u?$IK?$KO?$JH?$LJ?$AA@ 00000001400693c8     LogicParaRunFunc.obj
 0002:000053d8       ??_C@_0BB@KGCFIOAB@?$IM?$JP?$IN?$LI?$IKJ?$IOn?$IP?$IJ?$IK?z?$IJ?$LL?$JC?$IG?$AA@ 00000001400693d8     LogicParaRunFunc.obj
 0002:000053f0       ??_C@_0N@LFGCCCPD@?$IM?$JP?$IN?$LI?$IKJ?$IOn?$JB?R?$IC?$LP?$AA@ 00000001400693f0     LogicParaRunFunc.obj
 0002:00005400       ??_C@_06MDOLEFJE@?$IM?$JP?$IN?$LI?$JC?$IG?$AA@ 0000000140069400     LogicParaRunFunc.obj
 0002:00005408       ??_C@_0N@NIAEDMDI@?$IM?$JP?$IN?$LI?$JC?b?$IO?$HO?$JB?R?$IC?$LP?$AA@ 0000000140069408     LogicParaRunFunc.obj
 0002:00005418       ??_C@_0BB@CBIHHONO@?$IL?$KN?$JA?$KH?$IM?$JP?$IN?$LI?$IN?D?$ILN?$JD?$KO?$JC?$IG?$AA@ 0000000140069418     LogicParaRunFunc.obj
 0002:00005430       ??_C@_0L@IPOOFBAD@?$IM?$JP?$IN?$LI?$IKJ?$IOn?$JC?$IG?$AA@ 0000000140069430     LogicParaRunFunc.obj
 0002:00005440       ??_C@_0L@KJLECICI@?$JDr?$JC?$IG?$IOQ?$IJ?A?$JC?$IG?$AA@ 0000000140069440     LogicParaRunFunc.obj
 0002:00005450       ??_C@_0N@JEDAOMDL@LogicParaFnc?$AA@ 0000000140069450     LogicParaRunFunc.obj
 0002:00005460       ??_C@_09JOIEODPG@SO_GAMENN?$AA@ 0000000140069460     LogicParaRunFunc.obj
 0002:00005470       ??_C@_0BP@CBOLIDEI@?$FL?$CFs?$FN?5?$IDJ?$ID?$IB?$ID?$IJ?$IDZ?$IDb?$IDg?$JH?L?$II?f?$IDT?$IDC?$IDY?3?$CFd?$AA@ 0000000140069470     LogicParaRunFunc.obj
 0002:00005490       ??_C@_0CJ@NODGAIBJ@?$FL?$CFs?$FN?5?$IDJ?$ID?$IB?$ID?$IJ?$IDZ?$IDb?$IDg?$IO?f?$JD?$LO?5camset?3?$CFd?1@ 0000000140069490     LogicParaRunFunc.obj
 0002:000054c0       ??_C@_0CJ@OILGNHBO@?$FL?$CFs?$FN?5?$IDJ?$ID?$IB?$ID?$IJ?$IDZ?$IDb?$IDg?$JA?$NN?$JC?h?5camset?3?$CFd?1@ 00000001400694c0     LogicParaRunFunc.obj
 0002:000054f0       ??_C@_0DA@LAIAPBFL@?$FL?$CFs?$FN?5?$IDJ?$ID?$IB?$ID?$IJ?$IDZ?$IDb?$IDg?$JA?$NN?$JC?h?5pcno?3?$CFd?5ca@ 00000001400694f0     LogicParaRunFunc.obj
 0002:00005520       ??_C@_0CP@FPAPBFFF@?$FL?$CFs?$FN?5?$JE?$LL?$JC?h?$IDy?$IDA?$IDJ?$ID?$IB?$ID?$IJID?$IDZ?$IDb?$IDg?5pcid@ 0000000140069520     LogicParaRunFunc.obj
 0002:00005550       ??_C@_0CK@BPIKKPPH@?$FL?$CFs?$FN?5?$IDJ?$ID?$IB?$ID?$IJ?$INZ?$JA?$LD?$ID?$IC?$IB?$FL?$IDh?$IO?$JO?$IC?M?$JDr?$JC?$IG?$IKJ?$IO@ 0000000140069550     LogicParaRunFunc.obj
 0002:00005580       ??_C@_0BP@KOIGJGNB@?$FL?$CFs?$FN?5?$FL?$CFs?$FN?5?$IO?$JO?$IC?I?$JDr?$JC?$IG?$IKJ?$IOn?$JHv?$IL?$IB?$IO?s?$JAM?$AA@ 0000000140069580     LogicParaRunFunc.obj
 0002:000055a0       ??_C@_0CG@FJMKKDKJ@?$FL?$CFs?$FN?5?$JDr?$JC?$IG?$IKJ?$IOn?$JHv?$IL?$IB?$IBF?$JG?$LD?$IM?x?$IC?H?$IM?$JP?$IN?$LI?$IKJ?$IO@ 00000001400695a0     LogicParaRunFunc.obj
 0002:000055c8       ??_C@_0CK@KINKJJEO@?$FL?$CFs?$FN?5?$IDJ?$ID?$IB?$ID?$IJ?$INZ?$JA?$LD?$ID?$IC?$IB?$FL?$IDh?$IO?$JO?$IC?M?$JDr?$JC?$IG?$JC?b?$IO@ 00000001400695c8     LogicParaRunFunc.obj
 0002:000055f8       ??_C@_0BK@DHLGBKDI@?$FL?$CFs?$FN?5?$IM?$JP?$IN?$LI?$IKJ?$IOn?$IL?f?$JF?$KK?$II?Y?$IP?m?$CI?$CFd?$CJ?$AA@ 00000001400695f8     LogicParaRunFunc.obj
 0002:00005618       ??_C@_0DB@IBDAHCHJ@?$FL?$CFs?$FN?5?$JDr?$JC?$IG?$IKJ?$IOn?$IDA?$ID?$JD?$IDT?$IB?$FL?5?$II?Y?$IP?m?$IM?$JP?$IPo?$CIP@ 0000000140069618     LogicParaRunFunc.obj
 0002:00005650       ??_C@_0CG@HEKCHIPC@?$FL?$CFs?$FN?5?$FL?$CFs?$FN?$IO?$JO?$IC?I?$JDr?$JC?$IG?$IKJ?$IOn?$IDA?$ID?$JD?$IDT?$IB?$FL?$JC?J?$JC@ 0000000140069650     LogicParaRunFunc.obj
 0002:00005678       ??_C@_0DB@HHCBNDMI@?$FL?$CFs?$FN?5?$JDr?$JC?$IG?$IKJ?$IOn?$IDA?$ID?$JD?$IDT?$IB?$FL?5?$II?Y?$IP?m?$IM?$JP?$IPo?$CI?$IM@ 0000000140069678     LogicParaRunFunc.obj
 0002:000056b0       ??_C@_0CF@IGMFHKNF@?$FL?$CFs?$FN?5?$ID?$IN?$IDW?$IDb?$IDN?$IDp?$ID?$IJ?$ID?$IJ?$ID?$JD?$CFd?5?$JA?$NN?$JC?h?$IK?$KO?$JH?$LJ@ 00000001400696b0     LogicParaRunFunc.obj
 0002:000056d8       ??_C@_0DB@PCOEAKBI@?$FL?$CFs?$FN?5?$JDr?$JC?$IG?$IKJ?$IOn?$IDA?$ID?$JD?$IDT?$IB?$FL?5?$II?Y?$IP?m?$IM?$JP?$IPo?$CI?$JC@ 00000001400696d8     LogicParaRunFunc.obj
 0002:00005710       ??_C@_0DJ@MOGADNHN@?$FL?$CFs?$FN?5?$JDr?$JC?$IG?$JC?b?$IO?$HO?$IDA?$ID?$JD?$IDT?$IB?$FL?5?$II?Y?$IP?m?$IM?$JP?$IPo?$CI?$ID@ 0000000140069710     LogicParaRunFunc.obj
 0002:00005750       ??_C@_0DB@FFOKNLJD@?$FL?$CFs?$FN?5?$JDr?$JC?$IG?$JC?b?$IO?$HO?$IDA?$ID?$JD?$IDT?$IB?$FL?5?$II?Y?$IP?m?$IM?$JP?$IPo?$CIP@ 0000000140069750     LogicParaRunFunc.obj
 0002:00005788       ??_C@_0CB@GGLPJLAK@?$FL?$CFs?$FN?5?$ID?$IN?$IDW?$IDb?$IDN?$IDp?$ID?$IJ?$ID?$IJ?$ID?$JD?$CFd?5?$JC?b?$IO?$HO?$IBI?$IBI@ 0000000140069788     LogicParaRunFunc.obj
 0002:000057b0       ??_C@_0DB@CGDOKDPC@?$FL?$CFs?$FN?5?$JDr?$JC?$IG?$JC?b?$IO?$HO?$IDA?$ID?$JD?$IDT?$IB?$FL?5?$II?Y?$IP?m?$IM?$JP?$IPo?$CI?$JC@ 00000001400697b0     LogicParaRunFunc.obj
 0002:000057e8       ??_C@_09KADEFFH@HT_DEFECT?$AA@ 00000001400697e8     LogicParaRunFunc.obj
 0002:000057f8       ??_C@_0DD@KGHLFODM@?$FL?$CFs?$FN?5?$JDr?$JC?$IG?$IKJ?$IOn?$JHv?$IL?$IB?5?$CIFACT_HT_DEFEC@ 00000001400697f8     LogicParaRunFunc.obj
 0002:00005830       ??_C@_0BL@KCEHBAOA@?$FL?$JDr?$JC?$IG?$IKJ?$IOn?$JHv?$IL?$IB?5err_code?$DN?$CFd?$FN?$AA@ 0000000140069830     LogicParaRunFunc.obj
 0002:00005850       ??_C@_0CO@JFMAKEKC@?$FL?$CFs?$FN?5?$JDr?$JC?$IG?$JC?b?$IO?$HO?$JHv?$IL?$IB?5?$CIFACT_HT_DEFEC@ 0000000140069850     LogicParaRunFunc.obj
 0002:00005880       ??_C@_0BL@CBDIPGKG@?$FL?$JDr?$JC?$IG?$JC?b?$IO?$HO?$JHv?$IL?$IB?5err_code?$DN?$CFd?$FN?$AA@ 0000000140069880     LogicParaRunFunc.obj
 0002:000058a0       ??_C@_0BK@ECEEFBHO@?$FL?$CFs?$FN?5?$JB?$JH?$JAM?$IDR?$ID?$HN?$ID?$JD?$IDh?$JG?$LD?$IC?$LF?$IBI?$IBI?$AA@ 00000001400698a0     LogicParaRunFunc.obj
 0002:000058c0       ??_C@_0HL@HDJCIBGB@?$FL?$CFs?$FN?5?$JB?N?$IP?$NL?$IKO?$IC?L?$IDJ?$ID?$IB?$ID?$IJ?$IC?$KK?$JBI?$JB?p?$IC?$LD?$IC?j?$IC?D?$IC@ 00000001400698c0     LogicParaRunFunc.obj
 0002:00005940       ??_C@_0HG@GPOFBKMG@?$JB?N?$IP?$NL?$IKO?$IC?L?$IDJ?$ID?$IB?$ID?$IJ?$IC?$KK?$JBI?$JB?p?$IC?$LD?$IC?j?$IC?D?$IC?$KC?$IC?i?$FL?$ID@ 0000000140069940     LogicParaRunFunc.obj
 0002:000059c0       ??_C@_0IP@DKOHAHGH@?$FL?$CFs?$FN?5?$IDJ?$ID?$IB?$ID?$IJ?$JBI?$JB?p?$JA?$NN?$JC?h?$IDR?$ID?$HN?$ID?$JD?$IDh?$JB?$JH?$JAM?$CI@ 00000001400699c0     LogicParaRunFunc.obj
 0002:00005a50       ??_C@_0FE@CNILJBMJ@?$FL?$CFs?$FN?5?$JDr?$JC?$IG?$IOQ?$IJ?A?$JA?$NN?$JC?h?$IDR?$ID?$HN?$ID?$JD?$IDh?$JB?$JH?$JAM?$CIFA@ 0000000140069a50     LogicParaRunFunc.obj
 0002:00005aa8       ??_C@_0BK@HPELOCDE@?$FL?$CFs?$FN?5?$JBz?$JC?h?$IKO?$IC?L?$IDR?$ID?$HN?$ID?$JD?$IDh?$FL?$CFd?$FN?$AA@ 0000000140069aa8     LogicParaRunFunc.obj
 0002:00005ac8       ??_C@_0DA@EPIMIKDA@?$FL?$CFs?$FN?5?$JBS?$IDJ?$ID?$IB?$ID?$IJ?$ID?$IK?$ID?$JD?$IDN?$IDX?$IDC?$IDb?$ID?$GA?$IDR?$ID?$HN?$ID@ 0000000140069ac8     LogicParaRunFunc.obj
 0002:00005b00       ??_C@_0EB@IJMIOPGN@?$FL?$IDJ?$ID?$IB?$ID?$IJ?$JBI?$JB?p?$JA?$NN?$JC?h?$IDA?$ID?$JD?$IDT?$IB?$FL?$ID?$FO?$IDC?$ID?$IA?$IDA?$ID@ 0000000140069b00     LogicParaRunFunc.obj
 0002:00005b48       ??_C@_0DM@GOBNIBLC@?$FL?$CFs?$FN?5?$IM?$JP?$IN?$LI?$IKJ?$IOn?$CI?$JDr?$JC?$IG?$IOQ?$IJ?A?$CJ?$IO?$MA?$IO?$HL?$JC?$IG?$II?H?$IK@ 0000000140069b48     LogicParaRunFunc.obj
 0002:00005b88       ??_C@_0DG@HKGFJGNI@?$FL?$JDr?$JC?$IG?$IKJ?$IOn?$JA?$NN?$JC?h?$IDA?$ID?$JD?$IDT?$IB?$FL?$ID?$FO?$IDC?$ID?$IA?$IDA?$IDE?$ID@ 0000000140069b88     LogicParaRunFunc.obj
 0002:00005bc0       ??_C@_0DK@CCOCFILO@?$FL?$CFs?$FN?5?$IM?$JP?$IN?$LI?$IKJ?$IOn?$CI?$JDr?$JC?$IG?$IOQ?$IJ?A?$CJ?$IO?$MA?$IO?$HL?$JC?$IG?$II?H?$IK@ 0000000140069bc0     LogicParaRunFunc.obj
 0002:00005c00       ??_C@_0DG@KKKOIMOO@?$FL?$JDr?$JC?$IG?$IKJ?$IOn?$JE?$LL?$JC?h?$IDA?$ID?$JD?$IDT?$IB?$FL?$ID?$FO?$IDC?$ID?$IA?$IDA?$IDE?$ID@ 0000000140069c00     LogicParaRunFunc.obj
 0002:00005c38       ??_C@_0DH@OGHFFBJN@?$FL?$CFs?$FN?5?$IDJ?$ID?$IB?$ID?$IJ?$JBI?$JB?p?$JA?$NN?$JC?h?$IDA?$ID?$JD?$IDT?$IB?$FL?5?$II?Y?$IP?m@ 0000000140069c38     LogicParaRunFunc.obj
 0002:00005c70       ??_C@_0CP@ELGFACOL@?$FL?$CFs?$FN?5iPortViewer?$IC?$KJ?$IC?g?$IC?L?$IDJ?$ID?$IB?$ID?$IJ?$JBI?$JB?p@ 0000000140069c70     LogicParaRunFunc.obj
 0002:00005ca0       ??_C@_0CP@IGHOJAFO@?$FL?$CFs?$FN?5?$IDJ?$ID?$IB?$ID?$IJ?$JBI?$JB?p?$JA?$NN?$JC?h?$IDA?$ID?$JD?$IDT?$IB?$FL?5?$II?Y?$IP?m@ 0000000140069ca0     LogicParaRunFunc.obj
 0002:00005cd0       ??_C@_0DI@OKEHLHMJ@?$FL?$CFs?$FN?5?$JBO?$IC?L?$IDJ?$ID?$IB?$ID?$IJ?$JBI?$JB?p?$JA?$NN?$JC?h?$IC?L?$IDA?$ID?$JD?$IDT?$IB@ 0000000140069cd0     LogicParaRunFunc.obj
 0002:00005d08       ??_C@_0DO@KINGJNFB@?$FL?$CFs?$FN?5?$JBO?$IJ?q?$IC?L?$IM?$JP?$IN?$LI?$IKJ?$IOn?$IBA?$IC?$NM?$IC?$LN?$IC?M?$JDr?$JC?$IG?$IO@ 0000000140069d08     LogicParaRunFunc.obj
 0002:00005d48       ??_C@_0CK@CCDLOKCD@?$FL?$CFs?$FN?5?$JDr?$JC?$IG?$IOQ?$IJ?A?$JA?$NN?$JC?h?$IK?$KO?$JH?$LJ?$JC?J?$JCm?$IBF?$JG?$LD?$IM?x?$IC@ 0000000140069d48     LogicParaRunFunc.obj
 0002:00005d78       ??_C@_0DC@FBLBNJBK@?$FL?$CFs?$FN?5?$IDJ?$ID?$IB?$ID?$IJ?$INZ?$JA?$LD?$ID?$IC?$IB?$FL?$IDh?$IO?$JO?$IC?M?$JDr?$JC?$IG?$IOQ?$IJ@ 0000000140069d78     LogicParaRunFunc.obj
 0002:00005db0       ??_C@_0BD@OLBABOEK@vector?$DMT?$DO?5too?5long?$AA@ 0000000140069db0     LogicParaRunFunc.obj
 0002:00005dc4       ??_C@_06OMNKFGML@MaeMgr?$AA@ 0000000140069dc4     MaeManager.obj
 0002:00005dd0       ??_C@_0P@NNOCHCNK@T_MAE_COIL_INF?$AA@ 0000000140069dd0     MaeManager.obj
 0002:00005de0       ??_C@_0HF@GAMIKDOL@SELECT?5TOP?$CI1?$CJ?5FF?$JBO?$INH?$JC?v?ar?$IP?n?$JF?q?$IO?s?$JAM@ 0000000140069de0     MaeManager.obj
 0002:00005e58       ??_C@_0CP@HJHEKELN@?$FL?$CFs?$FN?5?$JB?N?$IP?$NL?$IC?L?$JBO?$INH?$JC?v?$IDR?$IDC?$ID?$IL?$IP?n?$JF?q?$JG?$LD?$IC?$LF?5@ 0000000140069e58     MaeManager.obj
 0002:00005e88       ??_C@_0CJ@KOPLBAKM@?$FL?$CFs?$FN?5FF?$JBO?$INH?$JC?v?ar?$IP?n?$JF?q?$JG?$KC?$IO?s?$JAM?5?$FL?$JG?$LN?$JH?$NPN@ 0000000140069e88     MaeManager.obj
 0002:00005eb8       ??_C@_0CP@PPJOKANI@?$FL?$CFs?$FN?5?$JBO?$INH?$JC?v?$IP?n?$JF?q?5?$IJ?$LM?ar?$IM?$JP?$IK?G?$JH?$JNNo?$INX?$JAV@ 0000000140069eb8     MaeManager.obj
 0002:00005ee8       ??_C@_0BO@EGGLBNIA@?$FL?$JBO?$INH?$JC?v?$IP?n?$JF?q?5?$IJ?$LM?ar?$IM?$JP?$IK?G?$JH?$JNNo?$INX?$JAV?$FN?$AA@ 0000000140069ee8     MaeManager.obj
 0002:00005f10       ??_C@_0HH@LBAHAEG@SELECT?5TOP?$CI1?$CJ?5?$IK?G?$JH?$JNNo?5FROM?5?$CFs?5WHE@ 0000000140069f10     MaeManager.obj
 0002:00005f88       ??_C@_0DM@MBEFOKDD@?$FL?$CFs?$FN?5?$JB?N?$IP?$NL?$IC?L?$JBO?$INH?$JC?v?$IDR?$IDC?$ID?$IL?$IP?n?$JF?q?$JG?$LD?$IC?$LF?5@ 0000000140069f88     MaeManager.obj
 0002:00005fc8       ??_C@_0BB@OGJMDPBN@T_MAE_DEFECT_IMG?$AA@ 0000000140069fc8     MaeManager.obj
 0002:00005fe0       ??_C@_0BB@PNMBLAAF@T_MAE_DEFECT_INF?$AA@ 0000000140069fe0     MaeManager.obj
 0002:00005ff8       ??_C@_0N@HNFCBAGF@T_MAE_FF_INF?$AA@ 0000000140069ff8     MaeManager.obj
 0002:00006008       ??_C@_0BA@LAPBIEIJ@T_MAE_COIL_LINE?$AA@ 000000014006a008     MaeManager.obj
 0002:00006018       ??_C@_0CM@LGGEIEM@UPDATE?5?$CFs?5SET?5?$IK?G?$JH?$JNNo?$DN?8?$CFs?8?5WHERE?5@ 000000014006a018     MaeManager.obj
 0002:00006050       ??_C@_0IN@BJMGLMMD@UPDATE?5?$CFs?5SET?5?$IK?G?$JH?$JNNo?$DN?8?$CFs?8?0?5?$IN?E?$IPI?$JC@ 000000014006a050     MaeManager.obj
 0002:000060e0       ??_C@_0OC@FFFDODIK@UPDATE?5?$CFs?5SET?5?$IK?G?$JH?$JNNo?$DN?8?$CFs?8?0?5?$IJ?$LM?$IK?G?$JH@ 000000014006a0e0     MaeManager.obj
 0002:000061d0       ??_C@_0EK@JKHGGKGC@?$FL?$CFs?$FN?5?$IJ?$LM?$IK?G?$JH?$JNNo?$JFt?$IC?$KP?$JB?V?$IC?$KG?$IKJ?$IOn?5?$FL?$CFs?$FN?$IB?$KI@ 000000014006a1d0     MaeManager.obj
 0002:00006220       ??_C@_0CE@PCFCKFKJ@?$FL?$CFs?$FN?5?$IJ?$LM?$IK?G?$JH?$JNNo?$JFt?$IC?$KP?$JB?V?$IC?$KG?$II?Y?$IP?m?5?$FL?$CFs?$FN?5?$FL@ 000000014006a220     MaeManager.obj
 0002:00006248       ??_C@_0BA@HCNAKHHB@?$FL?$CFs?$FN?$FL?$IK?G?$JH?$JNNo?3?$CFs?$FN?$AA@ 000000014006a248     MaeManager.obj
 0002:00006258       ??_C@_0DE@JOJHBHJI@?$FL?$CFs?$FN?5?$IJ?$LM?$IK?G?$JH?$JNNo?$JFt?$IC?$KP?$JB?V?$IC?$KG?5SQL?$CFd?$IM?B?$JG?Z?$IK@ 000000014006a258     MaeManager.obj
 0002:00006290       ??_C@_0EO@MPEGOLPK@?$FL?$CFs?$FN?5?$JB?N?$IP?$NL?$IC?L?$JBO?$INH?$JC?v?$IDR?$IDC?$ID?$IL?$IP?n?$JF?q?$JG?$LD?$IC?$LF?$IB@ 000000014006a290     MaeManager.obj
 0002:000062e0       ??_C@_0DC@PBNPDJCC@UPDATE?5?$CFs?5SET?5?$IJ?$LM?$IK?G?$JH?$JNNo?$IDt?$ID?$IJ?$IDO?$DN?99?5@ 000000014006a2e0     MaeManager.obj
 0002:00006318       ??_C@_0CL@EGKDJIFO@?$FL?$CFs?$FN?5?$IJ?$LM?$IK?G?$JH?$JNNo?$IDt?$ID?$IJ?$IDO?$IC?L?$IC?$NN?$INX?$JAV?$IKJ?$IOn?5@ 000000014006a318     MaeManager.obj
 0002:00006348       ??_C@_0CK@BBBHENPA@?$FL?$CFs?$FN?5?$IJ?$LM?$IK?G?$JH?$JNNo?$IDt?$ID?$IJ?$IDO?$IC?L?$IC?$NN?$INX?$JAV?$II?Y?$IP?m?5@ 000000014006a348     MaeManager.obj
 0002:00006378       ??_C@_0DK@JOMMKCOG@?$FL?$CFs?$FN?5?$IJ?$LM?$IK?G?$JH?$JNNo?$IDt?$ID?$IJ?$IDO?$IC?L?$IC?$NN?$INX?$JAV?5SQL?$CF@ 000000014006a378     MaeManager.obj
 0002:000063c0       ??_7?$ThreadQueue@UTYP_MAE_REQUEST@MaeManager@@@KizuLib@@6B@ 000000014006a3c0     MaeManager.obj
 0002:000063d0       ??_7MaeManager@@6B@        000000014006a3d0     MaeManager.obj
 0002:00006408       ??_C@_0L@OJLLKG@Def_Men?$DN?$CFd?$AA@ 000000014006a408     MainInstance.obj
 0002:00006418       ??_C@_0N@NLOGPMCE@?$JF?P?$JG?J?$IM?$JP?$IN?$LI?$IL?$JG?$IJ?B?$AA@ 000000014006a418     MainInstance.obj
 0002:00006428       ??_C@_0BJ@IDEBFDHJ@?$JF?P?$JG?J?$IM?$JP?$IN?$LI?$JFs?$IL?$JG?$IJ?B?$CI?$JH?$LM?$JG?J?$JFK?$JA?$HL?$CJ?$AA@ 000000014006a428     MainInstance.obj
 0002:00006448       ??_C@_0CA@NAMIAKEE@?$FL?$CFs?$FN?5mque_DeliMail?5?$IDL?$ID?$IF?$IB?$FL?$IDt?$ID?$IL?$CB?$CB?$AA@ 000000014006a448     MainInstance.obj
 0002:00006468       ??_C@_02FJEHMMDC@MI?$AA@   000000014006a468     MainInstance.obj
 0002:00006470       ??_C@_0DF@NKEOFCLG@?$FL?$CFs?$FN?5?$IDp?$ID?$IJ?$ID?$IB?$IB?$FL?$ID?$FO?$JD?G?$IN?$JO?$IO?$LI?$JEs?$CIDB?$JA?Z?$JB?$LB?$II?Y@ 000000014006a470     MainInstance.obj
 0002:000064a8       ??_C@_0CA@FEPLMKDK@?$FL?$CFs?$FN?5?$IDX?$ID?$IM?$IDb?$IDhID?$IK?$IE?$IC?h?$JD?$JG?$IC?D?$JC?$IG?$IBE?$IBE?$IBE?$AA@ 000000014006a4a8     MainInstance.obj
 0002:000064c8       ??_C@_0L@DMBNNKEF@SOGYO_MODE?$AA@ 000000014006a4c8     MainInstance.obj
 0002:000064e0       ??_C@_0EK@JCDNBPNC@?$FL?$CFs?$FN?5?$JE?$LL?$JC?hPC?$JB?d?$JA?$JE?5?$JF?2?$JG?J?$IBF?$DMGroup1?3?$CFd@ 000000014006a4e0     MainInstance.obj
 0002:00006530       ??_C@_0M@IOJPDAIL@HT_RECV_BOT?$AA@ 000000014006a530     MainInstance.obj
 0002:00006540       ??_C@_0M@JPIBPNMM@HT_RECV_TOP?$AA@ 000000014006a540     MainInstance.obj
 0002:0000654c       ??_C@_05LFHGFJK@?$CFs_?$CFd?$AA@ 000000014006a54c     MainInstance.obj
 0002:00006558       ??_C@_07IJAFJEJN@OP_SEND?$AA@ 000000014006a558     MainInstance.obj
 0002:00006560       ??_C@_0DA@NKNMMAJB@?$FL?$CFs?$FN?5?$IO?$KJ?$JD?$KO?$JCT?$IP?$JN?$IKJ?$IOn?$IC?$NM?$IC?E?$IOb?$IC?$KN?$IC?$KI?$JB?R?$IC?$LP?$IJ@ 000000014006a560     MainInstance.obj
 0002:00006590       ??_C@_0DJ@IOJEHJLI@?$FL?$CFs?$FN?5?$JB?$LM?$ID?$IP?$IB?$FL?$IDN?$IDX?$ID?$IM?$IDb?$IDh?$IC?L?$IP?$IA?$JE?u?$IC?$KK?$JA?$KO?$IC@ 000000014006a590     MainInstance.obj
 0002:000065d0       ??_C@_0DO@FGJFPHHF@?$FL?$CFs?$FN?5?$IDJ?$ID?$IB?$ID?$IJ?$ID?$IK?$ID?$JD?$IDN?$IDX?$IDC?$IDb?$ID?$GA?$JA?$NN?$JC?h?$IDA?$ID@ 000000014006a5d0     MainInstance.obj
 0002:00006610       ??_C@_0BI@DIAJOLLN@?$FL?$CFs?$FN?5?$IL?$KN?$JA?$KH?$IM?$JP?$IN?$LI?$IN?D?$ILN?$JD?$KO?$IKJ?$IOn?$AA@ 000000014006a610     MainInstance.obj
 0002:00006628       ??_C@_0DE@LJFEEOOP@?$FL?$CFs?$FN?5?$IDJ?$ID?$IB?$ID?$IJ?$JBI?$JB?p?$JA?$NN?$JC?h?$IDA?$ID?$JD?$IDT?$IB?$FL?$JB?R?$IC?$LP?$ID@ 000000014006a628     MainInstance.obj
 0002:00006660       ??_C@_0CM@DCABMLEG@?$FL?$CFs?$FN?5?$IM?$JP?$IN?$LI?$IKJ?$IOn?$JA?$NN?$JC?h?$IDA?$ID?$JD?$IDT?$IB?$FL?$ID?$FO?$IDC?$ID?$IA?$ID@ 000000014006a660     MainInstance.obj
 0002:00006690       ??_C@_0EJ@MHFJDEKL@?$FL?$CFs?$FN?5?$JDr?$JC?$IG?$IKJ?$IOn?$JE?$LL?$JC?h?$IDA?$ID?$JD?$IDT?$IB?$FL?$JB?R?$IC?$LP?$ID?$FO?$ID@ 000000014006a690     MainInstance.obj
 0002:000066e0       ??_C@_0DC@LLLGKFGM@?$FL?$CFs?$FN?5?$JDr?$JC?$IG?$IOQ?$IJ?A?$JA?$NN?$JC?h?$IDA?$ID?$JD?$IDT?$IB?$FL?$JB?R?$IC?$LP?$ID?$FO?$ID@ 000000014006a6e0     MainInstance.obj
 0002:00006718       ??_C@_0CG@EFIECGMI@?$FL?$IM?$JP?$IN?$LI?$JHp?$IBF?$JIA?$JB?$LB?$JD?$PM?$JH?M?5?$DM?$CF0?43fm?$JG?$KC?$JG?$JO?$IC?E?$IN@ 000000014006a718     MainInstance.obj
 0002:00006740       ??_C@_0DM@HONCMNDC@?$FL?$CFs?$FN?5?$IM?$JP?$IN?$LI?$IK?n?$JD_WPD?5?$IDQ?$IB?$FL?$IDg?$JAM?$IN?$IGON?5?$FL?$CF@ 000000014006a740     MainInstance.obj
 0002:00006780       ??_C@_0CA@NCEGAGAF@?$FL?$IM?$JP?$IN?$LI?$JHp?$IBF?$IP?$KM?$IDR?$IDC?$ID?$IL?$JE?$LL?$JC?h?5?$DM?$CF0?43fm?$DO?$FN?$AA@ 000000014006a780     MainInstance.obj
 0002:000067a0       ??_C@_0EA@CHAMLPKB@?$FL?$CFs?$FN?5?$IM?$JP?$IN?$LI?$IK?n?$JD_WPD?5?$IDQ?$IB?$FL?$IDg?$JAM?$IN?$IGON?5?$FL?$CF@ 000000014006a7a0     MainInstance.obj
 0002:000067e0       ??_C@_0CK@IBLPCOJE@?$FL?$IM?$JP?$IN?$LI?$JHp?3?$IM?$JP?$IN?$LI?$IK?n?$JD_WPD?5?$IDQ?$IB?$FL?$IDg?$JAM?$IN?$IGON@ 000000014006a7e0     MainInstance.obj
 0002:00006810       ??_C@_0CH@BDHCDAHK@?$FL?$CFs?$FN?5?$IM?$JP?$IN?$LI?$IK?n?$JD_WPD?5?$IDQ?$IB?$FL?$IDg?$JAM?$IN?$IGON?5?$FL?$CF@ 000000014006a810     MainInstance.obj
 0002:00006838       ??_C@_0CK@FJKJDLBB@?$FL?$IM?$JP?$IN?$LI?$JHp?$IBFWPD?5?$JIA?$JB?$LB?$JD?$PM?$JH?M?5?$DM?$CF0?43fm?$JG?$KC?$JG@ 000000014006a838     MainInstance.obj
 0002:00006868       ??_C@_0DJ@JLKLPPMC@?$FL?$CFs?$FN?5?$IM?$JP?$IN?$LI?$IK?n?$JD_WPD?5ON?5?$FL?$CF0?43fm?$FN?5?$DM?$JIA@ 000000014006a868     MainInstance.obj
 0002:000068a8       ??_C@_0CF@BKGLBBLH@?$FL?$IM?$JP?$IN?$LI?$JHp?$IBF?$IDQ?$IB?$FL?$IDg?$JAM?$IN?$IGOFF?5?$DM?$CF0?43fm?$IC?E@ 000000014006a8a8     MainInstance.obj
 0002:000068d0       ??_C@_0DH@HABHGCIC@?$FL?$CFs?$FN?5?$IM?$JP?$IN?$LI?$IK?n?$JD_WPD?5ON?5?$FL?$CF0?43fm?$FN?5?$DM?$IDQ@ 000000014006a8d0     MainInstance.obj
 0002:00006910       ??_C@_0HC@MCBAPGOL@?$FL?$CFs?$FN?5?$IM?$JP?$IN?$LI?$IK?n?$JD_WPD?5ON?5?$IN?$KB?$DN?$CF0?43fm?$IB?$KI?$CF@ 000000014006a910     MainInstance.obj
 0002:00006988       ??_C@_0DG@ONAEJHBH@?$FL?$CFs?$FN?5?$IM?$JP?$IN?$LI?$IK?n?$JD_WPD?5ON?5?$FL?$CF0?43fm?$FN?5?$DM?$IP?$KM@ 000000014006a988     MainInstance.obj
 0002:000069c0       ??_C@_0CL@MPLCMCHN@?$FL?$IM?$JP?$IN?$LI?$JHp?3?$IM?$JP?$IN?$LI?$IK?n?$JD_WPD?5?$IDQ?$IB?$FL?$IDg?$JAM?$IN?$IGOF@ 000000014006a9c0     MainInstance.obj
 0002:000069f0       ??_C@_0HC@LBCGOLEJ@?$FL?$IM?$JP?$IN?$LI?$IK?n?$JD_WPD?3?5?$IN?$KB?$DN?$CF0?43fm?$IB?$KI?$CF0?43fm?5@ 000000014006a9f0     MainInstance.obj
 0002:00006a70       ??_C@_0IP@HDGOBPOO@?$FL?$CFs?$FN?5?$IM?$JP?$IN?$LI?$IK?n?$JD_WPD?$CIGATE?$CJ?5OFF?5?$DM?$IM?$JP?$IN?$LI@ 000000014006aa70     MainInstance.obj
 0002:00006b00       ??_C@_0FK@LLBBBNAA@?$FL?$CFs?$FN?5?$IM?$JP?$IN?$LI?$IK?n?$JD_WPD?$IB?$GA?$IDQ?$IB?$FL?$IDg?$JAM?$IN?$IGOFF?5@ 000000014006ab00     MainInstance.obj
 0002:00006b60       ??_C@_0CA@LDDCONBI@?$FL?$CFs?$FN?5?$IM?$JP?$IN?$LI?$JHp?$IO?$JP?$IDR?$IDC?$ID?$IL?$IP?n?$JF?q?$IO?s?$JAM?$IK?$KO?$JH?$LJ?$AA@ 000000014006ab60     MainInstance.obj
 0002:00006b80       ??_C@_0JH@MKEACNJB@?$FL?$IM?$JP?$IN?$LI?$IK?n?$JD_WPD?$IB?$GA?$IDQ?$IB?$FL?$IDg?$JAM?$IN?$IGOFF?5?$DM?$IM?$JP?$IN@ 000000014006ab80     MainInstance.obj
 0002:00006c18       ??_C@_0CG@MBCNHLAD@?$FL?$JF?2?$IO?$KG?$JHp?$IBF?$JIA?$JB?$LB?$JD?$PM?$JH?M?5?$DM?$CF0?43fm?$JG?$KC?$JG?$JO?$IC?E?$IN@ 000000014006ac18     MainInstance.obj
 0002:00006c40       ??_C@_0DM@JNAIHKKJ@?$FL?$CFs?$FN?5?$JF?2?$IO?$KG?$IK?n?$JD_WPD?5?$IDQ?$IB?$FL?$IDg?$JAM?$IN?$IGON?5?$FL?$CF@ 000000014006ac40     MainInstance.obj
 0002:00006c80       ??_C@_0CK@KLOKHNMG@?$FL?$JF?2?$IO?$KG?$JHp?3?$JF?2?$IO?$KG?$IK?n?$JD_WPD?5?$IDQ?$IB?$FL?$IDg?$JAM?$IN?$IGON@ 000000014006ac80     MainInstance.obj
 0002:00006cb0       ??_C@_0CH@GJBPPHFF@?$FL?$CFs?$FN?5?$JF?2?$IO?$KG?$IK?n?$JD_WPD?5?$IDQ?$IB?$FL?$IDg?$JAM?$IN?$IGON?5?$FL?$CF@ 000000014006acb0     MainInstance.obj
 0002:00006cd8       ??_C@_0CF@NHHAEKE@?$FL?$JF?2?$IO?$KG?$JHp?$IBF?$IDQ?$IB?$FL?$IDg?$JAM?$IN?$IGOFF?5?$DM?$CF0?43fm?$IC?E@ 000000014006acd8     MainInstance.obj
 0002:00006d00       ??_C@_0DH@ENDDBPMJ@?$FL?$CFs?$FN?5?$JF?2?$IO?$KG?$IK?n?$JD_WPD?5ON?5?$FL?$CF0?43fm?$FN?5?$DM?$IDQ@ 000000014006ad00     MainInstance.obj
 0002:00006d38       ??_C@_0BG@FCDKGLMJ@?$FL?$JF?2?$IO?$KG?$IK?n?$JD_WPD?3?5?$CF0?43fm?$FN?$AA@ 000000014006ad38     MainInstance.obj
 0002:00006d50       ??_C@_0BN@IHFJJEOG@?$FL?$CFs?$FN?5?$JF?2?$IO?$KG?$IK?n?$JD_WPD?5ON?5?$FL?$CF0?43fm?$FN?$AA@ 000000014006ad50     MainInstance.obj
 0002:00006d70       ??_C@_0FK@PPCPANIG@?$FL?$CFs?$FN?5?$JF?2?$IO?$KG?$IK?n?$JD_WPD?$IB?$GA?$IDQ?$IB?$FL?$IDg?$JAM?$IN?$IGOFF?5@ 000000014006ad70     MainInstance.obj
 0002:00006dd0       ??_C@_0CL@EKPNKHPG@?$FL?$JF?2?$IO?$KG?$JHp?3?$JF?2?$IO?$KG?$IK?n?$JD_WPD?5?$IDQ?$IB?$FL?$IDg?$JAM?$IN?$IGOF@ 000000014006add0     MainInstance.obj
 0002:00006e00       ??_C@_0FB@PCGNHPGC@?$FL?$JF?2?$IO?$KG?$IK?n?$JD_WPD?$IB?$GA?$IDQ?$IB?$FL?$IDg?$JAM?$IN?$IGOFF?3?5?$CF0?4@ 000000014006ae00     MainInstance.obj
 0002:00006e60       ??_C@_0GA@BMMPANNI@?$FL?$CFs?$FN?5?$JF?2?$IO?$KG?$IK?n?$JD_WPD?$CIGATE?$CJ?5OFF?5?$IN?$KB?3?$CF0@ 000000014006ae60     MainInstance.obj
 0002:00006ec0       ??_C@_0EG@FIAMDPMI@?$FLMI?$FN?5?$IDt?$ID?$EA?$IB?$FL?$IDX?$IDg?$IDJ?$IDb?$IDg?5ON?5?$DM?$CF?412s?$DO@ 000000014006aec0     MainInstance.obj
 0002:00006f08       ??_C@_0DO@IKCGMJPF@?$FLMI?$FN?5?$IDV?$ID?$ID?$IB?$FL?$IDJ?$IDb?$IDg?$II?J?$JCu?$IC?$NM?$IC?E?$IDg?$ID?$IJ?$IDb?$ID@ 000000014006af08     MainInstance.obj
 0002:00006f50       ??_C@_0EC@POGJJILJ@?$FLMI?$FN?5?$ID?$IJ?$IDX?$IDg?$IDJ?$IDb?$IDg?5ON?5?$DM?$CF?412s?$DO?5?$CFs?5@ 000000014006af50     MainInstance.obj
 0002:00006f98       ??_C@_0CI@IOKAMCNN@?$FL?$CF?412s?5?$JD?$PM?$JB?$KE?$JI_?$JH?$JN?$DN?$CF0?43fm?5?$IPo?$JB?$KE?$JF?$KI?$JH?$JN?$DN@ 000000014006af98     MainInstance.obj
 0002:00006fc0       ??_C@_06EOOBJNH@?$II?Y?$IO?m?$JD_?$AA@ 000000014006afc0     MainInstance.obj
 0002:00006fc8       ??_C@_06CAJLDPMG@?$JHn?$JA?Z?$JD_?$AA@ 000000014006afc8     MainInstance.obj
 0002:00006fd0       ??_C@_0EA@PHILAGHH@?$DN?$DN?$DN?$DN?$DN?$DN?$DN?$DN?$DN?$DN?$DN?$DN?$DN?$DN?$DN?$DN?$DN?$DN?$DN?$DN?$DN?$DN?$DN?$DN?$DN?$DN?$DN?$DN?$DN?$DN?$DN?$DN@ 000000014006afd0     MainInstance.obj
 0002:00007010       ??_C@_0BD@CAIMEFHE@?$JHn?$JA?Z?$JD_?$IDo?$IDb?$IDN?$IDA?$IDb?$IDv?$AA@ 000000014006b010     MainInstance.obj
 0002:00007028       ??_C@_0BE@JHABNCKK@?$FL?$CFs?$FN?5?9?9?9?9?9?9?9?9?9?9?9?9?9?9?$AA@ 000000014006b028     MainInstance.obj
 0002:00007040       ??_C@_0EL@DAJHDKFL@?$FL?$CFs?$FN?5?$JI_?$JH?$JN?$IDR?$IDC?$ID?$IL?$IL?$KL?$IKE?$JD_?5?$IK?n?$IP?$IA?$JG?J?$IM?$JP?$IN?$LI@ 000000014006b040     MainInstance.obj
 0002:00007090       ??_C@_0CE@JAPBABFC@?$FL?$CFs?$FN?5?$JE?$LL?$JC?h?5?$JF?2?$JG?J?5?$II?Y?$IP?m?$JA?X?$JCf?$FL?$CFs?$FN?$FL?$CFs?$FN?$FL@ 000000014006b090     MainInstance.obj
 0002:000070b8       ??_C@_0DB@CBIOKLGO@?$FL?$CFs?$FN?5?$JI_?$JH?$JN?$IDR?$IDC?$ID?$IL?$IL?$KL?$IKE?$JD_?5?$IC?$LL?$IC?L?$JB?$LM?$IM?$JP?$IN?$LI@ 000000014006b0b8     MainInstance.obj
 0002:000070f0       ??_C@_0CE@KMDDFAIJ@?$FL?$CFs?$FN?5?$JE?$LL?$JC?h?5?$JH?$KA?$JG?J?5?$II?Y?$IP?m?$JA?X?$JCf?$FL?$CFs?$FN?$FL?$CFs?$FN?$FL@ 000000014006b0f0     MainInstance.obj
 0002:00007118       ??_C@_0BC@NNADNHCM@HANTEI_TOP_ANS_ID?$AA@ 000000014006b118     MainInstance.obj
 0002:00007130       ??_C@_0CE@ILKOGOKI@?$FLMI?$FN?5?$IM?$JP?$IN?$LI?$JC?$IG?$II?H?$IKO?$IC?E?$IDC?$IDj?$IDV?$ID?$ID?$ID?$IL?$JD?$GA?$JF?$LG?$IO@ 000000014006b130     MainInstance.obj
 0002:00007158       ??_C@_0BC@MGKMIIKI@HANTEI_BOT_ANS_ID?$AA@ 000000014006b158     MainInstance.obj
 0002:00007170       ??_C@_0BM@PIMIPMJK@?$FL?$CFs?$FN?5?$CFd?$JFb?$IM?c?$IC?I?$IL?$KN?$JA?$KH?$IM?$JP?$IN?$LI?$IN?D?$ILN?$JD?$KO?$AA@ 000000014006b170     MainInstance.obj
 0002:00007190       ??_C@_0CB@GKKPHCM@?$FL?$CFs?$FN?5?$JA?$NN?$JE?u?$II?Y?$IP?m?$IMx?$JF?q?$IJ?p?$IP?$JM?5?$IO?s?$JFt?$IK?$KO?$JH?$LJ?$IBI@ 000000014006b190     MainInstance.obj
 0002:000071b8       ??_C@_0CB@FNJBFMLC@?$FL?$DM?$CFs?$DO?5?$CFs?5?$IO?$JO?$IC?I?$IM?$JP?$IN?$LI?$IP?$IJ?$IK?z?$IJ?$LL?$JHv?$IL?$IB?$IO?s?$JAM?$FN@ 000000014006b1b8     MainInstance.obj
 0002:000071e0       ??_C@_0CG@HDOHKDDO@?$FL?$CFs?$FN?5?$DM?$CFs?$DO?5?$FL?$CFs?$FN?5?$IO?$JO?$IC?I?$IM?$JP?$IN?$LI?$IP?$IJ?$IK?z?$IJ?$LL?$JHv?$IL@ 000000014006b1e0     MainInstance.obj
 0002:00007208       ??_C@_0BO@LABHIABN@?$FL?$DM?$CFs?$DO?5?$JE?$LL?$JC?hPC?$IC?L?$IK?$IE?$IC?h?$JAU?$IC?h?$JFs?$IJ?B?$JE?2?$FN?$AA@ 000000014006b208     MainInstance.obj
 0002:00007228       ??_C@_0CB@GDMIDEAL@?$FL?$CFs?$FN?5?$DM?$CFs?$DO?5?$JE?$LL?$JC?hPC?$IC?L?$IK?$IE?$IC?h?$JAU?$IC?h?$JFs?$IJ?B?$JE?2@ 000000014006b228     MainInstance.obj
 0002:00007250       ??_C@_0CF@FCELCAAP@?$FL?$ID?$IN?$IDW?$IDb?$IDN?$IDp?$ID?$IJ?$ID?$IJ?$ID?$JDPC?$IC?L?$IK?$IE?$IC?h?$JAU?$IC?h?$JFs?$IJ@ 000000014006b250     MainInstance.obj
 0002:00007278       ??_C@_0CA@GIJBIFJI@?$FL?$CFs?$FN?5?$ID?$IN?$IDW?$IDb?$IDN?$IDp?$ID?$IJ?$ID?$IJ?$ID?$JDPC?$JC?h?$IL?$GA?$II?Y?$IP?m?$AA@ 000000014006b278     MainInstance.obj
 0002:00007298       ??_C@_0P@LBNEGCLE@?$FL?$IM?$JP?$IN?$LI?$IKJ?$IOn?$IO?$LI?$JEs?$FN?$AA@ 000000014006b298     MainInstance.obj
 0002:000072a8       ??_C@_0BG@HEJJMBNO@?$FL?$CFs?$FN?5?$IM?$JP?$IN?$LI?$IKJ?$IOn?$IO?$LI?$JEs?$IBI?$IBI?$AA@ 000000014006b2a8     MainInstance.obj
 0002:000072c0       ??_C@_0DF@PMCOCAJB@?$FL?$CFs?$FN?5DB?$JDo?$JI?$FO?$II?K?$JH?$IK?$IDL?$ID?$IF?$IB?$FL?$IDt?$ID?$IL?5?$FLDBDAT@ 000000014006b2c0     MainInstance.obj
 0002:000072f8       ??_C@_0BK@MGBFOAMI@?$FL?$CFs?$FN?5?$JBS?$IDp?$ID?$IJ?$ID?$IB?$IB?$FL?$ID?$FO?$JD?G?$IN?$JO?$IO?$LI?$JEs?$AA@ 000000014006b2f8     MainInstance.obj
 0002:00007318       ??_C@_0BB@OLPLCKBM@CAMLINKSW_ANS_ID?$AA@ 000000014006b318     MainInstance.obj
 0002:00007330       ??_C@_0BL@JBFHEMFA@?$FLDBDATA_CAMERA_LINKSWITCH?$FN?$AA@ 000000014006b330     MainInstance.obj
 0002:00007350       ??_C@_0CO@JMCMIMBK@?$FL?$CFs?$FN?5?$IDJ?$ID?$IB?$ID?$IJ?$ID?$IK?$ID?$JD?$IDN?$IDX?$IDC?$IDb?$ID?$GA?$JA?$NN?$JC?h?$IK?$KO?$JH@ 000000014006b350     MainInstance.obj
 0002:00007380       ??_C@_0CO@CIDCIKM@?$FL?$CFs?$FN?5?$IDJ?$ID?$IB?$ID?$IJ?$INZ?$JA?$LD?$ID?$IC?$IB?$FL?$IDh?$IO?$JO?$IC?M?$ID?$IN?$IDW?$IDb?$ID@ 000000014006b380     MainInstance.obj
 0002:000073b0       ??_C@_0DK@JNNEAIGP@?$FL?$CFs?$FN?5?$DM?$CFs?$DO?5?$FL?$CFs?$FN?5?$IO?$JO?$IC?I?$IM?$JP?$IN?$LI?$IP?$IJ?$IK?z?$IJ?$LL?$IDA?$ID@ 000000014006b3b0     MainInstance.obj
 0002:000073f0       ??_C@_0DP@GJNALINF@?$FL?$CFs?$FN?5?$DM?$CFs?$DO?5?$IDJ?$ID?$IB?$ID?$IJ?$INZ?$JA?$LD?$ID?$IC?$IB?$FL?$IDh?$IO?$JO?$IC?L?$IDJ@ 000000014006b3f0     MainInstance.obj
 0002:00007430       ??_C@_0FA@KLCLNGMK@?$FL?$CFs?$FN?5?$IDJ?$ID?$IB?$ID?$IJ?$ID?$IK?$ID?$JD?$IDN?$IDX?$IDC?$IDb?$ID?$GA?$JA?$NN?$JC?h?$IK?$KO?$JH@ 000000014006b430     MainInstance.obj
 0002:00007480       ??_C@_0CO@JMKJKNGC@?$FL?$CFs?$FN?5?$DM?$CFs?$DO?5?$FL?$CFs?$FN?5?$IO?$JO?$IC?I?$IM?$JP?$IN?$LI?$IP?$IJ?$IK?z?$IJ?$LL?$IDA?$ID@ 000000014006b480     MainInstance.obj
 0002:000074b0       ??_C@_0CG@LGNJIBFF@?$FL?$CFs?$FN?5?$IDJ?$ID?$IB?$ID?$IJ?$ID?$IK?$ID?$JD?$IDN?$IDX?$IDC?$IDb?$ID?$GA?$JA?$NN?$JC?h?$IK?$KO?$JH@ 000000014006b4b0     MainInstance.obj
 0002:000074d8       ??_C@_0CM@PICAJNEA@?$FL?$IDJ?$ID?$IB?$ID?$IJ?$ID?$IK?$ID?$JD?$IDN?$IDX?$IDC?$IDb?$ID?$GA?$JA?$NN?$JC?h?$IK?$KO?$JH?$LJ?$JC?J?$JC@ 000000014006b4d8     MainInstance.obj
 0002:00007508       ??_C@_0CE@CBHOMAPO@?$FL?$CFs?$FN?5?$DM?$CFs?$DO?5?$FL?$CFs?$FN?5?$IO?$JO?$IC?I?$IM?$JP?$IN?$LI?$IKJ?$IOn?$JHv?$IL?$IB?$IO@ 000000014006b508     MainInstance.obj
 0002:00007530       ??_C@_0CA@PILKMHMC@?$FL?$CFs?$FN?5?$ID?$IN?$IDW?$IDb?$IDN?$IDp?$ID?$IJ?$ID?$IJ?$ID?$JD?$JA?$NN?$JC?h?$JC?$IG?4?4?4?4?$AA@ 000000014006b530     MainInstance.obj
 0002:00007550       ??_C@_0BJ@MPMIABNE@?$JCT?$IP?$JN?$IKJ?$IOn?$IO?$JO?$IC?I?$IO?$KJ?$JD?$KO?$ID?$IK?$IDZ?$IDb?$IDg?$AA@ 000000014006b550     MainInstance.obj
 0002:00007570       ??_C@_0BP@JAOLKKIE@?$FL?$DM?$CFs?$DO?5?$CFs?5?$IO?$JO?$IC?I?$IM?$JP?$IN?$LI?$IKJ?$IOn?$JHv?$IL?$IB?$IO?s?$JAM?$FN?$AA@ 000000014006b570     MainInstance.obj
 0002:00007590       ??_C@_0BE@PCDGFMIA@PLGLEN_KEN_CHECK_ID?$AA@ 000000014006b590     MainInstance.obj
 0002:000075b0       ??_C@_0EG@LAAGALHG@?$FL?$CFs?$FN?5?$IDV?$IB?$FL?$IDP?$ID?$JD?$IDTPLG?$IDJ?$IDE?$ID?$JD?$IDg?$ID?$IK?$IDZ?$IDb@ 000000014006b5b0     MainInstance.obj
 0002:000075f8       ??_C@_0N@GHEAPMFG@HOSEIRITU_ID?$AA@ 000000014006b5f8     MainInstance.obj
 0002:00007608       ??_C@_0BE@MKODCOGE@PLGLEN_DSP_CHECK_ID?$AA@ 000000014006b608     MainInstance.obj
 0002:00007620       ??_C@_0BB@NIKOFNDE@HANTEI_ANS_?$CFd_ID?$AA@ 000000014006b620     MainInstance.obj
 0002:00007640       ??_C@_0EF@HJPNPOOB@?$FL?$CFs?$FN?5?$IM?$JP?$IN?$LI?$IKJ?$IOn?$II?Y?$IP?m?$IDA?$ID?$JD?$IDT?$IB?$FL?$IO?s?$JAM?$CI?$ID?$IN@ 000000014006b640     MainInstance.obj
 0002:00007688       ??_C@_0CL@KDFKNCJA@?$FL?$CFs?$FN?5?$DM?$CFs?$DO?5?$FL?$CFs?$FN?$IO?$JO?$IC?I?$IM?$JP?$IN?$LI?$IKJ?$IOn?$IDA?$ID?$JD?$IDT@ 000000014006b688     MainInstance.obj
 0002:000076b8       ??_C@_0BF@PCMHGJFC@?$IM?$JP?$IN?$LI?$IKJ?$IOn?$IDA?$ID?$JD?$IDT?$IB?$FL?$II?Y?$IP?m?$AA@ 000000014006b6b8     MainInstance.obj
 0002:000076d0       ??_C@_0CI@PNBHBPMB@?$FL?$II?Y?$IP?m?$IDA?$ID?$JD?$IDT?$IB?$FL?$IO?s?$JAM?5?$IDJ?$ID?$IB?$ID?$IJ?$IDy?$IDA?$DN?$CFd?5@ 000000014006b6d0     MainInstance.obj
 0002:000076f8       ??_C@_0DD@HCEJGMDN@?$FL?$CFs?$FN?5?$IM?$JP?$IN?$LI?$IKJ?$IOn?$II?Y?$IP?m?$IDA?$ID?$JD?$IDT?$IB?$FL?$IO?s?$JAM?5?$IDJ@ 000000014006b6f8     MainInstance.obj
 0002:00007730       ??_C@_0BF@FNOFIKBL@?$IM?$JP?$IN?$LI?$JC?b?$IO?$HO?$IDA?$ID?$JD?$IDT?$IB?$FL?$II?Y?$IP?m?$AA@ 000000014006b730     MainInstance.obj
 0002:00007748       ??_C@_0DJ@COGINBE@?$FL?$CFs?$FN?5?$IM?$JP?$IN?$LI?$JC?b?$IO?$HO?$IDA?$ID?$JD?$IDT?$IB?$FL?5?$II?Y?$IP?m?$IM?$JP?$IPo?$CI?$ID@ 000000014006b748     MainInstance.obj
 0002:00007788       ??_C@_0CH@IGCFBNFF@?$FL?$CFs?$FN?5?$IM?$JP?$IN?$LI?$JC?b?$IO?$HO?$IDA?$ID?$JD?$IDT?$IB?$FL?5?$II?Y?$IP?m?$IM?$JP?$IPo?5p@ 000000014006b788     MainInstance.obj
 0002:000077b0       ??_C@_0EA@FANNDBMP@?$FL?$CFs?$FN?5?$JCP?$JE?$KN?$JE?$LL?$JC?h?$IM?$JP?$IN?$LI?$JC?b?$IO?$HO?$IDA?$ID?$JD?$IDT?$IB?$FL?5?$IO?s@ 000000014006b7b0     MainInstance.obj
 0002:000077f0       ??_C@_0DP@DHFKAOEH@?$FL?$CFs?$FN?5?$IM?$JP?$IN?$LI?$IKJ?$IOn?$IDA?$ID?$JD?$IDT?$IB?$FL?$ID?$FO?$IDC?$ID?$IA?$IDA?$IDE?$ID@ 000000014006b7f0     MainInstance.obj
 0002:00007830       ??_C@_0DL@EELAIKD@?$FL?$CFs?$FN?5?$IM?$JP?$IN?$LI?$JC?b?$IO?$HO?$IDA?$ID?$JD?$IDT?$IB?$FL?5?$II?Y?$IP?m?$IM?$JP?$IPo?$IBB@ 000000014006b830     MainInstance.obj
 0002:00007870       ??_C@_0BC@BFJLODEI@?$FL?$CFs?$FN?5?$CFs?$IC?L?$IM?$JP?$IN?$LI?$JC?$IG?$JCf?$AA@ 000000014006b870     MainInstance.obj
 0002:00007888       ??_C@_0DG@MICLCDHK@?$FL?$CFs?$FN?5?$IM?$JP?$IN?$LI?$IKJ?$IOn?$IDA?$ID?$JD?$IDT?$IB?$FL?$ID?$FO?$IDC?$ID?$IA?$IDA?$IDE?$ID@ 000000014006b888     MainInstance.obj
 0002:000078c0       ??_C@_0EG@JFAEBPOD@?$FL?$CFs?$FN?5?$IDV?$IB?$FL?$IDP?$ID?$JD?$IDTPLG?$IDJ?$IDE?$ID?$JD?$IDg?$IKJ?$IOn?$JHv@ 000000014006b8c0     MainInstance.obj
 0002:00007908       ??_C@_0BJ@HFFDFALL@?$FL?$CFs?$FN?5?$IM?$JP?$IN?$LI?$JC?$IG?5?$IP?$II?$JH?$JN?$IKJ?$IOn?$IBI?$IBI?$AA@ 000000014006b908     MainInstance.obj
 0002:00007928       ??_C@_0BJ@GDKLIAMD@?$JCT?$IP?$JN?$JC?b?$IO?$HO?$IO?$JO?$IC?I?$IO?$KJ?$JD?$KO?$ID?$IK?$IDZ?$IDb?$IDg?$AA@ 000000014006b928     MainInstance.obj
 0002:00007948       ??_C@_0DG@MPIJBACE@?$FL?$CFs?$FN?5?$IDJ?$ID?$IB?$ID?$IJPLG?$IDJ?$IDE?$ID?$JD?$IDg?$IDX?$ID?$FO?$IB?$FL?$IDg?$FLE@ 000000014006b948     MainInstance.obj
 0002:00007980       ??_C@_0BC@MDNENP@?$FL?$CFs?$FN?5?$IM?$JP?$IN?$LI?$JC?b?$IO?$HO?$IBI?$IBI?$AA@ 000000014006b980     MainInstance.obj
 0002:000079a0       ??_C@_0EG@CCBLBPDL@?$FL?$CFs?$FN?5?$IDV?$IB?$FL?$IDP?$ID?$JD?$IDTPLG?$IDJ?$IDE?$ID?$JD?$IDg?$ID?$IK?$IDZ?$IDb@ 000000014006b9a0     MainInstance.obj
 0002:000079e8       ??_C@_0DI@GCKNMFMK@?$FL?$CFs?$FN?5?$IM?$JP?$IN?$LI?$IP?$IJ?$IK?z?$IJ?$LL?$IDA?$ID?$JD?$IDT?$IB?$FL?$ID?$FO?$IDC?$ID?$IA?$IDA?$ID@ 000000014006b9e8     MainInstance.obj
 0002:00007a20       ??_C@_0DL@GKAABNAP@?$FL?$CFs?$FN?5?$IM?$JP?$IN?$LI?$IP?$IJ?$IK?z?$IJ?$LL?$IDA?$ID?$JD?$IDT?$IB?$FL?$ID?$FO?$IDC?$ID?$IA?$IDA?$ID@ 000000014006ba20     MainInstance.obj
 0002:00007a60       ??_C@_0DJ@ECMBDNAA@?$FL?$CFs?$FN?5?$DM?$CFs?$DO?5?$DM?$CFs?$DO?5?$IDR?$IDC?$ID?$IL?$JA?X?$JB?V?$CIFACT_T@ 000000014006ba60     MainInstance.obj
 0002:00007aa0       ??_C@_0CB@PCLBDIMD@?$FL?$IM?$JP?$IN?$LI?$IP?$IJ?$IK?z?$IJ?$LL?$IDA?$ID?$JD?$IDT?$IB?$FL?$ID?$FO?$IDC?$ID?$IA?$IDA?$IDE?$IDg?$FN@ 000000014006baa0     MainInstance.obj
 0002:00007ad0       ??_C@_0EF@NCDOKDGO@?$FL?$CFs?$FN?5?$DM?$CFs?$DO?5?$DM?$CFs?$DO?5?$JA?$NN?$JC?h?$JHv?$IL?$IB?$CI?$JF?2?$JG?J?$IP?s?$JB?T@ 000000014006bad0     MainInstance.obj
 0002:00007b20       ??_C@_0EF@FMFGODMD@?$FL?$CFs?$FN?5?$DM?$CFs?$DO?5?$JF?2?$JG?J?$IP?s?$JB?T?3?$CFd?5?$IC?E?$JF?O?$IJ?$LL?$JG?$LD?$IC?$LF@ 000000014006bb20     MainInstance.obj
 0002:00007b70       ??_C@_0FD@BMNNKPBL@?$FLPlgManager?$FN?5PLG?5?$JA?$KO?$IN?$IH?$JA?$KL?$ID?$GA?$IDF?$IDb?$IDN?5@ 000000014006bb70     MainInstance.obj
 0002:00007bc8       ??_C@_0DO@CILHAIII@?$FL?$CFs?$FN?5?$DM?$CFs?$DO?5?$JC?$LC?$JA?$KO?$JHp?$ID?$IM?$IDR?$IB?$FL?$ID_?$IB?$FL?$IC?VUDP?$JB@ 000000014006bbc8     MainInstance.obj
 0002:00007c10       ??_C@_0FD@CDDNGPFO@?$FLPlgManager?$FN?5PLG?5?$JA?$KO?$IN?$IH?$JA?$KL?$ID?$GA?$IDF?$IDb?$IDN?5@ 000000014006bc10     MainInstance.obj
 0002:00007c68       ??_C@_0CO@FLHMKPJ@?$FL?$IM?$JP?$IN?$LI?$JHpPLG?$DN?$CF0?43fm?3?$JE?d?$IKr?$JHpPLG?$DN?$CF0?43@ 000000014006bc68     MainInstance.obj
 0002:00007c98       ??_C@_0DC@OMIPBDMH@?$FL?$CFs?$FN?5?$IOB?$JB?$JM?$IDt?$ID?$IM?$IB?$FL?$ID?$IA?$JC?b?$IO?$HO?$IM?$JP?$IPo?5?$DM?$CFs?$DO?$FLC@ 000000014006bc98     MainInstance.obj
 0002:00007cd0       ??_C@_0CJ@EJLEBNJA@?$FLPlgManager?$FN?5PLG?5?$JA?$KO?$IN?$IH?$JA?$KL?$ID?$GA?$IDF?$IDb?$IDN?5@ 000000014006bcd0     MainInstance.obj
 0002:00007d00       ??_C@_0CM@FLOCIJBK@?$FL?$CFs?$FN?5?$IOB?$JB?$JM?$IDt?$ID?$IM?$IB?$FL?$ID?$IA?$JC?b?$IO?$HO?$IM?$JP?$IPo?5?$IL?$EA?$IK?m?$IP?s@ 000000014006bd00     MainInstance.obj
 0002:00007d30       ??_C@_0CN@BBNFBLLG@?$IOB?$JB?$JM?$IDt?$ID?$IM?$IB?$FL?$ID?$IA?$JC?b?$IO?$HO?$IM?$JP?$IPo?5?$DM?$CFs?$DO?$FLCam?3?$CFd@ 000000014006bd30     MainInstance.obj
 0002:00007d60       ??_C@_0FJ@KCGDNAIL@?$FL?$CFs?$FN?5SPM?$JAL?$IC?Q?$JH?$KG?$JF?b?$JA?$LD?$CI?$IL?$JH?$JH?$KD?$CJ?5SPM?$JAL?$IC?Q@ 000000014006bd60     MainInstance.obj
 0002:00007dc0       ??_C@_0CM@GPEICLBJ@?$FL?$CFs?$FN?5?$IOB?$JB?$JM?$IDt?$ID?$IM?$IB?$FL?$ID?$IA?$JF?$JM?$IL?$IM?$IM?$JP?$IPo?5?$IL?$EA?$IK?m?$IP?s@ 000000014006bdc0     MainInstance.obj
 0002:00007df0       ??_C@_0BO@KLFOEMHL@?$FL?$CFs?$FN?5WPD?5ON?$IO?$JO?$IC?L?$IDt?$ID?$IM?$IB?$FL?$ID?$IANo?$DN?$CFlu?$AA@ 000000014006bdf0     MainInstance.obj
 0002:00007e10       ??_C@_0CK@MFALHGHJ@?$FL?$CFs?$FN?5?$IDR?$IDC?$ID?$IL?$JH?2?$JC?h?$JC?$LH?$DN?$CF0?43fm?$CI?$CF0?43fm?5@ 000000014006be10     MainInstance.obj
 0002:00007e40       ??_C@_0CO@CFBCBNPL@?$FL?$IM?$JP?$IN?$LI?$JHpPLG?$DN?$CF0?43fm?3?$JF?2?$IO?$KG?$JHpPLG?$DN?$CF0?43@ 000000014006be40     MainInstance.obj
 0002:00007e70       ??_C@_0FH@MAJJGIIM@?$FLPlgManager?$FN?5?$JF?2?$IO?$KGPLG?5?$JA?$KO?$IN?$IH?$JA?$KL?$ID?$GA?$IDF?$ID@ 000000014006be70     MainInstance.obj
 0002:00007ec8       ??_C@_0CN@DIFIMBCP@?$FLPlgManager?$FN?5?$JF?2?$IO?$KGPLG?5?$JA?$KO?$IN?$IH?$JA?$KL?$ID?$GA?$IDF?$ID@ 000000014006bec8     MainInstance.obj
 0002:00007f00       ??_C@_0FC@DKPDOGCC@?$FLPlgManager?$FN?5?$JF?2?$IO?$KGPLG?5?$JA?$KO?$IN?$IH?$JA?$KL?$ID?$GA?$IDF?$ID@ 000000014006bf00     MainInstance.obj
 0002:00007f60       ??_C@_0ED@DFNNLHCN@?$FL?$CFs?$FN?5?$IDp?$ID?$IJ?$ID?$IB?$IB?$FL?$ID?$FO?$JA?X?$JB?V?$JHv?$IL?$IB?5?$FL?$CFs?$FN?5Fra@ 000000014006bf60     MainInstance.obj
 0002:00007fb0       ??_C@_0FP@PHFDDAG@?$FL?$CFs?$FN?5SPM?$JAL?$IC?Q?$JH?$KG?$JF?b?$JA?$LD?$CI?$IO?$MA?$INs?$IDt?$ID?$IM?$IB?$FL?$ID?$IA?$CJ@ 000000014006bfb0     MainInstance.obj
 0002:00008010       ??_C@_0DP@BOIADPHH@?$FL?$CFs?$FN?5FACT_TI_RPISAVE_04?5?$JB?$JH?$JAM?5?$FLme@ 000000014006c010     MainInstance.obj
 0002:00008050       ??_C@_0EO@FLLCAMDC@?$FL?$CFs?$FN?5?$JD?$OA?$JF?$JE?$IL?$JH?$JH?$KD?$IDJ?$IDE?$ID?$JD?$ID?$FO?$JA?$NN?$JC?h?5?$FL?$CFs?$FN?5F@ 000000014006c050     MainInstance.obj
 0002:000080a0       ??_C@_0CK@CJGPMAKC@?$FL?$CFs?$FN?5?$JBO?$IJ?q?$JB?$JH?$JAM?$IC?L?$JG?$KC?$IO?$MA?$INs?$JA?$NN?$JC?h?$IC?L?$IDL?$ID?$ID?$ID@ 000000014006c0a0     MainInstance.obj
 0002:000080d0       ??_C@_0FH@JHEDNPJA@?$FL?$CFs?$FN?5?$IO?$JP?$IDR?$IDC?$ID?$IL?$IP?n?$JF?q?$IO?s?$JAM?$IO?$JO?$IC?L?$IDp?$ID?$IJ?$ID?$IB?$IB@ 000000014006c0d0     MainInstance.obj
 0002:00008128       ??_C@_0DD@HNFCCNBB@?$FL?$CFs?$FN?5?$IO?$JP?$IDR?$IDC?$ID?$IL?$IP?n?$JF?q?$IO?s?$JAM?$IO?$JO?$IC?L?$IDp?$ID?$IJ?$ID?$IB?$IB@ 000000014006c128     MainInstance.obj
 0002:00008160       ??_C@_09CIFLDFDC@TO_PUTDAT?$AA@ 000000014006c160     MainInstance.obj
 0002:00008170       ??_C@_0EG@BAGOKGNN@?$FL?$CFs?$FN?5?$JDo?$JI?$FO?$IP?s?$IL?$LF?$JG?b?$IC?$KC?$IN?$IH?$IC?m?$IC?$LJ?$IBB?$IC?$LH?$IC?E?$IC?I?$JB@ 000000014006c170     MainInstance.obj
 0002:000081b8       ??_C@_0BC@FAFIPKLE@?$FLDBDATA_ADD_SYNC?$FN?$AA@ 000000014006c1b8     MainInstance.obj
 0002:000081d0       ??_C@_0CM@DOMLBPLB@?$FL?$CFs?$FN?5DB?$JDo?$JI?$FO?$II?K?$JH?$IK?$IDL?$ID?$IF?$IB?$FL?$IDt?$ID?$IL?5?$FLDBDAT@ 000000014006c1d0     MainInstance.obj
 0002:00008200       ??_C@_0BL@CDHBHPKK@?$FL?$IM?$JP?$IN?$LI?$IKJ?$IOn?$JHv?$IL?$IB?5err_code?$DN?$CFd?$FN?$AA@ 000000014006c200     MainInstance.obj
 0002:00008220       ??_C@_0CB@HCGLOEJK@?$FL?$IDp?$ID?$IJ?$ID?$IB?$IB?$FL?$ID?$FO?$JF?O?$INX?$JHv?$IL?$IB?5err_code?$DN?$CFd?$FN@ 000000014006c220     MainInstance.obj
 0002:00008248       ??_C@_09PLEMKCAA@HY_DEFECT?$AA@ 000000014006c248     MainInstance.obj
 0002:00008258       ??_C@_0BN@DHCGPNKE@?$FL?$IP?s?$JB?T?$JG?b?$IC?$KC?$IN?$IH?$IC?m?$IC?$LJ?5err_code?$DN?$CFd?$FN?$AA@ 000000014006c258     MainInstance.obj
 0002:00008278       ??_C@_09OLJFDGID@TO_MAEDAT?$AA@ 000000014006c278     MainInstance.obj
 0002:00008288       ??_C@_09FJIENKGB@SO_DEFMAP?$AA@ 000000014006c288     MainInstance.obj
 0002:00008298       ??_C@_09JJCOGHGE@KS_MASTER?$AA@ 000000014006c298     MainInstance.obj
 0002:000082a8       ??_C@_07LBEKBBIB@TrFrame?$AA@ 000000014006c2a8     MainInstance.obj
 0002:000082b8       ??_7?$ThreadQueue@UDELIVERY_MAIL@MainInstance@@@KizuLib@@6B@ 000000014006c2b8     MainInstance.obj
 0002:000082c8       ??_7?$TrackingFrame@UTR_FRAME@@@KizuLib@@6B@ 000000014006c2c8     MainInstance.obj
 0002:000082d8       ??_7MainInstance@@6B@      000000014006c2d8     MainInstance.obj
 0002:00008318       ??_7LockManager@KizuLib@@6B@ 000000014006c318     MainInstance.obj
 0002:00008328       ??_7MergeManager@@6B@      000000014006c328     MergeManager.obj
 0002:00008338       ??_7OpSendFunc@@6B@        000000014006c338     OpSendFunc.obj
 0002:00008340       ??_C@_09GNOKPJBO@OpSendFnc?$AA@ 000000014006c340     OpSendFunc.obj
 0002:00008350       ??_C@_0DI@GPEFEHGL@?$FL?$CFs?$FN?5?$DM?$CFs?$DO?5?$JD?$JN?$IK?$IH?$IB?K?$JF?2?$IO?$KG?$IK?T?5?$IDX?$IDe?$IB?$FL?$ID?$FO?$ID@ 000000014006c350     OpSendFunc.obj
 0002:00008388       ??_C@_02DMCFPBBC@KZ?$AA@   000000014006c388     OpSendFunc.obj
 0002:00008390       ??_C@_0DO@KDCEPFAP@?$FL?$CFs?$FN?5?$DM?$CFs?$DO?5?$JD?$JN?$IK?$IH?$IB?K?$JF?2?$IO?$KG?$IK?T?5?$IM?$JP?$IN?$LI?$JHp?$IDR?$ID@ 000000014006c390     OpSendFunc.obj
 0002:000083d0       ??_C@_0BB@ICDILECN@?$FL?$IDX?$IDe?$IB?$FL?$ID?$FO?$IDX?$IP?n?$JF?q?$FN?$AA@ 000000014006c3d0     OpSendFunc.obj
 0002:000083e8       ??_C@_0CL@HDEBDOEM@?$FL?$IM?$JP?$IN?$LI?$JHp?$IDR?$IDC?$ID?$IL?$IP?n?$JF?q?$FN?5?$DM?$CFs?$DO?5?$DM?$CFs?$DO?5?$IDR?$ID@ 000000014006c3e8     OpSendFunc.obj
 0002:00008418       ??_C@_0DK@KMINIOAF@?$FL?$CFs?$FN?5?$DM?$CFs?$DO?5?$JD?$JN?$IK?$IH?$IB?K?$JF?2?$IO?$KG?$IK?T?5?$IM?$JP?$IN?$LI?$JHp?$IDR?$ID@ 000000014006c418     OpSendFunc.obj
 0002:00008458       ??_C@_0DE@BMJAPNAN@?$FL?$CFs?$FN?5?$DM?$CFs?$DO?5?$JD?$JN?$IK?$IH?$IB?K?$JF?2?$IO?$KG?$IK?T?5?$IDR?$IDC?$ID?$IL?$IO?$MA?$JA@ 000000014006c458     OpSendFunc.obj
 0002:00008490       ??_C@_0DP@JBGNKFJE@?$FL?$CFs?$FN?5?$DM?$CFs?$DO?5?$JD?$JN?$IK?$IH?$IB?K?$JF?2?$IO?$KG?$IK?T?5?$IDR?$IDC?$ID?$IL?$IO?$MA?$JA@ 000000014006c490     OpSendFunc.obj
 0002:000084d0       ??_C@_0DO@JOPAFCGK@?$FL?$CFs?$FN?5?$DM?$CFs?$DO?5?$JD?$JN?$IK?$IH?$IB?K?$JF?2?$IO?$KG?$IK?T?5?$JF?2?$IO?$KG?$JHp?$IDR?$ID@ 000000014006c4d0     OpSendFunc.obj
 0002:00008510       ??_C@_0CE@ICDHILKH@?$FL?$IDR?$IDC?$ID?$IL?$IO?$MA?$JA?Q?5?$DM?$CFs?$DO?5?$DM?$CFs?$DO?5?$IDR?$IDC?$ID?$ILNo?$CI?$CF@ 000000014006c510     OpSendFunc.obj
 0002:00008538       ??_C@_0CK@MDNIHKAC@?$FL?$JF?2?$IO?$KG?$JHp?$IDR?$IDC?$ID?$IL?$IP?n?$JF?q?5?$DM?$CFs?$DO?5?$DM?$CFs?$DO?5?$IDR?$IDC@ 000000014006c538     OpSendFunc.obj
 0002:00008568       ??_C@_0DK@HCGNOJL@?$FL?$CFs?$FN?5?$DM?$CFs?$DO?5?$JD?$JN?$IK?$IH?$IB?K?$JF?2?$IO?$KG?$IK?T?5?$JF?2?$IO?$KG?$JHp?$IDR?$ID@ 000000014006c568     OpSendFunc.obj
 0002:000085a8       ??_C@_0L@DEPFPHPO@?$FL?$JC?J?$JE?B?$IL?$JH?$JH?$KD?$FN?$AA@ 000000014006c5a8     OpSendFunc.obj
 0002:000085b8       ??_C@_0DC@EHDGKMLD@?$FL?$CFs?$FN?5?$DM?$CFs?$DO?5?$JD?$JN?$IK?$IH?$IB?K?$JF?2?$IO?$KG?$IK?T?5?$JC?J?$JE?B?$IL?$JH?$JH?$KD?$JB@ 000000014006c5b8     OpSendFunc.obj
 0002:000085f0       ??_C@_0DG@IDHPKMKE@?$FL?$CFs?$FN?5?$DM?$CFs?$DO?5?$JD?$JN?$IK?$IH?$IB?K?$JF?2?$IO?$KG?$IK?T?5?$IDJ?$IDb?$IDg?$IP?n?$JF@ 000000014006c5f0     OpSendFunc.obj
 0002:00008628       ??_C@_0CO@JEIFKEMK@?$FL?$CFs?$FN?5?$JD?$JN?$IK?$IH?$IB?K?$JF?2?$IO?$KG?$IK?T?5?5?$IDJ?$IDb?$IDg?$IP?n?$JF?q?$JD?$JJ?5@ 000000014006c628     OpSendFunc.obj
 0002:00008658       ??_C@_0DG@EGJLKALN@?$FL?$CFs?$FN?5?$DM?$CFs?$DO?5?$JD?$JN?$IK?$IH?$IB?K?$JF?2?$IO?$KG?$IK?T?5?$IDA?$ID?$IJ?$IB?$FL?$ID?$IA?$IP@ 000000014006c658     OpSendFunc.obj
 0002:00008690       ??_C@_0BD@LKAPAAH@?$FL?$IDJ?$IDb?$IDg?$IP?n?$JF?q?$FN?5?$DM?$CFs?$DO?$FN?$AA@ 000000014006c690     OpSendFunc.obj
 0002:000086a8       ??_C@_0DK@BKGAFBIO@?$FL?$CFs?$FN?5?$DM?$CFs?$DO?5?$JD?$JN?$IK?$IH?$IB?K?$JF?2?$IO?$KG?$IK?T?5?$IDp?$IDg?$ID?$IJ?$IDC?$ID@ 000000014006c6a8     OpSendFunc.obj
 0002:000086e8       ??_C@_0P@BJFAKLEN@?$FL?$IDA?$ID?$IJ?$IB?$FL?$ID?$IA?$IP?n?$JF?q?$FN?$AA@ 000000014006c6e8     OpSendFunc.obj
 0002:000086f8       ??_C@_0CH@PMHPFKGF@?$FL?$CFs?5TO_SO_HEAD?5TO_SO_DATA_KIND_D@ 000000014006c6f8     OpSendFunc.obj
 0002:00008720       ??_C@_0DF@CIHLDPII@?$FL?$CFs?$FN?5?$DM?$CFs?$DO?5?$DM?$CFs?$DO?5?$JD?$JN?$IK?$IH?$IB?K?$JF?2?$IO?$KG?$IK?T?5?ar?$IP?n@ 000000014006c720     OpSendFunc.obj
 0002:00008758       ??_C@_0BK@BAABFCBN@?$FL?$CFs?$FN?5output?$DN?$CFd?5pcodeNG?$DN?$CFd?$AA@ 000000014006c758     ParamManager.obj
 0002:00008778       ??_C@_08JHPHOCDC@ParamMgr?$AA@ 000000014006c778     ParamManager.obj
 0002:00008788       ??_C@_0BG@GPBFAIAC@?$FL?$CFs?$FN?5DB?$JA?Z?$JB?$LB?$IDG?$ID?$IJ?$IB?$FL?$FL?$CFs?$FN?$AA@ 000000014006c788     ParamManager.obj
 0002:000087a0       ??_C@_0BA@CLGLKGFF@M_COMMON_MASTER?$AA@ 000000014006c7a0     ParamManager.obj
 0002:000087b0       ??_C@_0O@EADHPBEI@?5?$FLRAS?$JA?$LD?$IP?m?$JAF?$FN?5?$AA@ 000000014006c7b0     ParamManager.obj
 0002:000087c0       ??_C@_07MIFOMGFO@SELECT?5?$AA@ 000000014006c7c0     ParamManager.obj
 0002:000087c8       ??_C@_0O@CPKEFBPP@?0?$FLRAS?$JC?$IN?$II?S?$JAF?$FN?5?$AA@ 000000014006c7c8     ParamManager.obj
 0002:000087d8       ??_C@_0O@DMPBDMHP@?0?$FLRAS?$II?Y?$IP?m?$JAF?$FN?5?$AA@ 000000014006c7d8     ParamManager.obj
 0002:000087e8       ??_C@_0BC@IIBMJKHG@?0?$FLLOG?$IDC?$IDx?$ID?$JD?$IDg?$JAF?$FN?5?$AA@ 000000014006c7e8     ParamManager.obj
 0002:00008800       ??_C@_0BA@DNDHMCMB@?0?$FLLOG?$JF?2?$IO?$KG?$IM?$IP?$JA?$JE?$FN?5?$AA@ 000000014006c800     ParamManager.obj
 0002:00008810       ??_C@_0BA@KBGOGBEL@?0?$FLLOG?$IMy?$IM?L?$IP?a?$JAF?$FN?5?$AA@ 000000014006c810     ParamManager.obj
 0002:00008820       ??_C@_0BA@OKNMANBC@?0?$FLLOG?$IPd?$IM?L?$IP?a?$JAF?$FN?5?$AA@ 000000014006c820     ParamManager.obj
 0002:00008830       ??_C@_0BH@FMDGIBIO@?0?$FL?$JCT?$IP?$JN?$IJ?f?$JG?J?$JF?2?$IO?$KG?$IL?f?$IK?T?$JB?e?$FN?5?$AA@ 000000014006c830     ParamManager.obj
 0002:00008848       ??_C@_0BH@GFPKLPNK@?0?$FL?$JCT?$IP?$JN?$IJ?f?$JG?J?$JF?2?$IO?$KG?$IL?f?$IK?T?$IP?$KM?$FN?5?$AA@ 000000014006c848     ParamManager.obj
 0002:00008860       ??_C@_0BJ@KFNGHLD@?0?$FLJpeg?$JA?X?$IC?h?$IPo?$IC?$LF?$IJ?f?$JB?$JM?$JFi?$IO?$LP?$FN?5?$AA@ 000000014006c860     ParamManager.obj
 0002:00008880       ??_C@_0BH@NIIMNBHF@?0?$FL?$IDE?$IDH?$IB?$FL?$ID?$HN?$IN?$NO?$IOw?$JC?h?$II?J?$JCu?$FN?5?$AA@ 000000014006c880     ParamManager.obj
 0002:00008898       ??_C@_0BK@BGKGBGNF@?0?$FL?$IDG?$IDb?$IDW?$JA?$KO?$IN?$IH?$JA?$KL_?$IO?$MA?$IO?$HL?$IO?m?$JF?J?$FN?5?$AA@ 000000014006c898     ParamManager.obj
 0002:000088b8       ??_C@_0BD@OMNHFNKP@?0?$FL?$IDJ?$ID?$IB?$ID?$IJ?$IJ?$LH?$JDx?h?$IH?$JCl?$FN?5?$AA@ 000000014006c8b8     ParamManager.obj
 0002:000088d0       ??_C@_0CE@FIPCCPBD@?0?$FL?$IDG?$IDb?$IDW?$JA?$KO?$IN?$IH?$JA?$KL_?$ID?$IK?$IDJ?$IDo?$ID?$IK?$IB?$FL?$IM?$JP?$IPo?$JE?M?$II@ 000000014006c8d0     ParamManager.obj
 0002:000088f8       ??_C@_0BK@CIPKPEHP@?0?$FL?$IDG?$IDb?$IDW?$JA?$KO?$IN?$IH?$JA?$KL_?$IM?$JP?$IPo?$JE?M?$II?M?$FN?5?$AA@ 000000014006c8f8     ParamManager.obj
 0002:00008918       ??_C@_0CI@NHDPIAOJ@?0?$FL?$IDG?$IDb?$IDW?$JA?$KO?$IN?$IH?$JA?$KL_?$JBO?$IDt?$ID?$IM?$IB?$FL?$ID?$IA?$IC?F?$IC?L?$IL?$JG?$JH@ 000000014006c918     ParamManager.obj
 0002:00008940       ??_C@_0BO@FPAANDJO@?0?$FL?$IDG?$IDb?$IDW?$JA?$KO?$IN?$IH?$JA?$KL_?$JE?B?$JF?$JN?$IL?$JG?$JHe?$IM?k?$IN?$LH?$FN?5?$AA@ 000000014006c940     ParamManager.obj
 0002:00008960       ??_C@_0CG@OEPMGBBL@?0?$FL?$IDG?$IDb?$IDW?$JA?$KO?$IN?$IH?$JA?$KL_?$IDG?$IDb?$IDW?$IM?$JP?$IPo?$II?Y?$IP?mFF?$JB@ 000000014006c960     ParamManager.obj
 0002:00008988       ??_C@_0BO@PLGHEEKN@?0?$FL?$IDG?$IDb?$IDW?$JA?$KO?$IN?$IH?$JA?$KL_?$JHn?$JA?Z?$IM?c?$JFs?$IK?$LE?$JB?Q?$FN?5?$AA@ 000000014006c988     ParamManager.obj
 0002:000089a8       ??_C@_0BI@NNHJIAGB@?0?$FL?$IDG?$IDb?$IDW?$IM?$JP?$IPo_?$IM?$JP?$IPo?$JE?M?$II?M?$FN?5?$AA@ 000000014006c9a8     ParamManager.obj
 0002:000089c0       ??_C@_0BI@ODCFGCML@?0?$FL?$IDG?$IDb?$IDW?$IM?$JP?$IPo_?$IO?$MA?$IO?$HL?$IO?m?$JF?J?$FN?5?$AA@ 000000014006c9c0     ParamManager.obj
 0002:000089d8       ??_C@_0BK@NCGFIKFN@?0?$FL?$IPd?$JF?$KB?ar?$ID?$HN?$IDb?$IDv?$JEw?$IMi?$JAF_?$JC?$IG?$FN?5?$AA@ 000000014006c9d8     ParamManager.obj
 0002:000089f8       ??_C@_0BK@NDLAKFEP@?0?$FL?$IPd?$JF?$KB?ar?$ID?$HN?$IDb?$IDv?$JEw?$IMi?$JAF_?$IMy?$FN?5?$AA@ 000000014006c9f8     ParamManager.obj
 0002:00008a18       ??_C@_0BO@IFOJKHBF@?0?$FL?$IPd?$JF?$KB?ar?$ID?$HN?$IDb?$IDv?ar?$IM?B?$JA?$JE?h?$IH?$JCl_?$IMy?$FN?5?$AA@ 000000014006ca18     ParamManager.obj
 0002:00008a38       ??_C@_0BK@DGGDFANN@?0?$FL?$IPd?$JF?$KB?ar?$ID?$HN?$IDb?$IDv?$JEw?$IMi?$JAF_?$IPd?$FN?5?$AA@ 000000014006ca38     ParamManager.obj
 0002:00008a58       ??_C@_0BO@GADKFCIH@?0?$FL?$IPd?$JF?$KB?ar?$ID?$HN?$IDb?$IDv?ar?$IM?B?$JA?$JE?h?$IH?$JCl_?$IPd?$FN?5?$AA@ 000000014006ca58     ParamManager.obj
 0002:00008a78       ??_C@_0BO@IEDMIIAH@?0?$FL?$IPd?$JF?$KB?ar?$ID?$HN?$IDb?$IDv?ar?$IM?B?$JA?$JE?h?$IH?$JCl_?$JC?$IG?$FN?5?$AA@ 000000014006ca78     ParamManager.obj
 0002:00008a98       ??_C@_0BI@MAEEPDNN@?0?$FL?$JA?$NN?$JE?u?$JC?$LH_?$IM?$JP?$IN?$LI?$IK?n?$JD__SPM?$FN?5?$AA@ 000000014006ca98     ParamManager.obj
 0002:00008ab0       ??_C@_0BP@DOOJJDAA@?0?$FL?$JA?$NN?$JE?u?$JC?$LH_?$IM?$JP?$IN?$LI?$IK?n?$JD__?$IP?c?$JH?$KM?$IDJ?$ID?$IB?$ID?$IJ?$FN?5?$AA@ 000000014006cab0     ParamManager.obj
 0002:00008ad0       ??_C@_0BN@NJHIILLO@?0?$FL?$JA?$NN?$JE?u?$JC?$LH_?$JF?2?$IO?$KG?$IK?n?$JD__?$JF?2?$IM?$JP?$IN?$LI?$JB?d?$FN?5?$AA@ 000000014006cad0     ParamManager.obj
 0002:00008af0       ??_C@_0BN@ILGEFOGI@?0?$FL?$JA?$NN?$JE?u?$JC?$LH_?$JF?2?$IO?$KG?$IK?n?$JD__?$JH?$KA?$IM?$JP?$IN?$LI?$JB?d?$FN?5?$AA@ 000000014006caf0     ParamManager.obj
 0002:00008b10       ??_C@_0CJ@GNANODME@?0?$FL?$JA?$NN?$JE?u?$JC?$LH_?$IM?$JP?$IN?$LI?$IK?n?$JD_?$IDQ?$IB?$FL?$IDg?$JAM?$IN?$IGON_?$IM?$JP@ 000000014006cb10     ParamManager.obj
 0002:00008b40       ??_C@_0BL@OPINGFAC@?0?$FL?$JA?$NN?$JE?u?$JC?$LH_?$JF?2?$IO?$KG?$IK?n?$JD__?$IDV?$ID?$ID?$IB?$FL?$FN?5?$AA@ 000000014006cb40     ParamManager.obj
 0002:00008b60       ??_C@_0BN@CCEHBKCJ@?0?$FL?ar?$JA?Z?$IL?$NP?$ID?$IJ?$ID?$JD?$IDv_?$JFs?$IK?$LE?$JB?Q_?$JA?f?$JC?$FL?$FN?5?$AA@ 000000014006cb60     ParamManager.obj
 0002:00008b80       ??_C@_0CJ@ILMBCBPA@?0?$FL?$JA?$NN?$JE?u?$JC?$LH_?$JF?2?$IO?$KG?$IK?n?$JD_?$IDQ?$IB?$FL?$IDg?$JAM?$IN?$IGON_?$JF?2@ 000000014006cb80     ParamManager.obj
 0002:00008bb0       ??_C@_0BN@IONMAOBG@?0?$FL?ar?$JA?Z?$IL?$NP?$ID?$IJ?$ID?$JD?$IDv_?$IPo?$JH?M?$IL?f?$IK?T_?$JBO?$FN?5?$AA@ 000000014006cbb0     ParamManager.obj
 0002:00008bd0       ??_C@_0BN@NFNODMKB@?0?$FL?ar?$JA?Z?$IL?$NP?$ID?$IJ?$ID?$JD?$IDv_?$JFs?$IK?$LE?$JB?Q_?$JE?v?$JC?$FL?$FN?5?$AA@ 000000014006cbd0     ParamManager.obj
 0002:00008bf0       ??_C@_0BP@KBEOCMFF@?0?$FL?ar?$JA?Z?$IL?$NP?$IDA?$ID?$IJ?$IB?$FL?$ID?$IA_?$JFs?$IK?$LE?$JB?Q_?$JA?f?$JC?$FL?$FN?5?$AA@ 000000014006cbf0     ParamManager.obj
 0002:00008c10       ??_C@_0BN@BBBBPLJI@?0?$FL?ar?$JA?Z?$IL?$NP?$ID?$IJ?$ID?$JD?$IDv_?$IPo?$JH?M?$IL?f?$IK?T_?$IM?c?$FN?5?$AA@ 000000014006cc10     ParamManager.obj
 0002:00008c30       ??_C@_0BP@NNFDIGK@?0?$FL?ar?$JA?Z?$IL?$NP?$IDA?$ID?$IJ?$IB?$FL?$ID?$IA_?$IPo?$JH?M?$IL?f?$IK?T_?$JBO?$FN?5?$AA@ 000000014006cc30     ParamManager.obj
 0002:00008c50       ??_C@_0BP@FGNHAKNN@?0?$FL?ar?$JA?Z?$IL?$NP?$IDA?$ID?$IJ?$IB?$FL?$ID?$IA_?$JFs?$IK?$LE?$JB?Q_?$JE?v?$JC?$FL?$FN?5?$AA@ 000000014006cc50     ParamManager.obj
 0002:00008c70       ??_C@_0BH@JPDIKMFD@?0?$FL?$ID?$HL?$IDC?$IDX_?$IPo?$JH?M?$II?J?$JCu_?$JBO?$FN?5?$AA@ 000000014006cc70     ParamManager.obj
 0002:00008c88       ??_C@_0BP@JCBIMNOE@?0?$FL?ar?$JA?Z?$IL?$NP?$IDA?$ID?$IJ?$IB?$FL?$ID?$IA_?$IPo?$JH?M?$IL?f?$IK?T_?$IM?c?$FN?5?$AA@ 000000014006cc88     ParamManager.obj
 0002:00008ca8       ??_C@_0BE@MDBJEHIH@?0?$FL?$JBS?$JC?$LH?$IJ?f?$JB?$JM_?$JF?$NL?$JB?$LG_G?$FN?5?$AA@ 000000014006cca8     ParamManager.obj
 0002:00008cc0       ??_C@_0BE@KENOOACK@?0?$FL?$JBS?$JC?$LH?$IJ?f?$JB?$JM_?$JF?$NL?$JB?$LG_R?$FN?5?$AA@ 000000014006ccc0     ParamManager.obj
 0002:00008cd8       ??_C@_0BF@KANFIBED@?0?$FL?$JBS?$JC?$LH?$IJ?f?$JB?$JM_?$JF?$NL?$JB?$LG_?$IN?$LH?$FN?5?$AA@ 000000014006ccd8     ParamManager.obj
 0002:00008cf0       ??_C@_0BE@PEMHLHLF@?0?$FL?$JBS?$JC?$LH?$IJ?f?$JB?$JM_?$JF?$NL?$JB?$LG_B?$FN?5?$AA@ 000000014006ccf0     ParamManager.obj
 0002:00008d08       ??_C@_0BK@IKCJPJEF@?0?$FLPLG?$IL?$JH?$JH?$KD?$JF?2?$IO?$KG?$II?Y?$IP?m?$IP?c?$IM?$MA?$JCl?$FN?5?$AA@ 000000014006cd08     ParamManager.obj
 0002:00008d28       ??_C@_0BK@OENBMLFJ@?0?$FLPLG?$IL?$JH?$JH?$KD?$JE?d?$IKr?$II?Y?$IP?m?$IP?c?$IM?$MA?$JCl?$FN?5?$AA@ 000000014006cd28     ParamManager.obj
 0002:00008d48       ??_C@_0CI@KIBMOIF@?0?$FL?$ID?$IN?$IDW?$IDb?$IDN?$IDp?$ID?$IJ?$ID?$IJ?$ID?$JD?$IL?$EA?$JE?201_?$JD?$PM?$JH?M?$IDJ?$ID@ 000000014006cd48     ParamManager.obj
 0002:00008d70       ??_C@_0CD@DHCHHIAJ@?0?$FL?$IDv?$ID?$IN?$IDR?$ID?$JD?$IDR?$IDC?$ID?$IL?$JC?$LH?$JE?d?$IKr?$II?Y?$IP?m?$IP?c?$IM?$MA?$JCl@ 000000014006cd70     ParamManager.obj
 0002:00008d98       ??_C@_0CI@FJBLJFAB@?0?$FL?$ID?$IN?$IDW?$IDb?$IDN?$IDp?$ID?$IJ?$ID?$IJ?$ID?$JD?$IL?$EA?$JE?202_?$JD?$PM?$JH?M?$IDJ?$ID@ 000000014006cd98     ParamManager.obj
 0002:00008dc0       ??_C@_0CI@BIDEGBGL@?0?$FL?$ID?$IN?$IDW?$IDb?$IDN?$IDp?$ID?$IJ?$ID?$IJ?$ID?$JD?$IL?$EA?$JE?201_?$JD?$PM?$JH?M?$IDJ?$ID@ 000000014006cdc0     ParamManager.obj
 0002:00008de8       ??_C@_05PLFOFJNM@FROM?5?$AA@ 000000014006cde8     ParamManager.obj
 0002:00008df0       ??_C@_0CI@ELKODKOP@?0?$FL?$ID?$IN?$IDW?$IDb?$IDN?$IDp?$ID?$IJ?$ID?$IJ?$ID?$JD?$IL?$EA?$JE?202_?$JD?$PM?$JH?M?$IDJ?$ID@ 000000014006cdf0     ParamManager.obj
 0002:00008e18       ??_C@_0BL@LPMHEAJL@?$FL?$CFs?$FN?5?$CFs?5?$ID?$IM?$IDR?$IB?$FL?$IDh?$JA?$JE?$II?Y?$IP?m?$FL?$CFd?$FN?$AA@ 000000014006ce18     ParamManager.obj
 0002:00008e38       ??_C@_08LEHKNNJB@?$FL?$CFs?$FN?$FL?$CFs?$FN?$AA@ 000000014006ce38     ParamManager.obj
 0002:00008e48       ??_C@_09PNJBCJAP@TYPE_NAME?$AA@ 000000014006ce48     ParamManager.obj
 0002:00008e58       ??_C@_0BB@LGDLAPII@?$FL?$CFs?$FN?5?$CFs?5?$IO?f?$JD?$LO?$IK?$KO?$JH?$LJ?$AA@ 000000014006ce58     ParamManager.obj
 0002:00008e70       ??_C@_0DD@FFAOMJGE@?0?5ISNULL?$CI?$JA?X?$IPo?$IJ?f?$JB?$JM?$IO?m?$JH?$NO1?01?$CJ?0?5ISNUL@ 000000014006ce70     ParamManager.obj
 0002:00008ea8       ??_C@_0BG@PEJLPBCD@ID?0?5EdasysID?0?5?$JHD?$JA?f?$JDx?5?$AA@ 000000014006cea8     ParamManager.obj
 0002:00008ec0       ??_C@_0L@FFBGGGAF@?$FL?$CFs?5id?$DN?$CFd?$FN?$AA@ 000000014006cec0     ParamManager.obj
 0002:00008ed0       ??_C@_0BL@MLMLIFKI@?$FL?$CFs?$FN?5?$FL?$CFs?5?$IO?e?$IDL?$IB?$FL?$JFs?$JA?$LD?5id?$DN?$CFd?$FN?$AA@ 000000014006ced0     ParamManager.obj
 0002:00008eec       ??_C@_06LCPJPOPK@SELECT?$AA@ 000000014006ceec     ParamManager.obj
 0002:00008ef8       ??_C@_0L@GIBIFDAG@GRADE_NAME?$AA@ 000000014006cef8     ParamManager.obj
 0002:00008f04       ??_C@_06BIENBOJN@?5FROM?5?$AA@ 000000014006cf04     ParamManager.obj
 0002:00008f10       ??_C@_0CE@GHBJFHMM@?5ID?0?5EdasysID?0?5?$JHD?$JA?f?$JDx?0?5?$IM?$IH?$IK?W?$IDO?$ID?$IM?$IB@ 000000014006cf10     ParamManager.obj
 0002:00008f38       ??_C@_0P@HCMBMJAP@M_SCODE_MASTER?$AA@ 000000014006cf38     ParamManager.obj
 0002:00008f48       ??_C@_0BG@IHBGKOJG@?5ORDER?5BY?5?$JHD?$JA?f?$JDx?5ASC?5?$AA@ 000000014006cf48     ParamManager.obj
 0002:00008f60       ??_C@_0P@MPALKFMB@M_PCODE_MASTER?$AA@ 000000014006cf60     ParamManager.obj
 0002:00008f70       ??_C@_0BB@DKADCEJA@?5scode?0?5?$JHL?$IM?x?$JE?$LL?$JC?h?$AA@ 000000014006cf70     ParamManager.obj
 0002:00008f88       ??_C@_0P@LHONLLNE@M_PCODE_OUTPUT?$AA@ 000000014006cf88     ParamManager.obj
 0002:00008f98       ??_C@_0BB@BDMLJAGC@?5pcode?0?5?$JHL?$IM?x?$JE?$LL?$JC?h?$AA@ 000000014006cf98     ParamManager.obj
 0002:00008fb0       ??_C@_0BB@HPDLBBHO@?0?$FL?ar?$IO?mEdasysID?$FN?5?$AA@ 000000014006cfb0     ParamManager.obj
 0002:00008fc8       ??_C@_09NNCJHOGI@?5?$FLpcode?$FN?5?$AA@ 000000014006cfc8     ParamManager.obj
 0002:00008fd8       ??_C@_0BE@EFEEPKNN@?0?$FL?$JCT?$IP?$JN?$IJ?f?$JG?J?$JF?2?$IO?$KG_?$JH?$KA?$FN?5?$AA@ 000000014006cfd8     ParamManager.obj
 0002:00008ff0       ??_C@_0BE@PDDEAAKC@?0?$FL?$JCT?$IP?$JN?$IJ?f?$JG?J?$JF?2?$IO?$KG_?$JF?2?$FN?5?$AA@ 000000014006cff0     ParamManager.obj
 0002:00009008       ??_C@_0P@POGOMHFC@?0?$FLFF?$JB?$JH?$JAM?$JHL?$JG?$LD?$FN?5?$AA@ 000000014006d008     ParamManager.obj
 0002:00009018       ??_C@_0BP@IHCPBNHF@?0?$FL?$JD?$PM?$JB?$KE?$JCP?$II?J?ar?$JD_?$ID?$HN?$IDb?$IDv?$IJ?f?$JG?J?$JF?2?$IO?$KG?$FN?5?$AA@ 000000014006d018     ParamManager.obj
 0002:00009038       ??_C@_0N@MCICHKPN@?0?$FL?ar?$JA?Z?$IL?$NP?$IPd?$FN?5?$AA@ 000000014006d038     ParamManager.obj
 0002:00009048       ??_C@_0N@CHFBIPGP@?0?$FL?ar?$JA?Z?$IL?$NP?$IMy?$FN?5?$AA@ 000000014006d048     ParamManager.obj
 0002:00009058       ??_C@_0BB@NCCIJMJF@?0?$FL?$ID?$HL?$IDC?$IDX?$JIA?$JB?$LB?ar?$FN?5?$AA@ 000000014006d058     ParamManager.obj
 0002:00009070       ??_C@_0BD@GFHCIGBI@?0?$FL?$IDp?$IDg?$ID?$IJ?$IDC?$IDg?$IPo?$JH?M?$FN?5?$AA@ 000000014006d070     ParamManager.obj
 0002:00009088       ??_C@_0P@FMAMDKCH@?0?$FL?$ID?$HL?$IDC?$IDX?$IDw?$IDQ?$FN?5?$AA@ 000000014006d088     ParamManager.obj
 0002:00009098       ??_C@_0BB@DMAAJFPO@?0?$FL?$ID?$HL?$IDC?$IDX?$IPd?$JB?e?ar?$FN?5?$AA@ 000000014006d098     ParamManager.obj
 0002:000090b0       ??_C@_0BF@JBPCGHDO@?0?$FL?$ID?$HL?$IDC?$IDX?$JF?2?$JH?$KA?$JD?$KP?$II?j?ar?$FN?5?$AA@ 000000014006d0b0     ParamManager.obj
 0002:000090c8       ??_C@_0BB@EADELLNP@?0?$FL?$ID?$HL?$IDC?$IDX?$IDX?$ID?$IK?$IDo?$FN?5?$AA@ 000000014006d0c8     ParamManager.obj
 0002:000090e0       ??_C@_0BD@JOPJBNGA@?0?$FL?$ID?$HL?$IDC?$IDX?$IC?$LL?$IC?L?$JB?$LM?ar?$FN?5?$AA@ 000000014006d0e0     ParamManager.obj
 0002:000090f8       ??_C@_0BB@EAEHFGID@?0?$FL?$ID?$HL?$IDC?$IDX?$IO?$PM?$IK?z?ar?$FN?5?$AA@ 000000014006d0f8     ParamManager.obj
 0002:00009110       ??_C@_0BD@NNIHCGDM@?0?$FLDB?$JF?$NL?$JB?$LG_?$II?j?$JE?J_?$JH?$KA?$FN?5?$AA@ 000000014006d110     ParamManager.obj
 0002:00009128       ??_C@_0BD@GLPHNMED@?0?$FLDB?$JF?$NL?$JB?$LG_?$II?j?$JE?J_?$JF?2?$FN?5?$AA@ 000000014006d128     ParamManager.obj
 0002:00009140       ??_C@_0BD@KLBDPIDF@?0?$FLDB?$JF?$NL?$JB?$LG_?$JHD?$JA?f_?$JH?$KA?$FN?5?$AA@ 000000014006d140     ParamManager.obj
 0002:00009158       ??_C@_0BD@BNGDACEK@?0?$FLDB?$JF?$NL?$JB?$LG_?$JHD?$JA?f_?$JF?2?$FN?5?$AA@ 000000014006d158     ParamManager.obj
 0002:00009170       ??_C@_0O@LJBADOKK@?5?ar?$IO?mEdasysID?$AA@ 000000014006d170     ParamManager.obj
 0002:00009180       ??_C@_0O@LBFIAHNE@M_PALL_OUTPUT?$AA@ 000000014006d180     ParamManager.obj
 0002:00009190       ??_C@_0BE@NOAPEAGD@?5?$FLPLG?$IDp?$ID?$IL?$IDX?$ID?$IM?$IB?$FL?$IDg?$FN?5?$AA@ 000000014006d190     ParamManager.obj
 0002:000091b0       ??_C@_0FJ@PEODDEPF@?0?5?$IPd?$IM?$IH?$IK?W?$II?j?$JH?$JH?$IJ?f?$JG?J?$JF?2?$IO?$KG_?$IP?Z?$IN?W?$IP?p?$IM?$IP?0?5?$IP@ 000000014006d1b0     ParamManager.obj
 0002:00009210       ??_C@_0BI@BANFFJON@?0?$FLPLG?$IDp?$ID?$IL?$IDX?$ID?$IM?$IB?$FL?$IDg?$JF?2?$IO?$KG?$FN?5?$AA@ 000000014006d210     ParamManager.obj
 0002:00009228       ??_C@_0BI@BMINELEP@?0?$FLPLG?$IDp?$ID?$IL?$IDX?$ID?$IM?$IB?$FL?$IDg?$JE?d?$IKr?$FN?5?$AA@ 000000014006d228     ParamManager.obj
 0002:00009240       ??_C@_0BB@EKHADJII@?0?$FL?$JF?2?$JH?$KA?$IK?T?$IK?n?$IP?$IA?$JG?J?$FN?5?$AA@ 000000014006d240     ParamManager.obj
 0002:00009254       ??_C@_03IFLAPBFH@?00?5?$AA@ 000000014006d254     ParamManager.obj
 0002:00009258       ??_C@_0BB@FMPMKPBE@?0?$FLExSyncIntval?$FN?5?$AA@ 000000014006d258     ParamManager.obj
 0002:00009270       ??_C@_0P@NCCOOMCJ@?0?$FL?$JF?2?$JH?$KA?$IK?T?$IL?$JH?$JH?$KD?$FN?5?$AA@ 000000014006d270     ParamManager.obj
 0002:00009280       ??_C@_0P@CCAJFLHK@?0?$FLExSyncMinL?$FN?5?$AA@ 000000014006d280     ParamManager.obj
 0002:00009290       ??_C@_0P@KNGLMMCN@?0?$FLExSyncMinH?$FN?5?$AA@ 000000014006d290     ParamManager.obj
 0002:000092a0       ??_C@_0BE@OMDCHOLE@?0?$FL?$IDJ?$ID?$IB?$ID?$IJPLG?$JC?$PM?$JE?$HL?$JH?$KG?$FN?5?$AA@ 000000014006d2a0     ParamManager.obj
 0002:000092b8       ??_C@_0BH@DIOJNNMK@?0?$FL?$IKO?$JA?Z?$JC?$LH?$JF?$PL?$IM?$GA?$IC?L?$IPd?$IC?H?$IC?h?$FN?5?$AA@ 000000014006d2b8     ParamManager.obj
 0002:000092d0       ??_C@_0BG@NPHBPGMB@?0?$FL?$IDJ?$ID?$IB?$ID?$IJPLG?$JC?$PM?$JE?$HL?$JH?$KG_O?$FN?5?$AA@ 000000014006d2d0     ParamManager.obj
 0002:000092e8       ??_C@_0BE@NLABAONM@?0?$FL?$IDJ?$ID?$IB?$ID?$IJPLG?$JF?$KK?$IO?$PM?$JH?$KG?$FN?5?$AA@ 000000014006d2e8     ParamManager.obj
 0002:00009300       ??_C@_0BG@OANFEBDK@?0?$FL?$IDJ?$ID?$IB?$ID?$IJPLG?$JC?$PM?$JE?$HL?$JH?$KG_U?$FN?5?$AA@ 000000014006d300     ParamManager.obj
 0002:00009318       ??_C@_0BG@CCFAFBGB@?0?$FL?$IDJ?$ID?$IB?$ID?$IJPLG?$JF?$KK?$IO?$PM?$JH?$KG_O?$FN?5?$AA@ 000000014006d318     ParamManager.obj
 0002:00009330       ??_C@_0BG@FIGJCGFP@?0?$FL?$IDJ?$ID?$IB?$ID?$IJPLG?$JC?$PM?$JE?$HL?$JH?$KG_T?$FN?5?$AA@ 000000014006d330     ParamManager.obj
 0002:00009348       ??_C@_0BG@BNPEOGJK@?0?$FL?$IDJ?$ID?$IB?$ID?$IJPLG?$JF?$KK?$IO?$PM?$JH?$KG_U?$FN?5?$AA@ 000000014006d348     ParamManager.obj
 0002:00009360       ??_C@_0BF@PCHJDGIC@?0?$FLEdgeRestrictPort?$FN?5?$AA@ 000000014006d360     ParamManager.obj
 0002:00009378       ??_C@_0BG@KFEIIBPP@?0?$FL?$IDJ?$ID?$IB?$ID?$IJPLG?$JF?$KK?$IO?$PM?$JH?$KG_T?$FN?5?$AA@ 000000014006d378     ParamManager.obj
 0002:00009390       ??_C@_0BD@KALNEGCD@?0?$FLShFrameShrinkY?$FN?5?$AA@ 000000014006d390     ParamManager.obj
 0002:000093a8       ??_C@_0BD@BIABCBEG@?0?$FLShFrameShrinkX?$FN?5?$AA@ 000000014006d3a8     ParamManager.obj
 0002:000093c0       ??_C@_0L@JAHKFMC@?5?$FLcamset?$FN?5?$AA@ 000000014006d3c0     ParamManager.obj
 0002:000093d0       ??_C@_0N@MAAMCFDA@PARAM_CAMSET?$AA@ 000000014006d3d0     ParamManager.obj
 0002:000093e0       ??_C@_0M@NMKMIEHL@?0?$FLXoffset?$FN?5?$AA@ 000000014006d3e0     ParamManager.obj
 0002:000093f0       ??_C@_08JNMJIMKM@?0?$FLHres?$FN?5?$AA@ 000000014006d3f0     ParamManager.obj
 0002:00009400       ??_C@_0P@JBMCEDGP@?$FL?$CFs?5camset?$DN?$CFd?$FN?$AA@ 000000014006d400     ParamManager.obj
 0002:00009410       ??_C@_0BP@KGEGOJFP@?$FL?$CFs?$FN?5?$FL?$CFs?5?$IO?e?$IDL?$IB?$FL?$JFs?$JA?$LD?5camset?$DN?$CFd?$FN?$AA@ 000000014006d410     ParamManager.obj
 0002:00009430       ??_C@_09FDKGHJIL@?5?$FLscode?$FN?5?$AA@ 000000014006d430     ParamManager.obj
 0002:00009440       ??_C@_0M@BADJCEBH@PARAM_SCODE?$AA@ 000000014006d440     ParamManager.obj
 0002:00009450       ??_C@_0O@OFGDPGFB@?$FL?$CFs?5scode?$DN?$CFd?$FN?$AA@ 000000014006d450     ParamManager.obj
 0002:00009460       ??_C@_0BO@LJPCDGLK@?$FL?$CFs?$FN?5?$FL?$CFs?5?$IO?e?$IDL?$IB?$FL?$JFs?$JA?$LD?5scode?$DN?$CFd?$FN?$AA@ 000000014006d460     ParamManager.obj
 0002:00009480       ??_C@_0L@DBNDHAF@?0?$FLcamset?$FN?5?$AA@ 000000014006d480     ParamManager.obj
 0002:00009490       ??_C@_0BD@KPBMJJII@PARAM_CAMSET_SCODE?$AA@ 000000014006d490     ParamManager.obj
 0002:000094a8       ??_C@_0CI@MJPCBLEK@?$FL?$CFs?$FN?5?$FL?$CFs?5?$IO?e?$IDL?$IB?$FL?$JFs?$JA?$LD?5scode?$DN?$CFd?5cam@ 000000014006d4a8     ParamManager.obj
 0002:000094d0       ??_C@_0BC@OIKOMKOP@?0?$FLEdgeDetectCam?$FN?5?$AA@ 000000014006d4d0     ParamManager.obj
 0002:000094e8       ??_C@_0BD@NCDFIHPO@PARAM_CAMSET_ANGLE?$AA@ 000000014006d4e8     ParamManager.obj
 0002:00009500       ??_C@_0BI@LJGINJCI@?$FL?$CFs?5scode?$DN?$CFd?5camset?$DN?$CFd?$FN?$AA@ 000000014006d500     ParamManager.obj
 0002:00009518       ??_C@_0CL@DKIFBNHE@?$FL?$CFs?$FN?5?$FL?$CFs?5?$IO?e?$IDL?$IB?$FL?$JFs?$JA?$LD?5camset?$DN?$CFd?5ca@ 000000014006d518     ParamManager.obj
 0002:00009548       ??_C@_0N@CHMAFJEN@?5?$FLcamangle?$FN?5?$AA@ 000000014006d548     ParamManager.obj
 0002:00009558       ??_C@_0BJ@BMJIOKIP@PARAM_CAMSET_ANGLE_SCODE?$AA@ 000000014006d558     ParamManager.obj
 0002:00009578       ??_C@_0BL@JIMAMNNM@?$FL?$CFs?5camset?$DN?$CFd?5camangle?$DN?$CFd?$FN?$AA@ 000000014006d578     ParamManager.obj
 0002:00009598       ??_C@_0P@KMDKICCI@?0?$FLCameraGain?$FN?5?$AA@ 000000014006d598     ParamManager.obj
 0002:000095a8       ??_C@_0N@LNHKOALG@?0?$FLcamangle?$FN?5?$AA@ 000000014006d5a8     ParamManager.obj
 0002:000095b8       ??_C@_0CE@GANAIANA@?$FL?$CFs?5scode?$DN?$CFd?5camset?$DN?$CFd?5camangle?$DN@ 000000014006d5b8     ParamManager.obj
 0002:000095e0       ??_C@_0DE@HLFGDMAD@?$FL?$CFs?$FN?5?$FL?$CFs?5?$IO?e?$IDL?$IB?$FL?$JFs?$JA?$LD?5scode?$DN?$CFd?5cam@ 000000014006d5e0     ParamManager.obj
 0002:00009620       ??_C@_0JB@LDFCMEOE@SELECT?5distinct?5m?4GroupNo?0?5?$CISELE@ 000000014006d620     ParamManager.obj
 0002:000096b8       ??_C@_08JAEMHIPK@M_PC_INF?$AA@ 000000014006d6b8     ParamManager.obj
 0002:000096c8       ??_C@_0DK@DMCPFDNE@SELECT?5COUNT?$CI?$CK?$CJ?5FROM?5?$CFs?5WHERE?5Gr@ 000000014006d6c8     ParamManager.obj
 0002:00009708       ??_C@_0BI@JBPMLCBB@?$FL?$CFs?$FN?5?$CFs?5GroupNo?$DN?$CFd?5?$II?Y?$IP?m?$AA@ 000000014006d708     ParamManager.obj
 0002:00009728       ??_7?$ThreadQueue@UCOMMON_QUE@@@KizuLib@@6B@ 000000014006d728     ParamManager.obj
 0002:00009738       ??_7ParamManager@@6B@      000000014006d738     ParamManager.obj
 0002:00009770       ??_C@_06CMINOLHL@PlgMgr?$AA@ 000000014006d770     PlgManager.obj
 0002:00009778       ??_C@_08BGNCOPHI@?$IDX?$ID?$FO?$IB?$FL?$IDg?$AA@ 000000014006d778     PlgManager.obj
 0002:00009788       ??_C@_0N@GPNIBAIC@PLG?$ID?$IN?$IDO_?$IM?$JP?$IN?$LI?$AA@ 000000014006d788     PlgManager.obj
 0002:00009798       ??_C@_0O@DKJGGELD@MAXLEN_KEN_ID?$AA@ 000000014006d798     PlgManager.obj
 0002:000097a8       ??_C@_0N@LANHCFBP@PLG?$ID?$IN?$IDO_?$JF?2?$IO?$KG?$AA@ 000000014006d7a8     PlgManager.obj
 0002:000097b8       ??_C@_0BL@DEFFJAAL@?$FL?$CFs?$FN?5UDP?5?$IP?$IA?$JE?u?$JC?$IG?$IBE?$IBE?$IBE?5?$FL?$CFd?$FN?$AA@ 000000014006d7b8     PlgManager.obj
 0002:000097d8       ??_C@_0O@MGIBNMDP@MAXLEN_DSP_ID?$AA@ 000000014006d7d8     PlgManager.obj
 0002:000097f0       ??_C@_0OE@KBGEOOBO@?0UDP?5FNo?0?$JF?2?$FLm?$FN?0?$JH?$KA?$FLm?$FN?0?$JF?2?$IOc?$FLm?$FN?0?$JH?$KA?$IO@ 000000014006d7f0     PlgManager.obj
 0002:000098d8       ??_C@_0DM@GEAPCKOB@?$DN?$DN?$DN?$DN?$DN?$DN?$DN?$DN?$DN?$DN?$DN?$DN?$DN?$DN?$DN?$DN?$DN?$DN?$DN?$DN?$DN?$DN?$DN?$DN?$DN?$DN?$DN?$DN?$DN?$DN?$DN?$DN@ 000000014006d8d8     PlgManager.obj
 0002:00009920       ??_C@_0GA@EPGELLJL@?0?$JF?2?$IO?$KG?$IK?n?$JD_?$FLm?$FN?0?$JF?2?$IM?$JP?$IN?$LI?$JB?d?$FLm?$FN?0?$JH?$KA?$IM?$JP?$IN?$LI?$JB@ 000000014006d920     PlgManager.obj
 0002:00009980       ??_C@_0P@KGGDDEDF@?$CFs?$JEF?$IO?$KP?0?5?$CFs?$JEF?$IO?$KP?$AA@ 000000014006d980     PlgManager.obj
 0002:00009990       ??_C@_04LPHDJNDG@?$JHL?$IM?x?$AA@ 000000014006d990     PlgManager.obj
 0002:00009998       ??_C@_04FMBGLCHH@?$JG?$LD?$IM?x?$AA@ 000000014006d998     PlgManager.obj
 0002:000099a0       ??_C@_0CA@HLIJHDPK@?$FL?$CFs?$FN?5?$IDJ?$IDE?$ID?$JD?$IDg?$JCl?$IP?$IJ?$IK?z?$JCl?$IO?f?$JD?$LO?$IB?$EA?$FL?$CFd?$FN?$AA@ 000000014006d9a0     PlgManager.obj
 0002:000099c0       ??_C@_0CB@NAHCGMNK@?$FL?$CFs?$FN?5?$CFs?$JEF?$IO?$KP?0?5?$CFs?$JEF?$IO?$KP?0?5?$JF?2?$IO?$KGPLG?$IBF?$CFs@ 000000014006d9c0     PlgManager.obj
 0002:000099e8       ??_C@_0BE@FPALEACG@?$FLFno?$CI?$IO?$KJ?3seq?$CJ?$CFd?$CB?$DN?$CFd?$FN?$AA@ 000000014006d9e8     PlgManager.obj
 0002:00009a00       ??_C@_0DD@CPLBPHDP@?$FL?$CFs?$FN?5?$IDV?$IB?$FL?$IDP?$ID?$JD?$IDT?5?$IDt?$ID?$IM?$IB?$FL?$ID?$IA?$JD?$GA?$JF?$LG?$II?Y?$IP?m@ 000000014006da00     PlgManager.obj
 0002:00009a38       ??_C@_0DD@OBKEGFMG@?$FL?$CFs?$FN?5?$DM?$CFs?$DO?5?$JCx?$IJ?$IE?$IO?$MA?$INs?$IDL?$IB?$FL?$IO?$MA?$INs?$DN?$CFd?5Fr@ 000000014006da38     PlgManager.obj
 0002:00009a70       ??_C@_0DF@ENNGCLDD@?$FL?$CFs?$FN?5?$DM?$CFs?$DO?5?$IL?$IM?$JCx?$IJ?$IE?$IO?$MA?$INs?$IDL?$IB?$FL?$IO?$MA?$INs?$DN?$CFd?5@ 000000014006da70     PlgManager.obj
 0002:00009ab0       ??_C@_0EI@FNGLEIIG@?$FL?$CFs?$FN?5?$DM?$CFs?$DO?5?$IDC?$IDj?$IDV?$ID?$ID?$ID?$IL?$JD?$GA?$JF?$LG?$IO?s?$JAM?$IC?I?$IC?f@ 000000014006dab0     PlgManager.obj
 0002:00009af8       ??_C@_0DK@GEFDFCGG@?$FL?$CFs?$FN?5?$DM?$CFs?$DO?5?$IPo?$JB?$KE?$JF?$KI?$JH?$JN?$IDR?$IDC?$ID?$IL?5?$IDt?$ID?$EA?$IB?$FL?$ID@ 000000014006daf8     PlgManager.obj
 0002:00009b38       ??_C@_0BM@NDFCPPGC@?$FL?$IM?$JP?$IN?$LI?$JHp?$IDR?$IDC?$ID?$IL?3?5?$IDR?$IDC?$ID?$ILNo?$DN?$CFs?$FN?$AA@ 000000014006db38     PlgManager.obj
 0002:00009b58       ??_C@_0CK@OOLCONNG@?$FL?$CFs?$FN?5?$IM?$JP?$IN?$LI?$JHp?$IDR?$IDC?$ID?$IL?$JC?$LH?$IP?c?$IM?$MA?$JD?$JO?$JCB?5?$FL?$IDR?$ID@ 000000014006db58     PlgManager.obj
 0002:00009b90       ??_C@_0EM@BLFBHGM@?$FLPlgManager?$FN?5?$JF?2?$IO?$KG?$IL?$JH?$JH?$KD?$IN?$LH?$II?Y?$IP?m?$FL?$IN?$LH?$IBF@ 000000014006db90     PlgManager.obj
 0002:00009be0       ??_C@_0FH@DAFPHPFE@?0?$CF06d?0?5?$CF?43f?0?5?$CF?43f?0?5?$CF?43f?0?5?$CF?43f?0?$CFd@ 000000014006dbe0     PlgManager.obj
 0002:00009c40       ??_C@_0EG@NCOMAICK@?$FLPlgManager?$FN?5?$ILt?$JD?$FN?$JB?$IA?$IL?F?$FL?$IN?$LH?$IBF?$CFd?$FN?$FLDM@ 000000014006dc40     PlgManager.obj
 0002:00009c88       ??_C@_0DB@ODBFAEHG@?$FL?$IN?$LH?$IBF?$CFd?$FN?$FLDM?3?$CFlu?$IB?$KI?$CFlu?$FN?$FL?$CF?43lfmm?$FN?$FLm@ 000000014006dc88     PlgManager.obj
 0002:00009cc0       ??_C@_0DJ@OFFLPNPI@?$FLPlgManager?$FN?5?$IDV?$ID?$ID?$IB?$FL?$II?J?$JCu?5?$IDR?$IDC?$ID?$IL?$JA?X@ 000000014006dcc0     PlgManager.obj
 0002:00009d00       ??_C@_0DM@JOHNMKHA@?$FL?$CFs?$FN?5?$JF?2?$IO?$KG?$IL?$JH?$JH?$KD?$IK?G?$JH?$JN?$FL?$CFd?$FN?5?$IDR?$IDC?$ID?$IL?$JA?X?$IC?h@ 000000014006dd00     PlgManager.obj
 0002:00009d40       ??_C@_0BM@GNNGHMKA@?$FL?$JF?2?$IO?$KG?$JHp?$IDR?$IDC?$ID?$IL?3?5?$IDR?$IDC?$ID?$ILNo?$DN?$CFs?$FN?$AA@ 000000014006dd40     PlgManager.obj
 0002:00009d60       ??_C@_0CK@GKBLLABN@?$FL?$CFs?$FN?5?$JF?2?$IO?$KG?$JHp?$IDR?$IDC?$ID?$IL?$JC?$LH?$IP?c?$IM?$MA?$JD?$JO?$JCB?5?$FL?$IDR?$ID@ 000000014006dd60     PlgManager.obj
 0002:00009d90       ??_C@_0DF@ELAAHLJK@?$FL?$CFs?$FN?5?$IK?n?$IP?$IA?$JG?J?$IM?$JP?$IN?$LI?$II?J?$JCu?5?$IDR?$IDC?$ID?$IL?$JA?X?$IC?h?$JB?V@ 000000014006dd90     PlgManager.obj
 0002:00009dc8       ??_C@_0DE@DADJOONO@?0?5?$CF?43f?0?5?$CF?43f?0?5?$CF?43f?0?5?$CF?43f?0?5?$CF?43f?0?$CF@ 000000014006ddc8     PlgManager.obj
 0002:00009e00       ??_C@_0BA@GNLGIIKN@?$FL?$IM?$JP?$IN?$LI?$JHp?$DN?$CFf?$IB?$KI?$CFf?$FN?$AA@ 000000014006de00     PlgManager.obj
 0002:00009e10       ??_C@_0CD@HEMDCLFP@?$FL?$CFs?$FN?5?$IM?$JP?$IN?$LI?$JHp?$IDp?$ID?$IL?$IDX?$ID?$IM?$IB?$FL?$IDg?$JF?O?$INX?5?$CFf?$IB?$KI@ 000000014006de10     PlgManager.obj
 0002:00009e38       ??_C@_0BE@GIOBEPMK@?$FL?$IM?$JP?$IN?$LI?$JE?d?$IKr?$JHp?$DN?$CFf?$IB?$KI?$CFf?$FN?$AA@ 000000014006de38     PlgManager.obj
 0002:00009e50       ??_C@_0CH@COLKDGGH@?$FL?$CFs?$FN?5?$IM?$JP?$IN?$LI?$JE?d?$IKr?$JHp?$IDp?$ID?$IL?$IDX?$ID?$IM?$IB?$FL?$IDg?$JF?O?$INX?5@ 000000014006de50     PlgManager.obj
 0002:00009e78       ??_C@_0DE@PFBHAMCN@?$FL?$CFs?$FN?5?$JF?2?$IO?$KG?$II?J?$JCu?$FL?$CFd?$FN?5?$II?J?$JCu?$IC?L?$IL?$JH?$JH?$KD?$JF?O?$INX@ 000000014006de78     PlgManager.obj
 0002:00009eb0       ??_C@_0GO@EALMMDMG@?$FL?$CFs?$FN?5?$JB?$LM?$JF?$PL?$JG?J?$CI?$CFd?$CJ?5?$IM?$JP?$IN?$LI?$II?J?$JCu?5?$IDR?$IDC?$ID?$IL?$JA@ 000000014006deb0     PlgManager.obj
 0002:00009f20       ??_C@_0BA@LJOOGPGJ@?$FL?$JF?2?$IO?$KG?$JHp?$DN?$CFf?$IB?$KI?$CFf?$FN?$AA@ 000000014006df20     PlgManager.obj
 0002:00009f30       ??_C@_0CD@BMJDOFHO@?$FL?$CFs?$FN?5?$JF?2?$IO?$KG?$JHp?$IDp?$ID?$IL?$IDX?$ID?$IM?$IB?$FL?$IDg?$JF?O?$INX?5?$CFf?$IB?$KI@ 000000014006df30     PlgManager.obj
 0002:00009f60       ??_7PlgManager@@6B@        000000014006df60     PlgManager.obj
 0002:00009fa0       ??_7?$ThreadQueue@USEQ_TYPE_DATA_FRAME@@@KizuLib@@6B@ 000000014006dfa0     SeqFrameRecv.obj
 0002:00009fb0       ??_7SeqFrameRecv@@6B@      000000014006dfb0     SeqFrameRecv.obj
 0002:00009fe8       ??_C@_09PCOGFEJA@SeqFrameR?$AA@ 000000014006dfe8     SeqFrameRecv.obj
 0002:00009ff8       ??_C@_0L@MEHPJFIH@UDP_SEQ_ID?$AA@ 000000014006dff8     SeqFrameRecv.obj
 0002:0000a008       ??_C@_0BO@IFLEMNMM@?$FL?$CFs?$FN?5?$IDw?$ID?$IL?$IDV?$IB?$FL?$IK?D?$IO?$IL?$ID?$FO?$IDC?$ID?$IA?$IDA?$IDE?$IDg?$AA@ 000000014006e008     SeqFrameRecv.obj
 0002:0000a028       ??_C@_0CG@BEKHGBII@?$FL?$CFs?$FN?5WSAGetOverlappedResult?5?$IO?$LI?$JEs@ 000000014006e028     SeqFrameRecv.obj
 0002:0000a050       ??_C@_0BK@CBINAMJI@?$FL?$CFs?$FN?5?$IDw?$ID?$IL?$IDV?$IB?$FL?$IK?D?$IO?$IL?$JA?$LD?$IP?m?$JF?$JM?$ILA?$AA@ 000000014006e050     SeqFrameRecv.obj
 0002:0000a070       ??_C@_0BG@MHICHLOF@?$FL?$CFs?$FN?5?$IL?$KN?$JA?$KHWPD?$JEF?$IO?$KP?5F?$DN?$CFd?$AA@ 000000014006e070     SeqFrameRecv.obj
 0002:0000a088       ??_C@_0CE@EPLKBJJK@?$FL?$CFs?$FN?5TC?$II?Y?$IP?m?$JD?$GA?$JF?$LG?$IO?s?$JAM?5?$FLtc?$DN?$CFd?5size?$DN@ 000000014006e088     SeqFrameRecv.obj
 0002:0000a0b0       ??_C@_0EM@BNEIPNPK@?$FL?$CFs?$FN?5F?$DN?$CFlu?5PLG?$IN?$LH?$DN?$CFlu?5tm?$IN?$LH?$DN?$CFlu?5LV@ 000000014006e0b0     SeqFrameRecv.obj
 0002:0000a100       ??_C@_0DC@ICLGMPEB@?$FL?$CFs?$FN?5?9?9?9?9?5F?$DN?$CFd?5?9?9?9?9?9?9?9?9?9?9?9?9?9?9?9?9?9@ 000000014006e100     SeqFrameRecv.obj
 0002:0000a138       ??_C@_0CJ@EIBKJJKB@?$FL?$CFs?$FN?5?$JAV?$ILK?$IDt?$ID?$IM?$IB?$FL?$ID?$IA?$IP?n?$JF?q?$JDo?$JI?$FO?$IDL?$ID?$IF?$IB?$FL?$ID@ 000000014006e138     SeqFrameRecv.obj
 0002:0000a168       ??_C@_0BM@OEDGAFHB@?$FL?$JAV?$ILK?$IDt?$ID?$IM?$IB?$FL?$ID?$IA?$IP?n?$JF?q?$JDo?$JI?$FO?5F?$DN?$CFd?$FN?$AA@ 000000014006e168     SeqFrameRecv.obj
 0002:0000a188       ??_C@_0BM@EPILKBBK@?$FL?$CFs?0?$IDw?$IDb?$ID_?$IB?$FL?$JF?$JE?5err_code?$DN?$CFd?$FN?$AA@ 000000014006e188     SeqFrameRecv.obj
 0002:0000a1a8       ??_C@_0CM@KFFACAK@?$FL?$CFs?$FN?$ID?2?$IDP?$IDb?$IDg?5?$IDw?$IDb?$ID_?$IB?$FL?$JF?$JE?$IO?s?$JAM?$IO?$LI?$JEs?5@ 000000014006e1a8     SeqFrameRecv.obj
 0002:0000a1d8       ??_C@_0CG@BBJAMBJA@?$FL?$CFs?$FN?5?$JG?$KC?$JB?$JH?$JAM?$IDL?$ID?$IF?$IB?$FL?$IKJ?$JF?z?$CB?5Que?$DN?$CFd?0?5M@ 000000014006e1d8     SeqFrameRecv.obj
 0002:0000a200       ??_C@_0BC@NBMJGLEI@?$FL?$CFs?$FN?5?$II?Y?$IP?m?$JC?J?$JCm?$CI?$CFd?$CJ?$AA@ 000000014006e200     SeqFrameRecv.obj
 0002:0000a218       ??_C@_08CGKBJOED@SListBox?$AA@ 000000014006e218     SListBox.obj
 0002:0000a2a8       ??_7CButton@@6B@           000000014006e2a8     SListBox.obj
 0002:0000a598       ??_7CGdiObject@@6B@        000000014006e598     SListBox.obj
 0002:0000a5c0       ??_C@_0FC@GDLBCMAA@C?3?2Program?5Files?5?$CIx86?$CJ?2Microsoft@ 000000014006e5c0     SListBox.obj
 0002:0000a618       ??_C@_0BB@HBOOMJBF@?$CFTs?5?$CI?$CFTs?3?$CFd?$CJ?6?$CFTs?$AA@ 000000014006e618     SListBox.obj
 0002:0000a630       ??_C@_0N@OMEMOKLE@?$CFTs?5?$CI?$CFTs?3?$CFd?$CJ?$AA@ 000000014006e630     SListBox.obj
 0002:0000a640       ??_C@_0BP@OIEOKIDM@Exception?5thrown?5in?5destructor?$AA@ 000000014006e640     SListBox.obj
 0002:0000a668       ??_7CFont@@6B@             000000014006e668     SListBox.obj
 0002:0000a698       ??_7SListBox@@6B@          000000014006e698     SListBox.obj
 0002:0000a980       ??_7CListCtrl@@6B@         000000014006e980     SListBox.obj
 0002:0000ac60       ?classSListBox@SListBox@@2UCRuntimeClass@@B 000000014006ec60     SListBox.obj
 0002:0000ac90       ??_C@_0BC@IBNAJOAO@UpToDown_SLOW_MPM?$AA@ 000000014006ec90     SogyoManager.obj
 0002:0000aca8       ??_C@_09PCNNLJBP@SogyolMgr?$AA@ 000000014006eca8     SogyoManager.obj
 0002:0000acb8       ??_C@_0BC@DDILIECI@UpToDown_STOP_MPM?$AA@ 000000014006ecb8     SogyoManager.obj
 0002:0000acd0       ??_C@_0BC@OMLHMOFP@UpToDown_SLOW_CNT?$AA@ 000000014006ecd0     SogyoManager.obj
 0002:0000ace8       ??_C@_0BC@HIMGFMPO@DownToUp_SLOW_MPM?$AA@ 000000014006ece8     SogyoManager.obj
 0002:0000ad00       ??_C@_0BC@FOOMNEHJ@UpToDown_STOP_CNT?$AA@ 000000014006ed00     SogyoManager.obj
 0002:0000ad18       ??_C@_0BB@BNLKODKJ@DownToUp_RUN_MPM?$AA@ 000000014006ed18     SogyoManager.obj
 0002:0000ad30       ??_C@_0BC@BFKBAMKP@DownToUp_SLOW_CNT?$AA@ 000000014006ed30     SogyoManager.obj
 0002:0000ad48       ??_C@_0P@JMGLBINO@CHECK_INTERVAL?$AA@ 000000014006ed48     SogyoManager.obj
 0002:0000ad58       ??_C@_0BB@HANNLDPI@DownToUp_RUN_CNT?$AA@ 000000014006ed58     SogyoManager.obj
 0002:0000ad70       ??_C@_0CH@JBDNLAJC@?$FL?$CFs?$FN?5?$JF?2?$IO?$KG?$JB?$KM?$JDx?$DN?$CFd?0?5samp?$DN?$CFd?1?$CFd?0?5ti@ 000000014006ed70     SogyoManager.obj
 0002:0000ad98       ??_C@_0CH@OLFAHHLN@?$FL?$CFs?$FN?5?$IM?$JP?$IN?$LI?$JB?$KM?$JDx?$DN?$CFd?0?5samp?$DN?$CFd?1?$CFd?0?5ti@ 000000014006ed98     SogyoManager.obj
 0002:0000adc8       ??_7SogyoManager@@6B@      000000014006edc8     SogyoManager.obj
 0002:0000ae00       ??_C@_09DLANCMFK@StatusMgr?$AA@ 000000014006ee00     StatusBaseManager.obj
 0002:0000ae10       ??_C@_0M@CGHJIGAE@?$CFs?5?$JBO?$IJ?q?$DM?$CFs?$DO?$AA@ 000000014006ee10     StatusBaseManager.obj
 0002:0000ae20       ??_C@_0CA@CILFCCNC@?$FL?$CFs?$FN?5?$CFs?5?$IM?$JP?$IN?$LI?$IP?s?$JB?T?$JF?O?$INX?5?$FL?$CFs?5?$IB?$KI?5?$CFs?$FN?$AA@ 000000014006ee20     StatusBaseManager.obj
 0002:0000ae40       ??_C@_04HDOCAJNK@?$CFs?$CFs?$AA@ 000000014006ee40     StatusBaseManager.obj
 0002:0000ae48       ??_C@_09FCBIDELD@?5?$CI?$CFs?$CJ?$CI?$CFs?$CJ?$AA@ 000000014006ee48     StatusBaseManager.obj
 0002:0000ae58       ??_C@_0P@IKAKFGMH@?$FL?$DM?$CFs?$DO?5?$IB?K?5?$DM?$CFs?$DO?$FN?$AA@ 000000014006ee58     StatusBaseManager.obj
 0002:0000ae68       ??_C@_0CA@DHHOIFEJ@?$FL?$CFs?$FN?5?$CFs?5?$IL?$EA?$IK?m?$IP?s?$JB?T?$JF?O?$INX?5?$FL?$CFs?5?$IB?$KI?5?$CFs?$FN?$AA@ 000000014006ee68     StatusBaseManager.obj
 0002:0000ae88       ??_C@_0L@CCANEPOM@?$FL?$JH?$LM?$JG?J?$IM?$JP?$IN?$LI?$FN?$AA@ 000000014006ee88     StatusBaseManager.obj
 0002:0000ae98       ??_C@_0CE@HMOJNAPL@?$DM?$DM?$JF?P?$JG?J?$IM?$JP?$IN?$LI?$JHL?$JG?$LD?$JF?O?$INX?$DO?$DO?5?$FL?$DM?$CFs?$DO?5?$IB?K?5?$DM?$CF@ 000000014006ee98     StatusBaseManager.obj
 0002:0000aec0       ??_C@_0P@MMLBJBMC@?$FL?$JF?2?$JG?J?$IC?L?$IC?$NN?$IM?$JP?$IN?$LI?$FN?$AA@ 000000014006eec0     StatusBaseManager.obj
 0002:0000aed0       ??_C@_0BO@JOOPKAHE@?$DM?$DM?$IM?$JP?$IN?$LI?$JG?J?$IP?s?$JB?T?$JF?O?$INX?$DO?$DO?5?$FL?$JH?$LM?$JG?J?$IM?$JP?$IN?$LI?$FN?$AA@ 000000014006eed0     StatusBaseManager.obj
 0002:0000aef0       ??_C@_0P@KNPLLFAH@?$FL?$JH?$KA?$JG?J?$IC?L?$IC?$NN?$IM?$JP?$IN?$LI?$FN?$AA@ 000000014006eef0     StatusBaseManager.obj
 0002:0000af00       ??_C@_0CC@LIGEKBNN@?$DM?$DM?$IM?$JP?$IN?$LI?$JG?J?$IP?s?$JB?T?$JF?O?$INX?$DO?$DO?5?$FL?$JF?2?$JG?J?$IC?L?$IC?$NN?$IM?$JP?$IN?$LI@ 000000014006ef00     StatusBaseManager.obj
 0002:0000af28       ??_C@_0P@FKDOPNPH@DIV_PLGMODE_ID?$AA@ 000000014006ef28     StatusBaseManager.obj
 0002:0000af38       ??_C@_0CC@NJCOIFBI@?$DM?$DM?$IM?$JP?$IN?$LI?$JG?J?$IP?s?$JB?T?$JF?O?$INX?$DO?$DO?5?$FL?$JH?$KA?$JG?J?$IC?L?$IC?$NN?$IM?$JP?$IN?$LI@ 000000014006ef38     StatusBaseManager.obj
 0002:0000af60       ??_C@_0N@OLEPECIM@DIV_UNTEN_ID?$AA@ 000000014006ef60     StatusBaseManager.obj
 0002:0000af70       ??_C@_0BP@IBBDPACF@?$DM?$DMPLG?$IL?f?$JF?$KK?$JF?O?$INX?$DO?$DO?5?$FL?$DM?$CFs?$DO?5?$IB?K?5?$DM?$CFs?$DO?$FN?$AA@ 000000014006ef70     StatusBaseManager.obj
 0002:0000af90       ??_C@_0N@ELLNFGJL@DIV_SOGYO_ID?$AA@ 000000014006ef90     StatusBaseManager.obj
 0002:0000afa0       ??_C@_0CA@FMIHFJKO@?$DM?$DM?$IJ?$FO?$JD?$FN?$IP?s?$JB?T?$JF?O?$INX?$DO?$DO?5?$FL?$DM?$CFs?$DO?5?$IB?K?5?$DM?$CFs?$DO?$FN?$AA@ 000000014006efa0     StatusBaseManager.obj
 0002:0000afc0       ??_C@_0DD@BOLLDGFF@?$DM?$DM?$JB?$IA?$IL?F?$IP?s?$JB?T?$JF?O?$INX?$DO?$DO?5?$FL?$DM?$CFs?$DO?5?$IB?K?5?$DM?$CFs?$DO?$FN?5@ 000000014006efc0     StatusBaseManager.obj
 0002:0000aff8       ??_C@_0CC@LMBJPIMD@?$FL?$DM?$CFs?$DO?5?$IB?K?5?$DM?$CFs?$DO?$FN?5?$CI?$ID?$IJ?$IDC?$ID?$JD?$JB?$KM?$JDx?$DN?$CFdmpm@ 000000014006eff8     StatusBaseManager.obj
 0002:0000b020       ??_C@_0N@IHBINAPI@DIV_KADOU_ID?$AA@ 000000014006f020     StatusBaseManager.obj
 0002:0000b030       ??_C@_0DJ@FDKAGKKC@?$DM?$DM?$JF?2?$IO?$KG?$JHp?$JB?$IA?$IL?F?$IP?s?$JB?T?$JF?O?$INX?$DO?$DO?5?$FL?$DM?$CFs?$DO?5?$IB?K?5@ 000000014006f030     StatusBaseManager.obj
 0002:0000b070       ??_C@_0BC@IEFNICON@?$FL?$CFs?3?$DM?$CFs?$DO?5?$IB?K?5?$DM?$CFs?$DO?$FN?$AA@ 000000014006f070     StatusBaseManager.obj
 0002:0000b088       ??_C@_0CA@CFMLKIDB@?$DM?$DM?$IJ?R?$JD?$KO?$IP?s?$JB?T?$JF?O?$INX?$DO?$DO?5?$FL?$DM?$CFs?$DO?5?$IB?K?5?$DM?$CFs?$DO?$FN?$AA@ 000000014006f088     StatusBaseManager.obj
 0002:0000b0a8       ??_C@_0CH@PHLOKCBD@?$DM?$DM?$IDV?$IDX?$IDe?$ID?$IA?$IP?s?$JB?T?$JF?O?$INX?$DO?$DO?5?$FL?$CFs?3?$DM?$CFs?$DO?5?$IB?K@ 000000014006f0a8     StatusBaseManager.obj
 0002:0000b0d0       ??_C@_0DN@IIJACJLI@?$DM?$DM?$IDp?$ID?$IJ?$ID?$IJ?$ID?$JD?$IL?$EA?$JE?2?$IDV?$IDX?$IDe?$ID?$IA?$IP?s?$JB?T?$JF?O?$INX?$DO?$DO@ 000000014006f0d0     StatusBaseManager.obj
 0002:0000b110       ??_C@_0BM@NNGMMLEL@?$FL?$IDp?$ID?$IJ?$ID?$IJ?$ID?$JDPC?$CFd?3?$DM?$CFs?$DO?5?$IB?K?5?$DM?$CFs?$DO?$FN?$AA@ 000000014006f110     StatusBaseManager.obj
 0002:0000b130       ??_C@_0N@DKNNNHDG@?$FL?$IM?$JP?$IN?$LI?$JC?$IG?$II?Y?$IP?m?$FN?$AA@ 000000014006f130     StatusBaseManager.obj
 0002:0000b140       ??_C@_0BK@OJPKEBDA@?$FL?$CFs?$FN?5?$IM?$JP?$IN?$LI?$JC?$IG?$II?Y?$IP?m?$IDL?$ID?$IF?$IB?$FL?$IDt?$ID?$IL?$AA@ 000000014006f140     StatusBaseManager.obj
 0002:0000b168       ??_7?$ThreadQueue@UTYP_MY_ERRWAR_INF@StatusBaseManager@@@KizuLib@@6B@ 000000014006f168     StatusBaseManager.obj
 0002:0000b178       ??_7StatusBaseManager@@6B@ 000000014006f178     StatusBaseManager.obj
 0002:0000b1e0       ??_7StatusLogFunc@@6B@     000000014006f1e0     StatusLogFunc.obj
 0002:0000b1e8       ??_C@_08EAIKCCAH@StatFunc?$AA@ 000000014006f1e8     StatusLogFunc.obj
 0002:0000b1f8       ??_C@_07FBMOPOOO@SESSION?$AA@ 000000014006f1f8     StatusLogFunc.obj
 0002:0000b200       ??_C@_0N@LKNIAFHA@?4?2KizuPc?4ini?$AA@ 000000014006f200     StatusLogFunc.obj
 0002:0000b210       ??_C@_0EB@IOBBOHEE@SELECT?5TOP?$CI1?$CJ?5AutoNo?5FROM?5?$CFs?5ORD@ 000000014006f210     StatusLogFunc.obj
 0002:0000b258       ??_C@_0L@DNKNNOMN@ODBCSET_?$CFd?$AA@ 000000014006f258     StatusLogFunc.obj
 0002:0000b270       ??_C@_0EB@IOAFEMNK@?$FL?$CFs?$FN?5?$IDI?$IB?$FL?$IDgNo?5?$IN?E?$JAV?$JCl?5DB?$IC?LAutoNo?$DN@ 000000014006f270     StatusLogFunc.obj
 0002:0000b2b8       ??_C@_0CC@FGJOJOFG@?$FL?$CFs?$FN?5?$IDI?$IB?$FL?$IDgNo?5?$IN?E?$JAV?$JCl?5?$IO?f?$JD?$LO?$IO?$LI?$JEs?$IBI?$IB@ 000000014006f2b8     StatusLogFunc.obj
 0002:0000b2e0       ??_C@_0CA@DJNJMBA@?$FL?$CFs?$FN?5?$JF?O?$IJ?$LL?$FL?$CFs?$FN?$FL?$CFs?$FN?$FL?$CFs?1?$CFs?$FN?$FL?$CFs?1?$CFs?$FN?$AA@ 000000014006f2e0     StatusLogFunc.obj
 0002:0000b300       ??_C@_0CF@GOCPGGIG@?$FL?$CFs?$FN?5?$IDI?$IB?$FL?$IDgNo?$ID?$IK?$IDZ?$IDb?$IDg?5?$JF?O?$INX?$JD?z?$FL?$CFd?$IB@ 000000014006f300     StatusLogFunc.obj
 0002:0000b328       ??_C@_0BE@FPHNPFLJ@?$FLDBDATA_STATUS_LOG?$FN?$AA@ 000000014006f328     StatusLogFunc.obj
 0002:0000b340       ??_C@_0CO@PCGKHJJI@?$FL?$CFs?$FN?5DB?$JDo?$JI?$FO?$II?K?$JH?$IK?$IDL?$ID?$IF?$IB?$FL?$IDt?$ID?$IL?5?$FLDBDAT@ 000000014006f340     StatusLogFunc.obj
 0002:0000b370       ??_C@_0O@MJCNBFD@?$JE?$LL?$JC?h?$IDO?$ID?$IL?$IB?$FL?$IDv2?$AA@ 000000014006f370     StatusManager.obj
 0002:0000b380       ??_C@_0O@CHLPICJA@?$JE?$LL?$JC?h?$IDO?$ID?$IL?$IB?$FL?$IDv1?$AA@ 000000014006f380     StatusManager.obj
 0002:0000b390       ??_C@_0O@FKMIHGNF@?$JE?$LL?$JC?h?$IDO?$ID?$IL?$IB?$FL?$IDv4?$AA@ 000000014006f390     StatusManager.obj
 0002:0000b3a0       ??_C@_0O@BFIJOABC@?$JE?$LL?$JC?h?$IDO?$ID?$IL?$IB?$FL?$IDv3?$AA@ 000000014006f3a0     StatusManager.obj
 0002:0000b3b0       ??_C@_0N@GPLGMPJO@?$IDo?$IDb?$IDN?$IDA?$IDb?$IDv?$AA@ 000000014006f3b0     StatusManager.obj
 0002:0000b3c0       ??_C@_0BB@DOJOEJBM@?$IDp?$ID?$IJ?$ID?$IJ?$ID?$JD?$IDO?$ID?$IL?$IB?$FL?$IDv?$AA@ 000000014006f3c0     StatusManager.obj
 0002:0000b3d8       ??_C@_0BD@FMLEIOJP@LED_DAISYA_OFFTIME?$AA@ 000000014006f3d8     StatusManager.obj
 0002:0000b3f0       ??_C@_0BF@HGENBBJI@LED_LINESTOP_OFFTIME?$AA@ 000000014006f3f0     StatusManager.obj
 0002:0000b408       ??_C@_01JOAMLHOP@?9?$AA@   000000014006f408     StatusManager.obj
 0002:0000b410       ??_C@_0CM@LFMAPEHN@?$FL?$CFs?$FN?5?$CFs?5LED?$IP?F?$JG?$LO?$JB?$JF?$JCu?5?$ID?$IJ?$IDC?$ID?$JD?$IJ?R?$JD?$KO?$JC?$IG@ 000000014006f410     StatusManager.obj
 0002:0000b440       ??_C@_0EC@LDEAINGK@?$FLStatusManager?$FN?5?$CFs?5?$ID?$IJ?$IDC?$ID?$JD?$IJ?R?$JD?$KO?$IO?$JO?$IC@ 000000014006f440     StatusManager.obj
 0002:0000b488       ??_C@_0L@FPFMPDDA@0123456789?$AA@ 000000014006f488     StatusManager.obj
 0002:0000b498       ??_C@_0CN@IPMKMMMO@?$FLStatusManager?$FN?5?$CFs?5LED?$IP?F?$JG?$LO?$JB?$JF?$JCu?5?$IP@ 000000014006f498     StatusManager.obj
 0002:0000b4d0       ??_C@_0EA@HCKPCHLB@?$FLStatusManager?$FN?5?$CFs?5?$IDJ?$ID?$IB?$ID?$IJ?$JB?d?$IO?T?$IC?$KK?$ID@ 000000014006f4d0     StatusManager.obj
 0002:0000b510       ??_C@_0CF@FCJFPNKM@?$DMCoilMgr?$DO?5?$IDR?$IDC?$ID?$IL?$IP?n?$JF?q?$JDo?$JI?$FO?$IO?$JO?$IDL?$ID?$IF?$IB?$FL@ 000000014006f510     StatusManager.obj
 0002:0000b538       ??_C@_0DM@GEIIOKKI@?$FLStatusManager?$FN?5?$CFs?5?$JB?d?$IO?T?$IDI?$IDt?$ID?$IJ?$IDC?$ID@ 000000014006f538     StatusManager.obj
 0002:0000b578       ??_C@_0CN@HAIPFDBL@?$DMCoilMgr?$DO?5?$IDR?$IDC?$ID?$IL?$IO?$MA?$JA?Q?$IDA?$IDb?$IDv?$IDf?$IB?$FL?$IDg@ 000000014006f578     StatusManager.obj
 0002:0000b5a8       ??_C@_0CF@KNIHFANE@?$DMCoilMgr?$DO?5?$IDR?$IDC?$ID?$IL?$IO?$MA?$JA?Q?$JDo?$JI?$FO?$IO?$JO?$IDL?$ID?$IF?$IB?$FL@ 000000014006f5a8     StatusManager.obj
 0002:0000b5d0       ??_C@_0CD@DLOHLPBI@?$DMDbMgr?$DO?5?$IDR?$IDC?$ID?$IL?$IO?$MA?$JA?Q?$JDo?$JI?$FO?$IO?$JO?$IDL?$ID?$IF?$IB?$FL?$IDt@ 000000014006f5d0     StatusManager.obj
 0002:0000b5f8       ??_C@_0CD@MEPFBCGA@?$DMDbMgr?$DO?5?$IDR?$IDC?$ID?$IL?$IP?n?$JF?q?$JDo?$JI?$FO?$IO?$JO?$IDL?$ID?$IF?$IB?$FL?$IDt@ 000000014006f5f8     StatusManager.obj
 0002:0000b620       ??_C@_0CO@LDBNEBBA@?$DMMI?$DO?5?$IDJ?$ID?$IB?$ID?$IJ?$ID?$IK?$ID?$JD?$IDN?$IDX?$IDC?$IDb?$ID?$GA?$JA?$NN?$JC?h?$JDo?$JI@ 000000014006f620     StatusManager.obj
 0002:0000b650       ??_C@_0BP@MODGGGA@?$DMDbMgr?$DO?5?ar?$IP?n?$JF?q?$JDo?$JI?$FO?$IO?$JO?$IDL?$ID?$IF?$IB?$FL?$IDt?$ID?$IL?$AA@ 000000014006f650     StatusManager.obj
 0002:0000b670       ??_C@_0BL@HLHAKCPD@?$IDV?$IB?$FL?$IDP?$ID?$JD?$IDT?$IDt?$ID?$IM?$IB?$FL?$ID?$IA?$IO?s?$JAM?$JCx?$IC?j?$AA@ 000000014006f670     StatusManager.obj
 0002:0000b690       ??_C@_0L@IFNPDEMO@DB?$JA?Z?$JB?$LB?$IO?$LI?$JEs?$AA@ 000000014006f690     StatusManager.obj
 0002:0000b6a0       ??_C@_08PIKMFPAJ@?$JA?X?$JCf?$JEF?$IO?$KP?$AA@ 000000014006f6a0     StatusManager.obj
 0002:0000b6b0       ??_C@_0BB@FHEHNFAP@?$IO?s?$JAM?$IDt?$ID?$IM?$IB?$FL?$ID?$IA?$IP?A?$IO?$LI?$AA@ 000000014006f6b0     StatusManager.obj
 0002:0000b6c8       ??_C@_0BL@EELKJGHP@?$FL?$CFs?$FN?5AP?$II?Y?$IP?m?$IBB?$FL?$II?Y?$IP?m?$IL?f?$JF?$KK?3?$CFs?$FN?$AA@ 000000014006f6c8     StatusManager.obj
 0002:0000b6e8       ??_C@_0P@KEGKANIH@?$IDX?$IDe?$IB?$FL?$ID?$FO?$IDX?$II?Y?$IP?m?$AA@ 000000014006f6e8     StatusManager.obj
 0002:0000b700       ??_C@_0EA@JDPMEENN@?$FL?$CFs?$FN?5?$JE?$LL?$JC?hPC?$CF02d?5?$II?Y?$IP?m?5?$CI?$JB?$LB?$INs?$JFs?$JE?2?$DN?$CF@ 000000014006f700     StatusManager.obj
 0002:0000b740       ??_C@_0BB@COGNMBJK@?5?$CFs?3?$DMGroup?$CFd?3?$CFd?$DO?$AA@ 000000014006f740     StatusManager.obj
 0002:0000b758       ??_C@_0BE@ONCLIKOF@?$FL?$CFs?$FN?5?$JE?$LL?$JC?hPC?$JFK?$JHv?$JB?d?$JA?$JE?$AA@ 000000014006f758     StatusManager.obj
 0002:0000b770       ??_C@_0DH@DHKDJDCG@?$FL?$CFs?$FN?5?$DM?$CFs?$DO?5?$JAU?$JB?V?$IJ?B?$JE?2?$IC?H?$JE?$LL?$JC?hPC?$JA?$JE?$IC?$KK?$II?Y@ 000000014006f770     StatusManager.obj
 0002:0000b7a8       ??_C@_0BD@OBEMHEEI@?$FL?$CFs?$FN?5?$DM?$CFs?$DO?5?$JB?d?$JA?$JE?$IBF?$CFd?$AA@ 000000014006f7a8     StatusManager.obj
 0002:0000b7c0       ??_C@_0BL@IIJPCNMD@?$FL?$JA?$LD?$IP?m?$JE?$LL?$JC?hPC?$DM?$CFs?$DO?$CI?$CFd?$JB?d?$CJ?5?$CFs?$CJ?$FN?$AA@ 000000014006f7c0     StatusManager.obj
 0002:0000b7e0       ??_C@_0DM@BGJFMDAN@?$FL?$CFs?$FN?5?$DM?$CFs?$DO?5?$IM?$JP?$IN?$LI?$IC?I?$JFK?$JHv?$IC?H?$JB?d?$JA?$JE?$IC?$KK?$JB?$KL?$IC?h@ 000000014006f7e0     StatusManager.obj
 0002:0000b820       ??_C@_0BM@KOLJPOAI@?$FL?$CFs?$FN?5?$JH?$LM?$JG?J?$IC?F?$IC?$OA?$JE?$LL?$JC?h?$JB?d?$JA?$JE?$ICn?$ICj?$IBI?$AA@ 000000014006f820     StatusManager.obj
 0002:0000b840       ??_C@_0CI@LEPILKDF@?$FL?$CFs?$FN?5?$JH?$LM?$JG?J?$IC?F?$IC?$OA?$JFK?$JHv?$IC?H?$JE?$LL?$JC?h?$JB?d?$JA?$JE?$IC?$KK?$JB?$KL?$IC@ 000000014006f840     StatusManager.obj
 0002:0000b868       ??_C@_0DP@JNHGMKIK@?$FL?$CFs?$FN?5?$DM?$CFs?$DO?5?$IM?$JP?$IN?$LI?$IJ?B?$JE?2?$JE?$LL?$JC?hPC?$IOZ?$IPo?$IK?$KO?$JH?$LJ@ 000000014006f868     StatusManager.obj
 0002:0000b8a8       ??_C@_0BK@BJLCABNF@?$FL?$CFs?$FN?5?$CFs?$IC?L?$IC?$NN?$JE?$LL?$JC?h?$JB?d?$JA?$JE?$ICn?$ICj?$IBI?$AA@ 000000014006f8a8     StatusManager.obj
 0002:0000b8c8       ??_C@_0DN@BPKDPNPH@?$FL?$CFs?$FN?5?$DM?$CFs?$DO?5?$ID?$IN?$IDW?$IDb?$IDN?$IDp?$ID?$IJ?$ID?$IJ?$ID?$JDPC?$JC?h?$IL?$GA@ 000000014006f8c8     StatusManager.obj
 0002:0000b908       ??_C@_0CH@GGEGOKOK@?$FL?$DM?$CFs?$DO?5?$JA?$LD?$IP?m?$JE?$LL?$JC?hPC?$CI?$CFs?$CJ?5?$IDo?$IDb?$IDN?$IDA?$IDb?$ID@ 000000014006f908     StatusManager.obj
 0002:0000b930       ??_C@_0EM@CFAKBEB@?$FL?$CFs?$FN?5?$ID?$IN?$IDW?$IDb?$IDN?$IDp?$ID?$IJ?$ID?$IJ?$ID?$JDPC?$CF02d?5?$II?Y?$IP?m@ 000000014006f930     StatusManager.obj
 0002:0000b97c       ??_C@_02DPKJAMEF@?$CFd?$AA@ 000000014006f97c     StatusManager.obj
 0002:0000b988       ??_7StatusManager@@6B@     000000014006f988     StatusManager.obj
 0002:0000b9e8       ??_C@_01HMGJMAIH@B?$AA@    000000014006f9e8     stdafx.obj
 0002:0000b9f0       ??_C@_0N@NKLJABBB@ToLinkswUtil?$AA@ 000000014006f9f0     ToLinkswUtil.obj
 0002:0000ba00       ??_C@_09BKLDJKEH@TO_CAMERA?$AA@ 000000014006fa00     ToOutMailSender.obj
 0002:0000ba10       ??_C@_0CP@FKFOCHKE@?$FL?$IDJ?$ID?$IB?$ID?$IJ?$IDR?$ID?$JD?$IDg?$ID?$IN?$IB?$FL?$ID?$IJ?$IB?$FL?$IC?V?$IDp?$ID?$IL?$IDX?$IPo?$JH@ 000000014006fa10     ToOutMailSender.obj
 0002:0000ba40       ??_C@_0DH@IOPFPIIE@?$FL?$IDJ?$ID?$IB?$ID?$IJ?$IDR?$ID?$JD?$IDg?$ID?$IN?$IB?$FL?$ID?$IJ?$IB?$FL?$IC?V?$IDp?$ID?$IJ?$ID?$IB?$IB?$FL?$ID@ 000000014006fa40     ToOutMailSender.obj
 0002:0000ba78       ??_C@_0CP@IDLHBMCL@?$FL?$IDJ?$ID?$IB?$ID?$IJ?$IDR?$ID?$JD?$IDg?$ID?$IN?$IB?$FL?$ID?$IJ?$IB?$FL?$IC?V?$IDR?$IDC?$ID?$IL?$JA?X?$JB@ 000000014006fa78     ToOutMailSender.obj
 0002:0000baa8       ??_C@_0CN@JHMJNFPK@?$FL?$IDJ?$ID?$IB?$ID?$IJ?$IDR?$ID?$JD?$IDg?$ID?$IN?$IB?$FL?$ID?$IJ?$IB?$FL?$IC?V?$IM?$JP?$IN?$LI?$IKJ?$IOn?5@ 000000014006faa8     ToOutMailSender.obj
 0002:0000bad8       ??_C@_0DN@EMNGGPIE@?$FL?$IDJ?$ID?$IB?$ID?$IJ?$ID?$IK?$ID?$JD?$IDN?$IDX?$IDC?$IDb?$ID?$GA?$JC?J?$JAM?$IC?V?$IC?L?$IDp?$ID@ 000000014006fad8     ToOutMailSender.obj
 0002:0000bb18       ??_C@_09LKINLKMA@TO_LINKSW?$AA@ 000000014006fb18     ToOutMailSender.obj
 0002:0000bb28       ??_C@_0DJ@LJHDKIMK@?$FL?$IDJ?$ID?$IB?$ID?$IJ?$ID?$IK?$ID?$JD?$IDN?$IDX?$IDC?$IDb?$ID?$GA?$JC?J?$JAM?$IC?V?$IC?L?$IDJ?$ID@ 000000014006fb28     ToOutMailSender.obj
 0002:0000bb68       ??_C@_0DH@HAOOEBBA@?$FL?$IDJ?$ID?$IB?$ID?$IJ?$ID?$IK?$ID?$JD?$IDN?$IDX?$IDC?$IDb?$ID?$GA?$JC?J?$JAM?$IC?V?$IC?L?$IM?$JP?$IN@ 000000014006fb68     ToOutMailSender.obj
 0002:0000bba0       ??_C@_0ED@LGGBJHDB@?$FL?$IDJ?$ID?$IB?$ID?$IJ?$ID?$IK?$ID?$JD?$IDN?$IDX?$IDC?$IDb?$ID?$GA?$JC?J?$JAM?$IC?V?$IC?L?$IDV?$ID@ 000000014006fba0     ToOutMailSender.obj
 0002:0000bbe8       ??_C@_0DL@BMNMFKHE@?$FL?$IDJ?$ID?$IB?$ID?$IJ?$ID?$IK?$ID?$JD?$IDN?$IDX?$IDC?$IDb?$ID?$GA?$JC?J?$JAM?$IC?V?$IC?L?$JDr?$JC@ 000000014006fbe8     ToOutMailSender.obj
 0002:0000bc28       ??_C@_0CO@NOANBHBH@?$FLLED?$IP?F?$JG?$LO?$JB?$JF?$JCu?$IC?V?$IDp?$ID?$IJ?$ID?$IB?$IB?$FL?$ID?$FO?$JF?O?$INX?$JHv?$IL?$IB@ 000000014006fc28     ToOutMailSender.obj
 0002:0000bc58       ??_C@_09DMPMMEOG@KT_LEDMGR?$AA@ 000000014006fc58     ToOutMailSender.obj
 0002:0000bc68       ??_C@_0CE@ODJANJC@?$FLLED?$IP?F?$JG?$LO?$JB?$JF?$JCu?$IC?V?$ILP?$JDx?$JA?$NN?$JC?h?5err_code?$DN@ 000000014006fc68     ToOutMailSender.obj
 0002:0000bc90       ??_C@_0CK@MGKEPMBL@?$FLLED?$IP?F?$JG?$LO?$JB?$JF?$JCu?$IC?V?$IDR?$IDC?$ID?$IL?$JA?X?$JB?V?$JC?J?$JCm?5err@ 000000014006fc90     ToOutMailSender.obj
 0002:0000bcc0       ??_C@_0CK@MPHEAHOD@?$FLLED?$IP?F?$JG?$LO?$JB?$JF?$JCu?$IC?V?$JD_?$JD?$JE?$IBE?$IP?A?$JD?$JE?$IOw?$IO?$KG?5err@ 000000014006fcc0     ToOutMailSender.obj
 0002:0000bcf0       ??_C@_0EB@BJBCCBO@?$IDA?$IDv?$ID?$IK?$IDP?$IB?$FL?$IDV?$ID?$IH?$ID?$JD?5?$IDE?$IDB?$IDU?$IB?$FL?$IDh?$IC?E?$JA?$LG?$JA@ 000000014006fcf0     TO_DEFECT.obj
 0002:0000bd40       ??_7CBrush@@6B@            000000014006fd40     TO_DEFECT.obj
 0002:0000bd70       ??_7CTO_DEFECTApp@@6B@     000000014006fd70     TO_DEFECT.obj
 0002:0000c188       ??_7CListBox@@6B@          0000000140070188     TO_DEFECTDlg.obj
 0002:0000c4a0       ??_7CTO_DEFECTDlg@@6B@     00000001400704a0     TO_DEFECTDlg.obj
 0002:0000c7c8       ??_C@_04NKGJOIIE@?$JFs?$JG?$LO?$AA@ 00000001400707c8     TO_DEFECTDlg.obj
 0002:0000c7d0       ??_C@_0P@LILJJFHG@?$IDI?$IDt?$ID?$IJ?$IDC?$ID?$JD?$II?J?$JCu?$AA@ 00000001400707d0     TO_DEFECTDlg.obj
 0002:0000c7e0       ??_C@_0P@FGIDKFIK@?$IDC?$ID?$JD?$ID?$IJ?$IDC?$ID?$JD?$II?J?$JCu?$AA@ 00000001400707e0     TO_DEFECTDlg.obj
 0002:0000c7f0       ??_C@_04MIBLMOJA@?$JC?$IN?$II?S?$AA@ 00000001400707f0     TO_DEFECTDlg.obj
 0002:0000c7f8       ??_C@_08OPBBAJPI@?$II?J?$JCu?$JFs?$JG?$LO?$AA@ 00000001400707f8     TO_DEFECTDlg.obj
 0002:0000c808       ??_C@_08PPLAMNAP@?X?$LO?$KP?D?$IN?O?$IC?$NN?$AA@ 0000000140070808     TO_DEFECTDlg.obj
 0002:0000c814       ??_C@_04OCKONELO@?$II?Y?$IP?m?$AA@ 0000000140070814     TO_DEFECTDlg.obj
 0002:0000c81c       ??_C@_04EIPBEGCM@?$JH?2?$JE?u?$AA@ 000000014007081c     TO_DEFECTDlg.obj
 0002:0000c828       ??_C@_0L@CLFNJNIK@?$IP?$IJ?$IK?z?$IJ?$LL?$IN?O?$IC?$NN?$AA@ 0000000140070828     TO_DEFECTDlg.obj
 0002:0000c834       ??_C@_06HFBGDPML@?$IJ?$FO?$JD?$FN?$JC?$IG?$AA@ 0000000140070834     TO_DEFECTDlg.obj
 0002:0000c83c       ??_C@_06HAJEBJKG@?$IOB?$JB?$JM?$JC?$IG?$AA@ 000000014007083c     TO_DEFECTDlg.obj
 0002:0000c844       ??_C@_06DNKDIKHD@?$JF?B?$IP?s?$JB?T?$AA@ 0000000140070844     TO_DEFECTDlg.obj
 0002:0000c84c       ??_C@_06FHDAHHBC@?$JC?b?$IO?$HO?$JC?$IG?$AA@ 000000014007084c     TO_DEFECTDlg.obj
 0002:0000c854       ??_C@_06IODHODMF@?$JG?$KC?$JA?$IB?$JFt?$AA@ 0000000140070854     TO_DEFECTDlg.obj
 0002:0000c85c       ??_C@_06FONGPAOB@?$IKJ?$IP?s?$JB?T?$AA@ 000000014007085c     TO_DEFECTDlg.obj
 0002:0000c864       ??_C@_06DGECFNDI@?$JA?$IB?$JFt?$JC?$IG?$AA@ 0000000140070864     TO_DEFECTDlg.obj
 0002:0000c86c       ??_C@_04MNFLMFEA@?5x64?$AA@ 000000014007086c     TO_DEFECTDlg.obj
 0002:0000c878       ??_C@_0P@MCCBPDAP@?$JB?$IA?$IN?l?$CI?$LI?X?$KP?$LI?$IC?$LF?$IC?D?$CJ?$AA@ 0000000140070878     TO_DEFECTDlg.obj
 0002:0000c888       ??_C@_0P@DIICHPAH@?$IPI?$JH?$LJ?$IC?$LF?$IC?$NM?$IC?$LH?$IC?$KJ?$IBH?$AA@ 0000000140070888     TO_DEFECTDlg.obj
 0002:0000c898       ??_C@_0P@OLNAEDIL@?$IPd?$JHv?$IC?H?$IC?$KI?$JCm?$IC?g?$IC?$LJ?$AA@ 0000000140070898     TO_DEFECTDlg.obj
 0002:0000c8a8       ??_C@_0CK@HGICELDC@?$FL?$CFs?$FN?5?$IK?y?$IC?I?$ID?$FO?$IDX?$IDN?$ILN?$JD?$KO?$IN?O?$IC?$NN?$IC?I?$IC?f?$IC?h?$IBA?$IL@ 00000001400708a8     TO_DEFECTDlg.obj
 0002:0000c8d8       ??_C@_0BF@MKMHGKLC@?$FLDlg?$FN?5?$IL?$KN?$JA?$KH?$IPI?$JH?$LJ?$ID?$HL?$ID?$FO?$ID?$JD?$AA@ 00000001400708d8     TO_DEFECTDlg.obj
 0002:0000c8f0       ??_C@_0CG@HDKAEAMB@?$FLDlg?$FN?5?$IKe?$IDv?$ID?$IN?$IDZ?$IDX?$IKJ?$IOn?$IP?$II?$JH?$JN?5?$IO?$MA?$INs?$JC?$IG?$IB@ 00000001400708f0     TO_DEFECTDlg.obj
 0002:0000c918       ??_C@_0BB@OFMLIKBJ@?$FLDlg?$FN?5?$ID?$FO?$IDX?$IDN?$ILN?$JD?$KO?$AA@ 0000000140070918     TO_DEFECTDlg.obj
 0002:0000c930       ??_C@_07PBIBMEOO@EdgeUDP?$AA@ 0000000140070930     TO_DEFECTDlg.obj
 0002:0000c938       ??_C@_0L@CGPPHHKJ@SeqUDP?$IO?s?$JAM?$AA@ 0000000140070938     TO_DEFECTDlg.obj
 0002:0000c948       ??_C@_08GNDEDJOH@HtCheckD?$AA@ 0000000140070948     TO_DEFECTDlg.obj
 0002:0000c958       ??_C@_0M@MDFGOCOA@GuidanceLog?$AA@ 0000000140070958     TO_DEFECTDlg.obj
 0002:0000c964       ??_C@_04BPLLCDCN@?$IN?$IA?$JG?Z?$AA@ 0000000140070964     TO_DEFECTDlg.obj
 0002:0000c970       ??_C@_08OFCHIHHO@AlarmLog?$AA@ 0000000140070970     TO_DEFECTDlg.obj
 0002:0000c980       ??_C@_08NEOOHMMN@?$IJ?R?$JD?$KO?$IP?s?$JB?T?$AA@ 0000000140070980     TO_DEFECTDlg.obj
 0002:0000c98c       ??_C@_02DHGBGONI@?$JCl?$AA@ 000000014007098c     TO_DEFECTDlg.obj
 0002:0000c990       ??_C@_0L@HHPDAACF@?$JB?$IA?$IL?F?$IP?s?$JB?T?$JF?2?$AA@ 0000000140070990     TO_DEFECTDlg.obj
 0002:0000c9a0       ??_C@_0L@IENDBMFH@?$JB?$IA?$IL?F?$IP?s?$JB?T?$IM?$JP?$AA@ 00000001400709a0     TO_DEFECTDlg.obj
 0002:0000c9b0       ??_C@_07MEBPEHJG@PLG?$IL?f?$JF?$KK?$AA@ 00000001400709b0     TO_DEFECTDlg.obj
 0002:0000c9b8       ??_C@_08EDHMIHOP@?$IJ?$FO?$JD?$FN?$IP?s?$JB?T?$AA@ 00000001400709b8     TO_DEFECTDlg.obj
 0002:0000c9c8       ??_C@_0L@DBNIGGDO@HT?$LM?$LN?C?Q?$IP?s?$JB?T?$AA@ 00000001400709c8     TO_DEFECTDlg.obj
 0002:0000c9d8       ??_C@_08JBILPDPJ@?$IM?$JP?$IN?$LI?$IP?p?$IM?$IP?$AA@ 00000001400709d8     TO_DEFECTDlg.obj
 0002:0000c9e8       ??_C@_08OMDHEGBI@?$IL?$EA?$IK?m?$IP?s?$JB?T?$AA@ 00000001400709e8     TO_DEFECTDlg.obj
 0002:0000c9f8       ??_C@_08MOIPOIKL@?$IM?$JP?$IN?$LI?$IP?s?$JB?T?$AA@ 00000001400709f8     TO_DEFECTDlg.obj
 0002:0000ca04       ??_C@_06DDFOIKLE@HT?$IL?$EA?$JE?2?$AA@ 0000000140070a04     TO_DEFECTDlg.obj
 0002:0000ca10       ??_C@_08PBOMPBKG@?$IP?$II?$JH?$JN?$IO?$JO?$IK?T?$AA@ 0000000140070a10     TO_DEFECTDlg.obj
 0002:0000ca1c       ??_C@_04POOLLNIC@?$IJ?q?$JA?$PM?$AA@ 0000000140070a1c     TO_DEFECTDlg.obj
 0002:0000ca24       ??_C@_04GDDBAMLE@PCID?$AA@ 0000000140070a24     TO_DEFECTDlg.obj
 0002:0000ca2c       ??_C@_04IHDNEEDE@?$IP?s?$JB?T?$AA@ 0000000140070a2c     TO_DEFECTDlg.obj
 0002:0000ca34       ??_C@_02FHGFIPNI@?$ILP?$AA@ 0000000140070a34     TO_DEFECTDlg.obj
 0002:0000ca38       ??_C@_02EAGNOPCB@?$IDQ?$AA@ 0000000140070a38     TO_DEFECTDlg.obj
 0002:0000ca3c       ??_C@_02NCAFDLOJ@?$JII?$AA@ 0000000140070a3c     TO_DEFECTDlg.obj
 0002:0000ca40       ??_C@_04IIOLNDCI@?$IL?$EA?$JE?2?$AA@ 0000000140070a40     TO_DEFECTDlg.obj
 0002:0000ca48       ??_C@_02KHFPAHOF@c2?$AA@   0000000140070a48     TO_DEFECTDlg.obj
 0002:0000ca4c       ??_C@_02IMHCFECG@c1?$AA@   0000000140070a4c     TO_DEFECTDlg.obj
 0002:0000ca50       ??_C@_07PDPHMMPH@?J?$NP?W?W?$NN?$CFd?$AA@ 0000000140070a50     TO_DEFECTDlg.obj
 0002:0000ca58       ??_C@_08GACCBNOE@?$LM?$LN?C?Q?$IP?s?$JB?T?$AA@ 0000000140070a58     TO_DEFECTDlg.obj
 0002:0000ca64       ??_C@_05DJPICJGP@?$JF?2Max?$AA@ 0000000140070a64     TO_DEFECTDlg.obj
 0002:0000ca6c       ??_C@_05JFCLEPDO@?$JF?2Ave?$AA@ 0000000140070a6c     TO_DEFECTDlg.obj
 0002:0000ca74       ??_C@_05PJPEDFDI@?$JH?$KAMax?$AA@ 0000000140070a74     TO_DEFECTDlg.obj
 0002:0000ca7c       ??_C@_05FFCHFDGJ@?$JH?$KAAve?$AA@ 0000000140070a7c     TO_DEFECTDlg.obj
 0002:0000ca84       ??_C@_05CAGJDIBO@WS?5HT?$AA@ 0000000140070a84     TO_DEFECTDlg.obj
 0002:0000ca8c       ??_C@_05KFCLEICL@DS?5HT?$AA@ 0000000140070a8c     TO_DEFECTDlg.obj
 0002:0000ca94       ??_C@_05FMCNDBDJ@?$JD?$GA?$JB?$JH2?$AA@ 0000000140070a94     TO_DEFECTDlg.obj
 0002:0000ca9c       ??_C@_05HHAAGCPK@?$JD?$GA?$JB?$JH1?$AA@ 0000000140070a9c     TO_DEFECTDlg.obj
 0002:0000caa4       ??_C@_02BMOKPDEL@TO?$AA@   0000000140070aa4     TO_DEFECTDlg.obj
 0002:0000caa8       ??_C@_05COKJBNBD@HT?9TO?$AA@ 0000000140070aa8     TO_DEFECTDlg.obj
 0002:0000cab0       ??_C@_04PJGPOAHF@?D?$LA?$MA?Y?$AA@ 0000000140070ab0     TO_DEFECTDlg.obj
 0002:0000cab8       ??_C@_0M@BAIPNLJP@?$JF?2?5?$IM?$JP?$IN?$LI?$II?J?$JCu?$AA@ 0000000140070ab8     TO_DEFECTDlg.obj
 0002:0000cac8       ??_C@_08DFGAIHBH@?$IDR?$IDC?$ID?$ILNo?$AA@ 0000000140070ac8     TO_DEFECTDlg.obj
 0002:0000cad8       ??_C@_0N@NHEFFDNK@?$IO?$JP?$IM?$JP?$IN?$LI?$IDR?$IDC?$ID?$IL?$AA@ 0000000140070ad8     TO_DEFECTDlg.obj
 0002:0000cae8       ??_C@_0M@HPGNLAKL@?$JH?$KA?5?$IM?$JP?$IN?$LI?$II?J?$JCu?$AA@ 0000000140070ae8     TO_DEFECTDlg.obj
 0002:0000caf8       ??_C@_0O@IKOMCEFK@?$JH?$KA?5?$IM?$JP?$IN?$LI?$JB?d?$II?J?$JCu?$AA@ 0000000140070af8     TO_DEFECTDlg.obj
 0002:0000cb08       ??_C@_0O@OLKGAAJP@?$JF?2?5?$IM?$JP?$IN?$LI?$JB?d?$II?J?$JCu?$AA@ 0000000140070b08     TO_DEFECTDlg.obj
 0002:0000cb18       ??_C@_0N@MBMKADOK@?$IO?$JP?$JF?2?$IO?$KG?$IDR?$IDC?$ID?$IL?$AA@ 0000000140070b18     TO_DEFECTDlg.obj
 0002:0000cb28       ??_C@_0L@DAIMFIFP@?$IDV?$ID?$ID?$IB?$FL?$II?J?$JCu?$AA@ 0000000140070b28     TO_DEFECTDlg.obj
 0002:0000cb34       ??_C@_02FOEPCDJG@?$IN?$KB?$AA@ 0000000140070b34     TO_DEFECTDlg.obj
 0002:0000cb38       ??_C@_06MNJPPJAP@HY?$IP?n?$JF?q?$AA@ 0000000140070b38     TO_DEFECTDlg.obj
 0002:0000cb40       ??_C@_0M@KEJMEDPJ@?$FL1?$FN?$JA?Z?$JB?$LB?$FL?$IM?$IP?$FN?$AA@ 0000000140070b40     TO_DEFECTDlg.obj
 0002:0000cb4c       ??_C@_04OOOALHJL@?$IN?E?$JB?e?$AA@ 0000000140070b4c     TO_DEFECTDlg.obj
 0002:0000cb58       ??_C@_0M@DNHOCFPI@?$FL2?$FN?$JA?Z?$JB?$LB?$FL?$IM?$IP?$FN?$AA@ 0000000140070b58     TO_DEFECTDlg.obj
 0002:0000cb68       ??_C@_0L@IGIKHAKM@?$FL1?$FN?$JB?$JH?$JAMQue?$AA@ 0000000140070b68     TO_DEFECTDlg.obj
 0002:0000cb78       ??_C@_0M@PMPAPKDI@?$FL3?$FN?$JA?Z?$JB?$LB?$FL?$IM?$IP?$FN?$AA@ 0000000140070b78     TO_DEFECTDlg.obj
 0002:0000cb88       ??_C@_0L@GNLNMLKP@?$FL2?$FN?$JB?$JH?$JAMQue?$AA@ 0000000140070b88     TO_DEFECTDlg.obj
 0002:0000cb94       ??_C@_06FGMIDAMK@?$ID?$IC?$IB?$FL?$IDh?$AA@ 0000000140070b94     TO_DEFECTDlg.obj
 0002:0000cba0       ??_C@_0L@ICHPKAJB@?$FL3?$FN?$JB?$JH?$JAMQue?$AA@ 0000000140070ba0     TO_DEFECTDlg.obj
 0002:0000cbac       ??_C@_02PINLBAEP@WS?$AA@   0000000140070bac     TO_DEFECTDlg.obj
 0002:0000cbb0       ??_C@_02OGLLANGG@DS?$AA@   0000000140070bb0     TO_DEFECTDlg.obj
 0002:0000cbb4       ??_C@_04CIKHAIBG@?$JA?$LGWS?$AA@ 0000000140070bb4     TO_DEFECTDlg.obj
 0002:0000cbbc       ??_C@_04DGMHBFDP@?$JA?$LGDS?$AA@ 0000000140070bbc     TO_DEFECTDlg.obj
 0002:0000cbc4       ??_C@_02FGOFDEHB@?$JH?$KA?$AA@ 0000000140070bc4     TO_DEFECTDlg.obj
 0002:0000cbc8       ??_C@_02ONGIEOKO@?$JF?2?$AA@ 0000000140070bc8     TO_DEFECTDlg.obj
 0002:0000cbd0       ??_C@_0O@BNIFFFOA@?$LM?$LA?$LJ?$NN?$LL?$IJ?R?$JD?$KO?$IP?s?$JB?T?$AA@ 0000000140070bd0     TO_DEFECTDlg.obj
 0002:0000cbe0       ??_C@_09NJLDMMK@?$LM?$LA?$LJ?$NN?$LL?$IP?s?$JB?T?$AA@ 0000000140070be0     TO_DEFECTDlg.obj
 0002:0000cbf0       ??_C@_0N@FIMFJHJE@?$JB?d?$IO?T?$II?J?$JCu?$CI?$JH?$KA?$CJ?$AA@ 0000000140070bf0     TO_DEFECTDlg.obj
 0002:0000cc00       ??_C@_0N@EOBCNFKL@?$JB?d?$IO?T?$II?J?$JCu?$CI?$JF?2?$CJ?$AA@ 0000000140070c00     TO_DEFECTDlg.obj
 0002:0000cc10       ??_C@_0O@JLELCJEH@?$JDh?$JG?$PL?$LN?L?$NP?Z?$LA?$IP?s?$JB?T?$AA@ 0000000140070c10     TO_DEFECTDlg.obj
 0002:0000cc20       ??_C@_07GPIHGIGA@SPM?$IP?s?$JB?T?$AA@ 0000000140070c20     TO_DEFECTDlg.obj
 0002:0000cc28       ??_C@_0BC@BCCHIFPK@?A?W?$LA?$II?Y?$IP?m?$CI?$JF?2?1?$JH?$KA?1BK?$CJ?$AA@ 0000000140070c28     TO_DEFECTDlg.obj
 0002:0000cc40       ??_C@_0BC@BHDBFNPF@?A?W?$LA?$IJ?$FO?$JD?$FN?$CI?$JF?2?1?$JH?$KA?1BK?$CJ?$AA@ 0000000140070c40     TO_DEFECTDlg.obj
 0002:0000cc58       ??_C@_0BG@CBJNEFAA@?$LE?$LB?D?$NO?W?$LC?T?$CI?$JH?$KA?$CJ?5?$IJ?$FO?$JD?$FN?1?$II?Y?$IP?m?$AA@ 0000000140070c58     TO_DEFECTDlg.obj
 0002:0000cc70       ??_C@_0BG@EANHGBMF@?$LE?$LB?D?$NO?W?$LC?T?$CI?$JF?2?$CJ?5?$IJ?$FO?$JD?$FN?1?$II?Y?$IP?m?$AA@ 0000000140070c70     TO_DEFECTDlg.obj
 0002:0000cc88       ??_C@_02MIDFNNGL@?$JG?J?$AA@ 0000000140070c88     TO_DEFECTDlg.obj
 0002:0000cc90       ??_C@_09BMBFPCMF@?$JE?$OA?1?$IM?$KO?$IP?s?$JB?T?$AA@ 0000000140070c90     TO_DEFECTDlg.obj
 0002:0000cc9c       ??_C@_04NIDJFPGG@?$IP?p?$IM?$IP?$AA@ 0000000140070c9c     TO_DEFECTDlg.obj
 0002:0000cca4       ??_C@_05EAIHDNGG@?$JF?2Lmp?$AA@ 0000000140070ca4     TO_DEFECTDlg.obj
 0002:0000ccac       ??_C@_05IMEPPPMH@?$JH?$KAAlm?$AA@ 0000000140070cac     TO_DEFECTDlg.obj
 0002:0000ccb4       ??_C@_05IAILCBDB@?$JH?$KALmp?$AA@ 0000000140070cb4     TO_DEFECTDlg.obj
 0002:0000ccbc       ??_C@_04NGEBMPO@?$II?J?$JCu?$AA@ 0000000140070cbc     TO_DEFECTDlg.obj
 0002:0000ccc8       ??_C@_0L@HHHEDJLF@?$JF?2?$IM?$JP?$JB?d?$CI?$JF?2?$CJ?$AA@ 0000000140070cc8     TO_DEFECTDlg.obj
 0002:0000ccd4       ??_C@_04FADDKPC@?L?$NO?$LL?$NO?$AA@ 0000000140070cd4     TO_DEFECTDlg.obj
 0002:0000cce0       ??_C@_08IEOFDAIG@?$JB?$IN?$IPo?$JH?M?$JA?$JE?$AA@ 0000000140070ce0     TO_DEFECTDlg.obj
 0002:0000ccf0       ??_C@_0O@OHOEMIAH@?$IB?$EA?$IB?$EA?$IB?$EA?$IB?$EA?5?$CI?$JH?$KA?$CJ?$AA@ 0000000140070cf0     TO_DEFECTDlg.obj
 0002:0000cd00       ??_C@_05JBCEJHMJ@?$LK?$LC?Y?$JC?$LH?$AA@ 0000000140070d00     TO_DEFECTDlg.obj
 0002:0000cd08       ??_C@_06MNKPOGEB@?$JG?$LN?$JH?$NPNo?$AA@ 0000000140070d08     TO_DEFECTDlg.obj
 0002:0000cd10       ??_C@_02DPIJKIKB@?$JF?$JN?$AA@ 0000000140070d10     TO_DEFECTDlg.obj
 0002:0000cd18       ??_C@_08LOEPCCMM@?$II?$LD?$IJ?$LK?$JHL?$JG?$LD?$AA@ 0000000140070d18     TO_DEFECTDlg.obj
 0002:0000cd24       ??_C@_02OPKALDHK@?$IM?$LL?$AA@ 0000000140070d24     TO_DEFECTDlg.obj
 0002:0000cd28       ??_C@_02BNMMIGLC@?$IO?$JP?$AA@ 0000000140070d28     TO_DEFECTDlg.obj
 0002:0000cd30       ??_C@_08HPOPHNHH@?$IM?$JP?$IN?$LI?$IK?n?$JD_?$AA@ 0000000140070d30     TO_DEFECTDlg.obj
 0002:0000cd3c       ??_C@_04CJNLGEIB@?$JBO?$CFd?$AA@ 0000000140070d3c     TO_DEFECTDlg.obj
 0002:0000cd48       ??_C@_0BB@GOFGMBKA@?$JH?$KA?5?$IM?$JP?$IN?$LI?$II?J?$JCu?5?$IL?$JH?$JH?$KD?$AA@ 0000000140070d48     TO_DEFECTDlg.obj
 0002:0000cd60       ??_C@_0BB@JONDNMEC@?$JF?2?5?$IM?$JP?$IN?$LI?$II?J?$JCu?5?$IL?$JH?$JH?$KD?$AA@ 0000000140070d60     TO_DEFECTDlg.obj
 0002:0000cd78       ??_C@_0L@IAIPKEPH@?$IDR?$IDC?$ID?$IL?$IOc?$JC?$LH?$AA@ 0000000140070d78     TO_DEFECTDlg.obj
 0002:0000cd88       ??_C@_09POOHFDBN@?$JE?d?$IKr?$JHpPLG?$AA@ 0000000140070d88     TO_DEFECTDlg.obj
 0002:0000cd94       ??_C@_03INKNNDCK@?$FLm?$FN?$AA@ 0000000140070d94     TO_DEFECTDlg.obj
 0002:0000cd98       ??_C@_0P@NJJKOAEJ@?$JBO?$IDR?$IDC?$ID?$IL?$IO?$MA?$JB?$KK?$JC?$LH?$AA@ 0000000140070d98     TO_DEFECTDlg.obj
 0002:0000cda8       ??_C@_0O@KHBCIMKO@?$JF?2?$IO?$KG?$IK?n?$JD_?5?$IL?$JH?$JH?$KD?$AA@ 0000000140070da8     TO_DEFECTDlg.obj
 0002:0000cdb8       ??_C@_08IDJBLAPP@?$JF?2?$IO?$KG?$IK?n?$JD_?$AA@ 0000000140070db8     TO_DEFECTDlg.obj
 0002:0000cdc8       ??_C@_0O@PKIHHMMP@?$JH?$KA?$IM?$JP?$IN?$LI?$JB?d?5?$IL?$JH?$JH?$KD?$AA@ 0000000140070dc8     TO_DEFECTDlg.obj
 0002:0000cdd8       ??_C@_0O@JLMNFIAK@?$JF?2?$IM?$JP?$IN?$LI?$JB?d?5?$IL?$JH?$JH?$KD?$AA@ 0000000140070dd8     TO_DEFECTDlg.obj
 0002:0000cde8       ??_C@_0BB@PGBKPNNN@?$IDV?$ID?$ID?$IB?$FL?$CI?$IPo?$JB?$KE?$JI_?$JH?$JN?$CJ?$AA@ 0000000140070de8     TO_DEFECTDlg.obj
 0002:0000ce00       ??_C@_0BB@DIJAOCEA@?$IDV?$ID?$ID?$IB?$FL?$CI?$JD?$PM?$JB?$KE?$JI_?$JH?$JN?$CJ?$AA@ 0000000140070e00     TO_DEFECTDlg.obj
 0002:0000ce18       ??_C@_0M@NMGNJEJJ@?$JD?$JN?$IK?$IHFrameNo?$AA@ 0000000140070e18     TO_DEFECTDlg.obj
 0002:0000ce28       ??_C@_08GCEDFDHI@?$IK?n?$JG?$HL?$IP?n?$JF?q?$AA@ 0000000140070e28     TO_DEFECTDlg.obj
 0002:0000ce38       ??_C@_09KNEHFEOL@1?L?Z?$LA?Q?$JC?$LH?$IC?$LD?$AA@ 0000000140070e38     TO_DEFECTDlg.obj
 0002:0000ce48       ??_C@_09GLOKFEKA@1?L?Z?$LA?Q?$IO?$PM?$IK?z?$AA@ 0000000140070e48     TO_DEFECTDlg.obj
 0002:0000ce58       ??_C@_08CNINCOLE@?$IPc?$JF?$KK?$IJ?p?$JE?2?$AA@ 0000000140070e58     TO_DEFECTDlg.obj
 0002:0000ce68       ??_C@_0L@EJMFAPAK@?$ID?$IJ?$IDC?$ID?$JD?$JB?$KM?$JDx?$AA@ 0000000140070e68     TO_DEFECTDlg.obj
 0002:0000ce78       ??_C@_0O@GHNKJLAO@?$IK?H?$II?U?W?$LC?$NN?$JB?$KM?$JDx?$IM?$JP?$AA@ 0000000140070e78     TO_DEFECTDlg.obj
 0002:0000ce88       ??_C@_06KBAEBMB@?$CI?$JDs?$JDx?$CJ?$AA@ 0000000140070e88     TO_DEFECTDlg.obj
 0002:0000ce90       ??_C@_0M@BOGBNOOM@SEQ?5FrameNo?$AA@ 0000000140070e90     TO_DEFECTDlg.obj
 0002:0000cea0       ??_C@_0O@JEPKIHHM@?$IK?H?$II?U?W?$LC?$NN?$JB?$KM?$JDx?$JF?2?$AA@ 0000000140070ea0     TO_DEFECTDlg.obj
 0002:0000ceb0       ??_C@_07PBCILKLN@SEQ?5Plg?$AA@ 0000000140070eb0     TO_DEFECTDlg.obj
 0002:0000ceb8       ??_C@_0L@MEHGHAIE@SEQ?5Exsync?$AA@ 0000000140070eb8     TO_DEFECTDlg.obj
 0002:0000cec4       ??_C@_04PAEIKCIM@?$FLmm?$FN?$AA@ 0000000140070ec4     TO_DEFECTDlg.obj
 0002:0000cecc       ??_C@_04OGPACMPG@?$FLms?$FN?$AA@ 0000000140070ecc     TO_DEFECTDlg.obj
 0002:0000ced8       ??_C@_07LBMDPMBP@?$FLmm?1px?$FN?$AA@ 0000000140070ed8     TO_DEFECTDlg.obj
 0002:0000cee0       ??_C@_05GNPDMOGC@?$FLmpm?$FN?$AA@ 0000000140070ee0     TO_DEFECTDlg.obj
 0002:0000cee8       ??_C@_04JPCAEFOD@?$JF?$NL?$JB?$LG?$AA@ 0000000140070ee8     TO_DEFECTDlg.obj
 0002:0000cef0       ??_C@_05PJPEPLAM@?$FLpls?$FN?$AA@ 0000000140070ef0     TO_DEFECTDlg.obj
 0002:0000cef8       ??_C@_08EJEKBLCC@?$JG?$LD?$IKQ?$IN?m?$IP?$JM?$AA@ 0000000140070ef8     TO_DEFECTDlg.obj
 0002:0000cf04       ??_C@_04OEDNFBOA@?$JBS?$JA?$JE?$AA@ 0000000140070f04     TO_DEFECTDlg.obj
 0002:0000cf10       ??_C@_0N@HCEHKLDL@?$JG?$LD?$IKQ?$IJ?f?$JB?$JM?$IN?m?$IP?$JM?$AA@ 0000000140070f10     TO_DEFECTDlg.obj
 0002:0000cf20       ??_C@_08HIHKAJIH@?$JHL?$IKQ?$IN?m?$IP?$JM?$AA@ 0000000140070f20     TO_DEFECTDlg.obj
 0002:0000cf30       ??_C@_0BC@NCHEBJPO@?$CISQL?$CJ?5SQL?$JA?$LG?$JA?$KM?$FL?$IM?$IP?$FN?$AA@ 0000000140070f30     TO_DEFECTDlg.obj
 0002:0000cf48       ??_C@_0N@JJMIADNL@?$JHL?$IKQ?$IJ?f?$JB?$JM?$IN?m?$IP?$JM?$AA@ 0000000140070f48     TO_DEFECTDlg.obj
 0002:0000cf58       ??_C@_0BD@IPEAJJOK@?$CISQL?$CJ?5?$IJ?f?$JB?$JM?$JDo?$JI?$FO?$FLms?$FN?$AA@ 0000000140070f58     TO_DEFECTDlg.obj
 0002:0000cf70       ??_C@_0BB@IOFIGEGO@?$CISQL?$CJ?5DB?$JDo?$JI?$FO?$FL?$IM?$IP?$FN?$AA@ 0000000140070f70     TO_DEFECTDlg.obj
 0002:0000cf88       ??_C@_0BC@CCJDGGJG@?$CIBCP?$CJ?5SQL?$JA?$LG?$JA?$KM?$FL?$IM?$IP?$FN?$AA@ 0000000140070f88     TO_DEFECTDlg.obj
 0002:0000cfa0       ??_C@_0BC@ELADBCJA@?$CISQL?$CJ?5SQL?$JDo?$JI?$FO?$FLms?$FN?$AA@ 0000000140070fa0     TO_DEFECTDlg.obj
 0002:0000cfb8       ??_C@_0BC@PIDALPIF@?$CIBCP?$CJ?5ATTR?5SR?$FLms?$FN?$AA@ 0000000140070fb8     TO_DEFECTDlg.obj
 0002:0000cfd0       ??_C@_0BD@MMNJJHPP@?$CIBCP?$CJ?5?$IJ?f?$JB?$JM?$JDo?$JI?$FO?$FLms?$FN?$AA@ 0000000140070fd0     TO_DEFECTDlg.obj
 0002:0000cfe8       ??_C@_0BB@IOLIDJOD@?$CIBCP?$CJ?5IMG?5SR?$FLms?$FN?$AA@ 0000000140070fe8     TO_DEFECTDlg.obj
 0002:0000d000       ??_C@_0BD@OBCLFLPA@?$CIBCP?$CJ?5ATTR?5Bat?$FLms?$FN?$AA@ 0000000140071000     TO_DEFECTDlg.obj
 0002:0000d018       ??_C@_0BO@KDIKEFNE@?$FLDlg?$FN?5?$IKe?$IDv?$ID?$IN?$IDZ?$IDX?$IKJ?$IOn?$IP?$II?$JH?$JN?5?$IK?$KO?$JH?$LJ?$AA@ 0000000140071018     TO_DEFECTDlg.obj
 0002:0000d038       ??_C@_0BC@EFIMBHBL@?$CIBCP?$CJ?5IMG?5Bat?$FLms?$FN?$AA@ 0000000140071038     TO_DEFECTDlg.obj
 0002:0000d050       ??_C@_0DM@NPCGGHEF@?$FLMAIL?$FN?5?$IDp?$ID?$IJ?$ID?$IB?$IB?$FL?$ID?$FO?$JF?O?$INX?$JHv?$IL?$IB?5?$CIFACT_@ 0000000140071050     TO_DEFECTDlg.obj
 0002:0000d090       ??_C@_0BB@IPBGDICK@?$FLDlg?$FN?5?$ID?$FO?$IDX?$IDN?$IPI?$JH?$LJ?$AA@ 0000000140071090     TO_DEFECTDlg.obj
 0002:0000d0a8       ??_C@_0BP@LIPLIOMG@?$FL?$CFs?$DL?5?$CFs?$DL?5?$CFs?$DL?5s?$DN?$CFd?3?$CFd?$DL?5p?$DN?$CFd?3?$CFd?$FN?$AA@ 00000001400710a8     TO_DEFECTDlg.obj
 0002:0000d0d0       ??_C@_0GL@FMIJPMBA@?$FLMAIL?$FN?5?$IM?$JP?$IN?$LI?$IKJ?$IOn?$JHv?$IL?$IB?5?$CIFACT_TO_DEF@ 00000001400710d0     TO_DEFECTDlg.obj
 0002:0000d140       ??_C@_0CI@MFNGEDMD@?$FLMAIL?$FN?5?$IM?$JP?$IN?$LI?$JC?b?$IO?$HO?$JHv?$IL?$IB?5?$CIFACT_TO_DEF@ 0000000140071140     TO_DEFECTDlg.obj
 0002:0000d168       ??_C@_0BD@MGIONJEP@CAM_GCP_ERR_?$CFd_ID?5?$AA@ 0000000140071168     TO_DEFECTDlg.obj
 0002:0000d180       ??_C@_0GE@BJFKJCHJ@?$FLMAIL?$FN?5?$JE?$LL?$JC?h?$IKJ?$IOn?$IDA?$ID?$JD?$IDT?$IB?$FL?5?$CIFACT_TO@ 0000000140071180     TO_DEFECTDlg.obj
 0002:0000d1e8       ??_C@_0CM@KJIDAPLF@?$FLMAIL?$FN?5?$IJ?R?$JD?$KO?$IP?s?$JB?T?$IO?f?$JD?$LO?$JHv?$IL?$IB?5?$CIFACT_TO@ 00000001400711e8     TO_DEFECTDlg.obj
 0002:0000d218       ??_C@_08FBGAKGOL@?$II?Y?$IP?m?$JEF?$IO?$KP?$AA@ 0000000140071218     TO_DEFECTDlg.obj
 0002:0000d224       ??_C@_04KMEPCIKP@?$IJ?$JO?$JD?$JK?$AA@ 0000000140071224     TO_DEFECTDlg.obj
 0002:0000d230       ??_C@_0GG@GNOGLHHF@?$FLMAIL?$FN?5?$JE?$LL?$JC?h?$IP?s?$JB?T?$JG?b?$IN?$IH?$IC?$LJ?$JF?q?$IN?$JA?5?$CIFACT_@ 0000000140071230     TO_DEFECTDlg.obj
 0002:0000d2a0       ??_C@_0GJ@COOEHAPC@?$FLMAIL?$FN?5?$JE?$LL?$JC?h?$JC?b?$IO?$HO?$IDA?$ID?$JD?$IDT?$IB?$FL?5?$CIFACT_TO@ 00000001400712a0     TO_DEFECTDlg.obj
 0002:0000d310       ??_C@_0CK@MGEFAKMO@?$FLMI?$FN?5?$IO?s?$JAM?$II?J?$JCu?$JFs?$JG?$LO?$IC?L?$JD?$GA?$JF?$LG?$IO?s?$JAM?5?$FL?$IO?s?$JA@ 0000000140071310     TO_DEFECTDlg.obj
 0002:0000d340       ??_C@_0FE@OJPDAICI@?$FLMAIL?$FN?5?$IDR?$IDC?$ID?$IL?$IP?n?$JF?q?$IO?s?$JAM?$JC?J?$JCm?5?$CIFACT_@ 0000000140071340     TO_DEFECTDlg.obj
 0002:0000d398       ??_C@_0CG@GKNBAADA@?$FLMI?$FN?5?$JC?J?$IP?m?$IM?$JP?$IN?$LI?$JC?$IG?$II?H?$IKO?$IC?E?$CFs?$IDR?$IDC?$ID?$IL?$IP?n?$JF@ 0000000140071398     TO_DEFECTDlg.obj
 0002:0000d3c0       ??_C@_0O@GHOHPFO@?$FL?$IO?s?$JAM?$II?J?$JCu?$DN?$CFd?$FN?$AA@ 00000001400713c0     TO_DEFECTDlg.obj
 0002:0000d3d0       ??_C@_0EN@BJLJKGMM@?$FLMAIL?$FN?5?$JBO?$INH?$JC?v?ar?$IP?$JB?$IN?$JO?$IC?$NN?$IK?$KO?$JH?$LJ?$JC?J?$JCm?5?$CIF@ 00000001400713d0     TO_DEFECTDlg.obj
 0002:0000d420       ??_C@_0BD@BBJEACIK@?$FL?$CFs?$IDR?$IDC?$ID?$IL?$IP?n?$JF?q?$IO?s?$JAM?$FN?$AA@ 0000000140071420     TO_DEFECTDlg.obj
 0002:0000d438       ??_C@_0CO@JOAIGGD@?$FLMAIL?$FN?5?$IDC?$IDj?$IDV?$ID?$ID?$ID?$IL?$JD?$GA?$JF?$LG?$IO?s?$JAM?5?$CIFACT_@ 0000000140071438     TO_DEFECTDlg.obj
 0002:0000d470       ??_C@_0EM@BMKCGALA@?$FLMAIL?$FN?5?$IO?$MA?$JA?Q?$IP?$JB?$IC?$KL?$IN?$JO?$IC?$NN?$IP?s?$IL?$LF?$JG?b?$IN?$IH?$IC?$LJ?5?$CIF@ 0000000140071470     TO_DEFECTDlg.obj
 0002:0000d4c0       ??_C@_0GL@DDGLOGG@?$FLMAIL?$FN?5?$JDr?$JC?$IG?$IKJ?$IOn?$JHv?$IL?$IB?5?$CIFACT_TO_DEF@ 00000001400714c0     TO_DEFECTDlg.obj
 0002:0000d530       ??_C@_0DH@NCEJLFF@?$FLMAIL?$FN?5?$ID?$HL?$IDC?$IDX?$IMx?$JF?q?$IPo?$JH?M?$IJ?p?$IP?$JM?$JHv?$IL?$IB?5?$CIF@ 0000000140071530     TO_DEFECTDlg.obj
 0002:0000d570       ??_C@_0EM@HFCFPPCE@?$FLMAIL?$FN?5?$JDr?$JC?$IG?$JC?b?$IO?$HO?$JHv?$IL?$IB?5?$CIFACT_TO_DEF@ 0000000140071570     TO_DEFECTDlg.obj
 0002:0000d5c0       ??_C@_0ED@OCGLBLCF@?$FL?$CFs?$DL?5?$CFs?$DL?5s?$DN?$CFd?3?$CFd?$DL?5p?$DN?$CFd?3?$CFd?0?5?$ID?$IN?$IDW?$ID@ 00000001400715c0     TO_DEFECTDlg.obj
 0002:0000d610       ??_C@_0FE@MPEIJFCB@?$FLMAIL?$FN?5?$JDr?$JC?$IG?$IKJ?$IOn?$IDA?$ID?$JD?$IDT?$IB?$FL?5?$CIFACT_TO@ 0000000140071610     TO_DEFECTDlg.obj
 0002:0000d668       ??_C@_0CC@MCAOLPFP@?$IM?$JP?$IN?$LI?$JC?b?$IO?$HO?$IL?f?$JF?$KK?$DN?$ID?$IN?$IDW?$IDb?$IDN?$IDp?$ID?$IJ?$ID?$IJ?$ID?$JDPC?$CF@ 0000000140071668     TO_DEFECTDlg.obj
 0002:0000d690       ??_C@_0DM@HJLCONEI@?$FLMAIL?$FN?5?$IDJ?$ID?$IB?$ID?$IJ?$ID?$IK?$ID?$JD?$IDN?$IDX?$IDC?$IDb?$ID?$GA?$JA?$NN?$JC?h?$IK@ 0000000140071690     TO_DEFECTDlg.obj
 0002:0000d6d0       ??_C@_0EG@KKIHAAGM@?$FLMAIL?$FN?5?$JDr?$JC?$IG?$JC?b?$IO?$HO?$IDA?$ID?$JD?$IDT?$IB?$FL?5?$CIFACT_TO@ 00000001400716d0     TO_DEFECTDlg.obj
 0002:0000d720       ??_C@_0JJ@GLBODCBC@?$FLMAIL?$FN?5?$IDJ?$ID?$IB?$ID?$IJ?$JBI?$JB?p?$JA?$NN?$JC?h?$IK?$KO?$JH?$LJ?$JC?J?$JCm?5?$CIF@ 0000000140071720     TO_DEFECTDlg.obj
 0002:0000d7c0       ??_C@_0FE@CAHFMGHJ@?$FLMAIL?$FN?5?$JDr?$JC?$IG?$IOQ?$IJ?A?$JA?$NN?$JC?h?$IK?$KO?$JH?$LJ?$JC?J?$JCm?5?$CIFAC@ 00000001400717c0     TO_DEFECTDlg.obj
 0002:0000d818       ??_C@_0N@EIOKLDOC@?$FLEventNo?$DN?$CFd?$FN?$AA@ 0000000140071818     TO_DEFECTDlg.obj
 0002:0000d828       ??_C@_0BN@MJPCGLOJ@?$FLMAIL?$FN?5DB?$II?Y?$IP?m?$IC?I?$IC?f?$IC?h?5?$IM?$JP?$IN?$LI?$JC?b?$IO?$HO?$AA@ 0000000140071828     TO_DEFECTDlg.obj
 0002:0000d848       ??_C@_05OMNIFHIN@?$CF0?42f?$AA@ 0000000140071848     TO_DEFECTDlg.obj
 0002:0000d850       ??_C@_05ONBKDNLK@?$CF0?43f?$AA@ 0000000140071850     TO_DEFECTDlg.obj
 0002:0000d858       ??_C@_02GMHACPFF@?$CFu?$AA@ 0000000140071858     TO_DEFECTDlg.obj
 0002:0000d85c       ??_C@_05OLNBPPFB@?$CF0?46f?$AA@ 000000014007185c     TO_DEFECTDlg.obj
 0002:0000d864       ??_C@_05LCKIIOJE@?$CFd?1?$CFd?$AA@ 0000000140071864     TO_DEFECTDlg.obj
 0002:0000d86c       ??_C@_05OOJOOJNE@?$CF0?41f?$AA@ 000000014007186c     TO_DEFECTDlg.obj
 0002:0000d874       ??_C@_05GFOLEBJA@?$CFs?1?$CFs?$AA@ 0000000140071874     TO_DEFECTDlg.obj
 0002:0000d880       ??_C@_08OBGMOMHH@?$CFs?1?$CFs?1?$CFs?$AA@ 0000000140071880     TO_DEFECTDlg.obj
 0002:0000d890       ??_C@_0BH@GLEKHBAE@?$FLDEBUG?$FN?5?$JCT?$IP?$JN?$JC?b?$IO?$HO?$ID?$HL?$ID?$FO?$ID?$JD?$AA@ 0000000140071890     TO_DEFECTDlg.obj
 0002:0000d8b0       ??_C@_0GE@HIJNMCEG@?$FLDEBUG?$FN?5?$JCT?$IP?$JN?$IKJ?$IOn?$ID?$HL?$ID?$FO?$ID?$JD?5?$FL?$CFs?0?5?$CFs?0?5@ 00000001400718b0     TO_DEFECTDlg.obj
 0002:0000d918       ??_C@_0CG@HPPEKBED@?$FLDEBUG?$FN?5?$JDr?$JC?$IG?$JC?b?$IO?$HO?$ID?$HL?$ID?$FO?$ID?$JD?5?$FL?$IDp?$ID?$IJ?$ID?$IJ?$ID?$JD@ 0000000140071918     TO_DEFECTDlg.obj
 0002:0000d940       ??_C@_0EO@PPDADAOE@?$FLDEBUG?$FN?5?$JDr?$JC?$IG?$IKJ?$IOn?$ID?$HL?$ID?$FO?$ID?$JD?5?$FL?$CFs?0?5?$CFs?0?5@ 0000000140071940     TO_DEFECTDlg.obj
 0002:0000d990       ??_C@_0CP@FJDEGKBE@?$FLDEBUG?$FN?5?$IDJ?$ID?$IB?$ID?$IJ?$ID?$IK?$ID?$JD?$IDN?$IDX?$IDC?$IDb?$ID?$GA?$JA?$NN?$JC?h@ 0000000140071990     TO_DEFECTDlg.obj
 0002:0000d9c0       ??_C@_0BP@OHOJHIML@?$FLDEBUG?$FN?5?$JE?$LL?$JC?h?$JB?$LB?$INs?$JFs?$JE?2?$IJ?p?$IP?$JM?$ID?$HL?$ID?$FO?$ID?$JD?$AA@ 00000001400719c0     TO_DEFECTDlg.obj
 0002:0000d9e0       ??_C@_0BN@JDNAMEKB@?$FLDEBUG?$FN?5?$IDp?$ID?$IJ?$ID?$IB?$IB?$FL?$ID?$FO?$IO?f?$JD?$LO?$ID?$HL?$ID?$FO?$ID?$JD?$AA@ 00000001400719e0     TO_DEFECTDlg.obj
 0002:0000da00       ??_C@_0CF@NDACADD@?$FLDEBUG?$FN?5?$IDJ?$ID?$IB?$ID?$IJ?$JBI?$JB?p?$JA?$NN?$JC?h?$IK?$KO?$JH?$LJ?$JC?J?$JCm?$ID?$HL@ 0000000140071a00     TO_DEFECTDlg.obj
 0002:0000da28       ??_C@_0CB@LCCAKJLB@?$FLDEBUG?$FN?5?$IL?$FL?$IO?$JH?$IM?$JP?$IN?$LI?$IDR?$IDC?$ID?$IL?$IO?s?$JAM?$ID?$HL?$ID?$FO?$ID?$JD@ 0000000140071a28     TO_DEFECTDlg.obj
 0002:0000da50       ??_C@_0DH@OFICKPLF@?$FLDEBUG?$FN?5?$JDr?$JC?$IG?$IOQ?$IJ?A?$JA?$NN?$JC?h?$IK?$KO?$JH?$LJ?$ID?$HL?$ID?$FO?$ID?$JD?5?$FL@ 0000000140071a50     TO_DEFECTDlg.obj
 0002:0000da88       ??_C@_0CA@NOEDEPIC@?$FLDEBUG?$FN?5?$IM?$JP?$IN?$LI?$JHp?$IP?n?$JF?q?5?$IN?D?$IO?s?$JAM?$ID?$HL?$ID?$FO?$ID?$JD?$AA@ 0000000140071a88     TO_DEFECTDlg.obj
 0002:0000daa8       ??_C@_0CB@CGJEFEHN@?$FLDEBUG?$FN?5?$IL?$FL?$IO?$JH?$JF?2?$IO?$KG?$IDR?$IDC?$ID?$IL?$IO?s?$JAM?$ID?$HL?$ID?$FO?$ID?$JD@ 0000000140071aa8     TO_DEFECTDlg.obj
 0002:0000dad0       ??_C@_0BO@MIIGLHDA@?$FLDEBUG?$FN?5?$IM?$JP?$IN?$LI?$IK?n?$JD_WPD?$IM?$JP?$IPo?$ID?$HL?$ID?$FO?$ID?$JD?$AA@ 0000000140071ad0     TO_DEFECTDlg.obj
 0002:0000daf0       ??_C@_0CA@CLOIMIFH@?$FLDEBUG?$FN?5?$JF?2?$IO?$KG?$JHp?$IP?n?$JF?q?5?$IN?D?$IO?s?$JAM?$ID?$HL?$ID?$FO?$ID?$JD?$AA@ 0000000140071af0     TO_DEFECTDlg.obj
 0002:0000db10       ??_C@_0CG@BIONDFCG@?$FLDEBUG?$FN?5?$IM?$JP?$IN?$LI?$IK?n?$JD_WPD?$IM?$JP?$IPo?$CIDM?$IC?L?$IC?$NN?$CJ?$ID@ 0000000140071b10     TO_DEFECTDlg.obj
 0002:0000db38       ??_C@_0BO@FKMAINFG@?$FLDEBUG?$FN?5?$JF?2?$IO?$KG?$IK?n?$JD_WPD?$IM?$JP?$IPo?$ID?$HL?$ID?$FO?$ID?$JD?$AA@ 0000000140071b38     TO_DEFECTDlg.obj
 0002:0000db58       ??_C@_0CK@DLHAHCIJ@?$FLDEBUG?$FN?5?$IDv?$ID?$IN?$IDR?$ID?$JD?5?$IDC?$IDj?$IDV?$ID?$ID?$ID?$IL?$JD?$GA?$JF?$LG?$IO@ 0000000140071b58     TO_DEFECTDlg.obj
 0002:0000db88       ??_C@_0CG@HALNPLAH@?$FLDEBUG?$FN?5?$JF?2?$IO?$KG?$IK?n?$JD_WPD?$IM?$JP?$IPo?$CIDM?$IC?L?$IC?$NN?$CJ?$ID@ 0000000140071b88     TO_DEFECTDlg.obj
 0002:0000dbb0       ??_C@_0CF@GHAKIJKP@?$FLDEBUG?$FN?5?$IDp?$IDg?$ID?$IJ?$IDC?$IDg?$ID?$IK?$IDZ?$IDb?$IDg?$JAM?$IN?$IG?$ID?$HL@ 0000000140071bb0     TO_DEFECTDlg.obj
 0002:0000dbd8       ??_C@_0CB@DEDNEDNC@?$FLDEBUG?$FN?5?$IDV?$ID?$ID?$IB?$FL?$IDJ?$IDb?$IDg?$JA?$LG?$JAM?$IN?$IG?$ID?$HL?$ID?$FO?$ID?$JD@ 0000000140071bd8     TO_DEFECTDlg.obj
 0002:0000dc00       ??_C@_0DD@BIOOKJMC@?$FLDEBUG?$FN?5?$ID?$HL?$IDC?$IDX?$IMx?$JF?q?$IPo?$JH?M?$IJ?p?$IP?$JM?$JHv?$IL?$IB?$IBi@ 0000000140071c00     TO_DEFECTDlg.obj
 0002:0000dc38       ??_C@_0CN@JAABKJIN@?$FLDEBUG?$FN?5?$IDV?$IB?$FL?$IDP?$ID?$JD?$IDT?$IDJ?$IDE?$ID?$JD?$ID?$FO?$ID?$IK?$IDZ?$IDb@ 0000000140071c38     TO_DEFECTDlg.obj
 0002:0000dc68       ??_C@_0BJ@FCHENEKH@?$FLDEBUG?$FN?5LED?$IO?$KJ?$JD?$KO?$IP?A?$JD?$JE?5?$DM?$CFs?$DO?$AA@ 0000000140071c68     TO_DEFECTDlg.obj
 0002:0000dc88       ??_C@_0DD@BENPHMPG@?$FLDEBUG?$FN?5?$ID?$HL?$IDC?$IDX?$IMx?$JF?q?$IPo?$JH?M?$IJ?p?$IP?$JM?$JHv?$IL?$IB?$IBi@ 0000000140071c88     TO_DEFECTDlg.obj
 0002:0000dcc0       ??_C@_0P@EDHFDBDI@test?$CF02d?5?5?5?5?5?5?$AA@ 0000000140071cc0     TO_DEFECTDlg.obj
 0002:0000dcd0       ??_C@_0L@CCBFPMDD@?5?5?5?5?5?5?5?5?5?5?$AA@ 0000000140071cd0     TO_DEFECTDlg.obj
 0002:0000dce0       ??_C@_0CB@FKGFHLLE@ABCD?5?5?5?5?5?5?5?5?5?5?5?5?5?5?5?5?5?5?5?5?5?5?5?5?5?5?5?5@ 0000000140071ce0     TO_DEFECTDlg.obj
 0002:0000dd08       ??_C@_0CM@PDMPNAGO@?$FLKikiManager?$FN?5?$IDX?$IDe?$IB?$FL?$ID?$FO?$IDX?$JF?O?$INX?$IL?$KN?$JA?$KH@ 0000000140071d08     DefectLib:KikiManager.obj
 0002:0000dd38       ??_C@_0CC@CGKBGMMO@?$FLKikiManager?$FN?5?$IDX?$ID?$IM?$IDb?$IDh?$IKJ?$IOn?5?$FL0x?$CFX@ 0000000140071d38     DefectLib:KikiManager.obj
 0002:0000dd60       ??_C@_0BJ@DIECIOMB@?$FLKikiManager?$FN?5?$JA?Z?$JB?$LB?$IDG?$ID?$IJ?$IB?$FL?$AA@ 0000000140071d60     DefectLib:KikiManager.obj
 0002:0000dd80       ??_C@_0CC@IMDNPLAN@?$FLKikiManager?$FN?5?$IDX?$ID?$IM?$IDb?$IDh?$IPI?$JH?$LJ?5?$FL0x?$CFX@ 0000000140071d80     DefectLib:KikiManager.obj
 0002:0000dda8       ??_C@_0BH@LAHPGPA@?$FLKikiManager?$FN?5?$JA?Z?$JB?$LB?$IK?$KO?$JH?$LJ?$AA@ 0000000140071da8     DefectLib:KikiManager.obj
 0002:0000ddc0       ??_C@_0O@KDPIKMGG@?$FLKikiManager?$FN?$AA@ 0000000140071dc0     DefectLib:KikiManager.obj
 0002:0000ddd0       ??_C@_0GL@DAIBPBPG@SELECT?5m?4?$IL?$EA?$IK?mID?0?5m?4PCID?0?5m?4?$II?Y?$IP?m?$JE@ 0000000140071dd0     DefectLib:KikiManager.obj
 0002:0000de40       ??_C@_0BN@PBJEINBN@?$FLKikiManager?$FN?5DB?$JA?Z?$JB?$LB?$IO?$LI?$JEs?$IBI?$IBI?$AA@ 0000000140071e40     DefectLib:KikiManager.obj
 0002:0000de60       ??_C@_04CMDBKEOL@?0?50?5?$AA@ 0000000140071e60     DefectLib:KikiManager.obj
 0002:0000de70       ??_C@_0GC@MJAHPJNH@?0?5?$CICASE?5WHEN?5m?4?$IDV?$IDX?$IDe?$ID?$IA?$JE?M?$II?M?5IS?5N@ 0000000140071e70     DefectLib:KikiManager.obj
 0002:0000ded4       ??_C@_06NCMDGOAM@FROM?5?$CI?$AA@ 0000000140071ed4     DefectLib:KikiManager.obj
 0002:0000dee0       ??_C@_0N@ICHLKGKD@?0?5m?4?$II?Y?$IP?mMSG?5?$AA@ 0000000140071ee0     DefectLib:KikiManager.obj
 0002:0000def0       ??_C@_03KLACPDAM@?5m?5?$AA@ 0000000140071ef0     DefectLib:KikiManager.obj
 0002:0000def8       ??_C@_0BA@KDKFIAII@M_STATUS_MASTER?$AA@ 0000000140071ef8     DefectLib:KikiManager.obj
 0002:0000df08       ??_C@_0N@HGGMEBBH@M_STATUS_INF?$AA@ 0000000140071f08     DefectLib:KikiManager.obj
 0002:0000df18       ??_C@_0M@BMOKEPCJ@INNER?5JOIN?5?$AA@ 0000000140071f18     DefectLib:KikiManager.obj
 0002:0000df28       ??_C@_0BC@PGKFIPMA@?5LEFT?5OUTER?5JOIN?5?$AA@ 0000000140071f28     DefectLib:KikiManager.obj
 0002:0000df40       ??_C@_0BN@DOJDFJMA@?5i?5ON?5m?4?$IL?$EA?$IK?mID?5?$DN?5i?4?$IL?$EA?$IK?mID?5?$CJ?5?$AA@ 0000000140071f40     DefectLib:KikiManager.obj
 0002:0000df60       ??_C@_0EK@NDDGIIGN@ORDER?5BY?5ISNULL?$CIm?4?$JHD?$JA?f?$JDx?0?5500?$CJ?5a@ 0000000140071f60     DefectLib:KikiManager.obj
 0002:0000dfb0       ??_C@_0BH@GPLOCIND@?5p?5ON?5m?4PCID?5?$DN?5p?4PCID?5?$AA@ 0000000140071fb0     DefectLib:KikiManager.obj
 0002:0000dfc8       ??_C@_0CC@NKNBHGKK@?$FLKikiManager?$FN?5ExecuteDirect?$IDG?$ID?$IJ?$IB@ 0000000140071fc8     DefectLib:KikiManager.obj
 0002:0000dff0       ??_C@_0DF@CGNMOPOE@?$FLKikiManager?$FN?5?$IDX?$IDe?$IB?$FL?$ID?$FO?$IDX?$IO?f?$JD?$LO?$IO?$LI?$JEs@ 0000000140071ff0     DefectLib:KikiManager.obj
 0002:0000e028       ??_C@_0BG@BDKJFLKI@?$FLKikiManager?5data?$DN?$CFd?$FN?$AA@ 0000000140072028     DefectLib:KikiManager.obj
 0002:0000e040       ??_C@_0BN@EHGNNOBD@?$FLKikiManager?$FN?5?$IDf?$IB?$FL?$ID?$FO?$JFs?$JA?$LD?$FL?$CFd?$FN?$AA@ 0000000140072040     DefectLib:KikiManager.obj
 0002:0000e060       ??_C@_0CA@MLCJEKEC@CONVERT?$CIdatetime?0?8?$CFd?1?$CFd?1?$CFd?8?$CJ?9?$CFd?$AA@ 0000000140072060     DefectLib:KikiManager.obj
 0002:0000e080       ??_C@_0BK@ECFHNPFB@?$FLKikiManager?$FN?5Fetch?$IDG?$ID?$IJ?$IB?$FL?$AA@ 0000000140072080     DefectLib:KikiManager.obj
 0002:0000e0a0       ??_C@_09FPDFNABO@T_LOG_INF?$AA@ 00000001400720a0     DefectLib:KikiManager.obj
 0002:0000e0b0       ??_C@_0IH@PJDBJCKO@SELECT?5TOP?51?5?8?$IBy?8?$CLSUBSTRING?$CICONV@ 00000001400720b0     DefectLib:KikiManager.obj
 0002:0000e138       ??_C@_0N@OFALEFBH@M_LOG_MASTER?$AA@ 0000000140072138     DefectLib:KikiManager.obj
 0002:0000e148       ??_C@_0BC@ILNLBIEH@?5as?5I?5INNER?5JOIN?5?$AA@ 0000000140072148     DefectLib:KikiManager.obj
 0002:0000e160       ??_C@_0BJ@IEJLCHOE@?5WHERE?5M?4?$IDI?$IDy?$IDK?$IDC?$JHL?$JG?$LD?$DN1?5?$AA@ 0000000140072160     DefectLib:KikiManager.obj
 0002:0000e180       ??_C@_0CG@FODLECMH@?5as?5M?5ON?5I?4?$IDA?$ID?$IJ?$IB?$FL?$ID?$IANo?5?$DN?5M?4?$IDA?$ID?$IJ?$IB?$FL@ 0000000140072180     DefectLib:KikiManager.obj
 0002:0000e1b0       ??_C@_0EA@IJDICHFJ@?5AND?5DATEDIFF?$CISECOND?0?5I?4?$JDo?$JI?$FO?$JD?z?$JFt@ 00000001400721b0     DefectLib:KikiManager.obj
 0002:0000e1f0       ??_C@_0BE@LPABGKLO@?5AND?5I?4?$JDo?$JI?$FO?$JD?z?$JFt?5?$DO?$DN?5?$AA@ 00000001400721f0     DefectLib:KikiManager.obj
 0002:0000e208       ??_C@_0DN@BIGOJBBF@?$FLKikiManager?$FN?5?$IDX?$IDe?$IB?$FL?$ID?$FO?$IDX?$JDo?$JI?$FO?$II?K?$JH?$IK@ 0000000140072208     DefectLib:KikiManager.obj
 0002:0000e248       ??_C@_0BK@DLFBAMIJ@?5ORDER?5BY?5I?4?$JDo?$JI?$FO?$JD?z?$JFt?5DESC?$AA@ 0000000140072248     DefectLib:KikiManager.obj
 0002:0000e268       ??_C@_0CK@CFMCOJMF@UPDATE?5?$CFs?5SET?5?$IL?$EA?$IK?m?$IP?s?$JB?T?$DN?$CFd?5WHERE?5@ 0000000140072268     DefectLib:KikiManager.obj
 0002:0000e298       ??_C@_0BM@JDOMPHCB@?$FLKikiManager?$FN?$CIid?3?$CFd?$CJ?$CIst?3?$CFd?$CJ?$AA@ 0000000140072298     DefectLib:KikiManager.obj
 0002:0000e2b8       ??_C@_0DH@LBEBBLAP@?$FLKikiManager?$FN?5?$JE?q?$JD?$KP?$IK?z?$IDX?$IDe?$IB?$FL?$ID?$FO?$IDX?$JF?O@ 00000001400722b8     DefectLib:KikiManager.obj
 0002:0000e2f0       ??_C@_0DL@LJMIMJDE@?$FLKikiManager?$FN?5?$JE?q?$JD?$KP?$IK?z?$IDX?$IDe?$IB?$FL?$ID?$FO?$IDX?$JF?O@ 00000001400722f0     DefectLib:KikiManager.obj
 0002:0000e330       ??_C@_0BN@GLIEHKFL@?$FLKikiManager?5?$IDX?$IDe?$IB?$FL?$ID?$FO?$IDX?$JF?O?$INX?$FN?$AA@ 0000000140072330     DefectLib:KikiManager.obj
 0002:0000e358       ??_7?$ThreadQueue@UDELIVERYSTATUS@KikiManager@@@KizuLib@@6B@ 0000000140072358     DefectLib:KikiManager.obj
 0002:0000e368       ??_7KikiManager@@6B@       0000000140072368     DefectLib:KikiManager.obj
 0002:0000e378       ??_C@_0BC@GEGBCGKE@turbojpeg_x64?4dll?$AA@ 0000000140072378     DefectLib:KizuLjtJpegManager.obj
 0002:0000e390       ??_C@_0M@JFLJADMN@tjCompress2?$AA@ 0000000140072390     DefectLib:KizuLjtJpegManager.obj
 0002:0000e3a0       ??_C@_0P@HHOFKPM@tjInitCompress?$AA@ 00000001400723a0     DefectLib:KizuLjtJpegManager.obj
 0002:0000e3b0       ??_C@_0BB@LIMNMOLK@tjInitDecompress?$AA@ 00000001400723b0     DefectLib:KizuLjtJpegManager.obj
 0002:0000e3c8       ??_C@_09KDGHAJNB@tjDestroy?$AA@ 00000001400723c8     DefectLib:KizuLjtJpegManager.obj
 0002:0000e3d8       ??_C@_0O@DADEPNFB@tjDecompress2?$AA@ 00000001400723d8     DefectLib:KizuLjtJpegManager.obj
 0002:0000e3e8       ??_C@_0BE@MILGPIIP@tjDecompressHeader3?$AA@ 00000001400723e8     DefectLib:KizuLjtJpegManager.obj
 0002:0000e400       ??_C@_0CJ@KHBLPEID@?$FLDBSaveManager?$FN?5?$DM?$CFd?$DO?5?$IDX?$ID?$IM?$IDb?$IDh?$IPI?$JH@ 0000000140072400     DefectLib:DBSaveManager.obj
 0002:0000e430       ??_C@_0CJ@NIHGDEA@?$FLDBSaveManager?$FN?5?$DM?$CFd?$DO?5?$IDX?$ID?$IM?$IDb?$IDh?$IKJ?$IO@ 0000000140072430     DefectLib:DBSaveManager.obj
 0002:0000e460       ??_C@_0DD@CHOBOBKP@?$FLDBSaveManager?$FN?5?$DM?$CFd?$DO?5?$IO?$MA?$INs?$IP?$IH?$JE?T?$JB?R?$IC@ 0000000140072460     DefectLib:DBSaveManager.obj
 0002:0000e498       ??_C@_0CI@DKIKEEGJ@?$FLDBSaveManager?$FN?5?$DM?$CFd?$DO?5SQL?$JF?$LG?$IL?$KN?$JA?$KH?$IKJ@ 0000000140072498     DefectLib:DBSaveManager.obj
 0002:0000e4c0       ??_C@_0EF@GIBOGJDD@?$FLDBSaveManager?$FN?5?$DM?$CFd?$DO?5SQL?$IDo?$IDC?$IDi?$ID?$IK@ 00000001400724c0     DefectLib:DBSaveManager.obj
 0002:0000e508       ??_C@_0DC@FCLBJHCL@?$FLDBSaveManager?$FN?5?$DM?$CFd?$DO?5?$IP?$IH?$IP?$JI?$JF?$NL?$IP?aSQL@ 0000000140072508     DefectLib:DBSaveManager.obj
 0002:0000e540       ??_C@_0BA@BDEPMKBE@?$FLDBSaveManager?$FN?$AA@ 0000000140072540     DefectLib:DBSaveManager.obj
 0002:0000e550       ??_C@_0CL@CGHHLAGH@?$FLDBSaveManager?$FN?5?$DM?$CFd?$DO?5SQL?$IDo?$IDC?$IDi?$ID?$IK@ 0000000140072550     DefectLib:DBSaveManager.obj
 0002:0000e580       ??_C@_0DE@LBINOEKG@?$FLDBSaveManager?$FN?5?$DM?$CFd?$DO?5SQL?$JDo?$JI?$FO?$IM?c?$IC?L@ 0000000140072580     DefectLib:DBSaveManager.obj
 0002:0000e5b8       ??_C@_0CD@BIHEKPKA@?$FLDBSaveManager?$FN?5?$DM?$CFd?$DO?5SQL?$JDo?$JI?$FO?$IDG?$ID?$IJ@ 00000001400725b8     DefectLib:DBSaveManager.obj
 0002:0000e5e0       ??_C@_0BO@MKDPCEMJ@?$FLDBSaveManager?$FN?5?$DM?$CFd?$DO?5?$JA?Z?$JB?$LB?$IK?$KO?$JH?$LJ?$AA@ 00000001400725e0     DefectLib:DBSaveManager.obj
 0002:0000e600       ??_C@_0CA@FOBLHBLL@?$FLDBSaveManager?$FN?5?$DM?$CFd?$DO?5?$JA?Z?$JB?$LB?$IDG?$ID?$IJ?$IB?$FL?$AA@ 0000000140072600     DefectLib:DBSaveManager.obj
 0002:0000e620       ??_C@_0BK@MNJFLHHK@?$FLDBSaveManager?$FN?5?$DM?$CFd?$DO?5?$JA?X?$JCf?$AA@ 0000000140072620     DefectLib:DBSaveManager.obj
 0002:0000e648       ??_7DBSaveManager@@6B@     0000000140072648     DefectLib:DBSaveManager.obj
 0002:0000e660       ??_C@_0EN@JKBCKPPA@?$FLKizuHtRecv?$FN?5?$DM?$CFs?$DO?5?$JBS?$IDN?$ID?$IJ?$IDC?$ID?$JD?$IDg?$IC?$KK@ 0000000140072660     DefectLib:KizuHtRecv.obj
 0002:0000e6b0       ??_C@_0EO@KJPDIFAE@?$FLKizuHtRecv?$FN?5?$DM?$CFs?$DO?5?$IL?F?$JG?$LB?$JD?$GA?$JF?$LG?$JD?$GA?$JF?$LG?5?$ID@ 00000001400726b0     DefectLib:KizuHtRecv.obj
 0002:0000e700       ??_C@_0EB@IJGNGHDM@?$FLKizuHtRecv?$FN?5?$DM?$CFs?$DO?5?$IDw?$IDb?$ID_?$IB?$FL?$IO?s?$JAM?$IJ?B@ 0000000140072700     DefectLib:KizuHtRecv.obj
 0002:0000e748       ??_C@_0DN@KKMPCMOE@?$FLKizuHtRecv?$FN?5?$DM?$CFs?$DO?5?$IL?F?$JG?$LB?$JD?$GA?$JF?$LG?$JD?$GA?$JF?$LG?5?$JI@ 0000000140072748     DefectLib:KizuHtRecv.obj
 0002:0000e788       ??_C@_0BM@BHBFJDHI@?$FLTC?$II?Y?$IP?m?5name?$DN?$CFs?5code?$DN?$CF4?44s?$FN?$AA@ 0000000140072788     DefectLib:KizuHtRecv.obj
 0002:0000e7a8       ??_C@_0DE@EKPKGBC@?$FLKizuHtRecv?$FN?5?$DM?$CFs?$DO?5?$JF?$KI?$JH?$JN?$IJ?q?$JA?$PM?$IO?s?$JAM?$IK?$KO@ 00000001400727a8     DefectLib:KizuHtRecv.obj
 0002:0000e7e0       ??_C@_0BP@EOAPMMLF@?$FL?$JI_?$JH?$JN?$IJ?q?$JA?$PMID?$II?Y?$IP?m?5name?$DN?$CFs?5id?$DN?$CFd?$FN?$AA@ 00000001400727e0     DefectLib:KizuHtRecv.obj
 0002:0000e800       ??_C@_0EK@JPJNLLAG@?$FLKizuHtRecv?$FN?5?$DM?$CFs?$DO?5?$IDC?$IDj?$IDV?$ID?$ID?$ID?$IL?$JD?$GA?$JF?$LG@ 0000000140072800     DefectLib:KizuHtRecv.obj
 0002:0000e84c       ??_C@_02DPGNLHGP@NM?$AA@   000000014007284c     DefectLib:KizuHtRecv.obj
 0002:0000e850       ??_C@_0CK@GMADBHNH@?$FLKizuHtRecv?$FN?5?$FL?$CFd?$FN?5?$DM?$CFs?$DO?5?$IDC?$IDj?$IDV?$ID?$ID?$ID@ 0000000140072850     DefectLib:KizuHtRecv.obj
 0002:0000e880       ??_C@_0BI@IJBMKPLK@?$FLsection?$DN?$CFs?5code?$DN?$CF4?44s?$FN?$AA@ 0000000140072880     DefectLib:KizuHtRecv.obj
 0002:0000e898       ??_C@_0CE@KONFFNHF@?$FL?$JI_?$JH?$JN?$IJ?q?$JA?$PM?$JA?$JE?$II?Y?$IP?m?5name?$DN?$CFs?5recvcnt?$DN@ 0000000140072898     DefectLib:KizuHtRecv.obj
 0002:0000e8c0       ??_C@_0EH@DJGHBLLO@?$FLKizuHtRecv?$FN?5?$DM?$CFs?$DO?5?$IDC?$IDj?$IDV?$ID?$ID?$ID?$IL?$JD?$GA?$JF?$LG@ 00000001400728c0     DefectLib:KizuHtRecv.obj
 0002:0000e908       ??_C@_09PAMGHFMC@?$FLname?$DN?$CFs?$FN?$AA@ 0000000140072908     DefectLib:KizuHtRecv.obj
 0002:0000e918       ??_C@_0DI@PNGPEMGK@?$FLKizuHtRecv?$FN?5?$DM?$CFs?$DO?5?$IDC?$IDj?$IDV?$ID?$ID?$ID?$IL?$JD?$GA?$JF?$LG@ 0000000140072918     DefectLib:KizuHtRecv.obj
 0002:0000e950       ??_C@_0BJ@LMMFNNCP@?$FLPCID?$JG?$KC?$IK?$IE?$IC?h?$JD?$JG?$IC?D?5name?$DN?$CFs?$FN?$AA@ 0000000140072950     DefectLib:KizuHtRecv.obj
 0002:0000e970       ??_C@_0DL@GAKJBICE@?$FLKizuHtRecv?$FN?5?$DM?$CFs?$DO?5?$IDC?$IDj?$IDV?$ID?$ID?$ID?$IL?$JD?$GA?$JF?$LG@ 0000000140072970     DefectLib:KizuHtRecv.obj
 0002:0000e9b0       ??_C@_0CP@CHFNGECD@?$FLKizuHtRecv?$FN?5?$DM?$CFs?$DO?5?$ID?2?$IDP?$IDb?$IDg?5New?$IO?$LI@ 00000001400729b0     DefectLib:KizuHtRecv.obj
 0002:0000e9e0       ??_C@_0EI@OAFFMONE@?$FLKizuHtRecv?$FN?5?$DM?$CFs?$DO?5?$IDt?$ID?$IM?$IB?$FL?$ID?$IANo?$JAH?$IC?$KC@ 00000001400729e0     DefectLib:KizuHtRecv.obj
 0002:0000ea28       ??_C@_0DC@BIOOGIJF@?$FLKizuHtRecv?$FN?5?$DM?$CFs?$DO?5?$ID?2?$IDP?$IDb?$IDg?5Liste@ 0000000140072a28     DefectLib:KizuHtRecv.obj
 0002:0000ea60       ??_C@_0BC@ELPNMIEA@?$FL?$CFs?3?5err_code?$DN?$CFd?$FN?$AA@ 0000000140072a60     DefectLib:KizuHtRecv.obj
 0002:0000ea78       ??_C@_0CJ@BKIHFIEJ@?$FLKizuHtRecv?$FN?5?$DM?$CFs?$DO?5?$IDN?$ID?$IJ?$IDC?$IDA?$ID?$JD?$IDg?$JA?$JE@ 0000000140072a78     DefectLib:KizuHtRecv.obj
 0002:0000eaa8       ??_C@_0CG@GKKLEOFB@?$FLKizuHtRecv?$FN?5?$DM?$CFs?$DO?5?$ID?2?$IDP?$IDb?$IDg?5Liste@ 0000000140072aa8     DefectLib:KizuHtRecv.obj
 0002:0000ead0       ??_C@_0CA@NLLGOCGE@?$FL?$CIHEAD?$CJ?5section?$DN?$CFs?5err_code?$DN?$CFd?$FN?$AA@ 0000000140072ad0     DefectLib:KizuHtRecv.obj
 0002:0000eaf0       ??_C@_0DD@MFJKKFKA@?$FLKizuHtRecv?$FN?5?$DM?$CFs?$DO?5?$IDw?$IDb?$ID_?$IB?$FL?$IO?s?$JAM?$IDG@ 0000000140072af0     DefectLib:KizuHtRecv.obj
 0002:0000eb30       ??_C@_0FN@GGFHFPGJ@?$FLKizuHtRecv?$FN?5?$DM?$CFs?$DO?5?$IDf?$IB?$FL?$ID?$FO?$JF?$JE?$IO?s?$JAM?$IDG@ 0000000140072b30     DefectLib:KizuHtRecv.obj
 0002:0000eb90       ??_C@_0BN@NEFLKOCP@?$FL?$CIHEAD?$CJ?5name?$DN?$CFs?5err_code?$DN?$CFd?$FN?$AA@ 0000000140072b90     DefectLib:KizuHtRecv.obj
 0002:0000ebb0       ??_C@_0DP@FONMKDJD@?$FL?$CIDATA?$CJ?5name?$DN?$CFs?5recvid?$DN?$CFd?5size?$DN?$CF@ 0000000140072bb0     DefectLib:KizuHtRecv.obj
 0002:0000ebf8       ??_7KizuHtRecv@@6B@        0000000140072bf8     DefectLib:KizuHtRecv.obj
 0002:0000ec50       ??_7Tracking@@6B@          0000000140072c50     DefectLib:Tracking.obj
 0002:0000ec60       ??_C@_0CG@HNKODLFD@?$FLKizuOpSend?$FN?5?$DM?$CFs?$DO?5?$IDX?$ID?$IM?$IDb?$IDh?$IKJ?$IOn?5?$FL@ 0000000140072c60     DefectLib:KizuOpSend.obj
 0002:0000ec88       ??_C@_0DD@LOOIGINE@?$FLKizuOpSend?$FN?5?$DM?$CFs?$DO?5?$JG?$KC?$JB?$JH?$JAM?$IDL?$ID?$IF?$IB?$FL?$IKJ@ 0000000140072c88     DefectLib:KizuOpSend.obj
 0002:0000ecc0       ??_C@_0CJ@HKNKAONC@?$FLKizuOpSend?$FN?5?$DM?$CFs?$DO?5?$IDN?$ID?$IJ?$IDC?$IDA?$ID?$JD?$IDg?$JA?$JE@ 0000000140072cc0     DefectLib:KizuOpSend.obj
 0002:0000ecf0       ??_C@_0CG@NHDCKMJA@?$FLKizuOpSend?$FN?5?$DM?$CFs?$DO?5?$IDX?$ID?$IM?$IDb?$IDh?$IPI?$JH?$LJ?5?$FL@ 0000000140072cf0     DefectLib:KizuOpSend.obj
 0002:0000ed18       ??_C@_0CO@MAFNIIOK@?$FLKizuOpSend?$FN?5?$DM?$CFs?$DO?5?$ID?2?$IDP?$IDb?$IDg?$JA?Z?$JB?$LB?5?$FL@ 0000000140072d18     DefectLib:KizuOpSend.obj
 0002:0000ed48       ??_C@_0N@HDNAFLPM@?$FLKizuOpSend?$FN?$AA@ 0000000140072d48     DefectLib:KizuOpSend.obj
 0002:0000ed58       ??_C@_0DD@OHGEHNPH@?$FLKizuOpSend?$FN?5?$DM?$CFs?$DO?5?$JB?$JH?$JAM?$JC?$IG?$IC?I?$JA?X?$JCf?$IBI@ 0000000140072d58     DefectLib:KizuOpSend.obj
 0002:0000ed90       ??_C@_0CA@NGBELGEH@?$FL?$CIKizuOpSend?$CJ?5?$CFs?3?5client_no?$DN?$CFd?$FN?$AA@ 0000000140072d90     DefectLib:KizuOpSend.obj
 0002:0000edb0       ??_C@_0CD@KFEFFOEM@?$FLKizuOpSend?$FN?5?$DM?$CFs?$DO?5?$JB?$JH?$JAM?$ID?$FO?$IDC?$ID?$IA?$IDA?$IDE@ 0000000140072db0     DefectLib:KizuOpSend.obj
 0002:0000edd8       ??_C@_0BN@GLDNAKBO@?$FLKizuOpSend?$FN?5?$DM?$CFs?$DO?5?$JA?X?$JCf?$JC?J?$JCm?$IBI?$AA@ 0000000140072dd8     DefectLib:KizuOpSend.obj
 0002:0000edf8       ??_C@_0DJ@OFBCKOKH@?$FLKizuOpSend?$FN?5?$JD?$JN?$IK?$IH?$IB?K?$JF?2?$IO?$KG?$IK?T?5?$IDw?$ID?$IL?$IDV@ 0000000140072df8     DefectLib:KizuOpSend.obj
 0002:0000ee38       ??_C@_0CP@EDHFHJCP@?$FLKizuOpSend?$FN?5?$DM?$CFs?$DO?5?$IDo?$IDb?$IDt?$ID?$EA?$IC?I?$IDL?$ID?$IF@ 0000000140072e38     DefectLib:KizuOpSend.obj
 0002:0000ee68       ??_C@_0CP@JGBPKEJH@?$FLKizuOpSend?$FN?5?$DM?$CFs?$DO?5?$ID?2?$IDP?$IDb?$IDg?5New?$IO?$LI@ 0000000140072e68     DefectLib:KizuOpSend.obj
 0002:0000ee98       ??_C@_0BM@CDLKCBKK@?$FL?$JD?$JN?$IK?$IH?$IB?K?$JF?2?$IO?$KG?$IK?T?5?$IDw?$ID?$IL?$IDV?$IB?$FL?$JD?$GA?$JF?$LG?$FN?$AA@ 0000000140072e98     DefectLib:KizuOpSend.obj
 0002:0000eeb8       ??_C@_0CG@BHJKBLMO@?$FLKizuOpSend?$FN?5?$DM?$CFs?$DO?5?$ID?2?$IDP?$IDb?$IDg?5Liste@ 0000000140072eb8     DefectLib:KizuOpSend.obj
 0002:0000eee0       ??_C@_0DC@IJJBMJBK@?$FLKizuOpSend?$FN?5?$DM?$CFs?$DO?5?$ID?2?$IDP?$IDb?$IDg?5Liste@ 0000000140072ee0     DefectLib:KizuOpSend.obj
 0002:0000ef18       ??_C@_0BP@KIGGDDON@?$FLKizuOpSend?$CI?$CFs?$CJ?3?5client_no?$DN?$CFd?$FN?$AA@ 0000000140072f18     DefectLib:KizuOpSend.obj
 0002:0000ef38       ??_C@_0DC@CPPBKODA@?$FLKizuOpSend?$FN?5?$DM?$CFs?$DO?5?$IDN?$ID?$IJ?$IDC?$IDA?$ID?$JD?$IDg?$JA?X@ 0000000140072f38     DefectLib:KizuOpSend.obj
 0002:0000ef70       ??_C@_0DA@PBMBLCIE@?$FLKizuOpSend?$CI?$CFs?$CJ?0?5client_no?5?$DN?5?$CFd?0@ 0000000140072f70     DefectLib:KizuOpSend.obj
 0002:0000efa0       ??_C@_0DI@GNJPHODN@?$FLKizuOpSend?$FN?5?$DM?$CFs?$DO?5?$JB?$JH?$JAM?$IDG?$ID?$IJ?$IB?$FL?$FLcli@ 0000000140072fa0     DefectLib:KizuOpSend.obj
 0002:0000efe0       ??_7?$ThreadQueue@USOCK_BASE_HEAD@@@KizuLib@@6B@ 0000000140072fe0     DefectLib:KizuOpSend.obj
 0002:0000eff0       ??_7KizuOpSend@@6B@        0000000140072ff0     DefectLib:KizuOpSend.obj
 0002:0000f008       ??_7?$ThreadQueue@UTR_INF@TrackingList@@@KizuLib@@6B@ 0000000140073008     DefectLib:TrackingList.obj
 0002:0000f018       ??_7TrackingList@@6B@      0000000140073018     DefectLib:TrackingList.obj
 0002:0000f028       ??_C@_08NOHFILKB@ODBCNAME?$AA@ 0000000140073028     KizuBCP:BCPManager.obj
 0002:0000f034       ??_C@_06IDCNLAJG@USERID?$AA@ 0000000140073034     KizuBCP:BCPManager.obj
 0002:0000f040       ??_C@_08KENNMKEI@PASSWORD?$AA@ 0000000140073040     KizuBCP:BCPManager.obj
 0002:0000f058       ??_7BCPManager@KizuODBC@@6B@ 0000000140073058     KizuBCP:BCPManager.obj
 0002:0000f060       ??_C@_0BM@GCBKLMHM@?$FL?$CFs?$FN?5?$IDX?$ID?$IM?$IDb?$IDh?$IKJ?$IOn?$DN?$CFd?5?$FL0x?$CFX?$FN?$AA@ 0000000140073060     KizuLibMFC:ThreadManager.obj
 0002:0000f080       ??_C@_0BM@DGEKFHHN@?$FL?$CFs?$FN?5?$IDX?$ID?$IM?$IDb?$IDh?$IPI?$JH?$LJ?$DN?$CFd?5?$FL0x?$CFX?$FN?$AA@ 0000000140073080     KizuLibMFC:ThreadManager.obj
 0002:0000f0a8       ??_7ThreadManager@@6B@     00000001400730a8     KizuLibMFC:ThreadManager.obj
 0002:0000f0e0       ??_C@_05JAKBALDA@?2Log?2?$AA@ 00000001400730e0     KizuLibMFC:LogFileManager.obj
 0002:0000f0e8       ??_C@_0BD@JKDABCKH@?$CFsbk_?$CFs_?$EA?$CFd_?$CFd?4log?$AA@ 00000001400730e8     KizuLibMFC:LogFileManager.obj
 0002:0000f0fc       ??_C@_03GGEOLGBL@Log?$AA@  00000001400730fc     KizuLibMFC:LogFileManager.obj
 0002:0000f100       ??_C@_0M@OHPCIELA@?$CFs?$CFs_?$CFd?4log?$AA@ 0000000140073100     KizuLibMFC:LogFileManager.obj
 0002:0000f110       ??_C@_0BC@HFKBPMM@?$CFsbk_?$CFs_?$EA0_?$CFd?4log?$AA@ 0000000140073110     KizuLibMFC:LogFileManager.obj
 0002:0000f128       ??_C@_0CI@PAHLFECP@?$CF04d?1?$CF02d?1?$CF02d?5?$CF02d?3?$CF02d?3?$CF02d?4?$CF0@ 0000000140073128     KizuLibMFC:LogFileManager.obj
 0002:0000f150       ??_C@_03OKNDJEIL@?$IB?$JM?5?$AA@ 0000000140073150     KizuLibMFC:LogFileManager.obj
 0002:0000f158       ??_C@_0P@EPGLBPPJ@notepad?4exe?5?$CFs?$AA@ 0000000140073158     KizuLibMFC:LogFileManager.obj
 0002:0000f168       ??_C@_0BP@NGGCGNCD@?$ID?$IN?$IDO?$IDL?$ID?$IF?$IB?$FL?$IDt?$ID?$IL?$CB?$CB?5?$ID?$IN?$IDO?$IN?m?$IP?$JM?$IM?$IP?$JA?$JE?$DN?$AA@ 0000000140073168     KizuLibMFC:LogFileManager.obj
 0002:0000f188       ??_C@_0CK@EBANHHFD@?$CF04d?1?$CF02d?1?$CF02d?5?$CF02d?3?$CF02d?3?$CF02d?4?$CF0@ 0000000140073188     KizuLibMFC:LogFileManager.obj
 0002:0000f1c0       ??_7?$ThreadQueue@D@KizuLib@@6B@ 00000001400731c0     KizuLibMFC:LogFileManager.obj
 0002:0000f1d0       ??_7LogFileManager@KizuLib@@6B@ 00000001400731d0     KizuLibMFC:LogFileManager.obj
 0002:0000f1e0       ??_C@_03DPLIHHLN@?$CFd?0?$AA@ 00000001400731e0     KizuLibMFC:CreateSQL.obj
 0002:0000f1e4       ??_C@_06CFLGNLDD@?$CF0?46f?0?$AA@ 00000001400731e4     KizuLibMFC:CreateSQL.obj
 0002:0000f1ec       ??_C@_05BKOPINHE@NULL?0?$AA@ 00000001400731ec     KizuLibMFC:CreateSQL.obj
 0002:0000f1f4       ??_C@_05CAAMPPBP@?8?$CFs?8?0?$AA@ 00000001400731f4     KizuLibMFC:CreateSQL.obj
 0002:0000f200       ??_C@_08GOCJKNHE@?$CFs?$DNNULL?0?$AA@ 0000000140073200     KizuLibMFC:CreateSQL.obj
 0002:0000f210       ??_C@_08GJKDEKHI@?$CF0?415lf?0?$AA@ 0000000140073210     KizuLibMFC:CreateSQL.obj
 0002:0000f220       ??_C@_0M@IOCAAJCL@?$CFs?$DN?$CF0?415lf?0?$AA@ 0000000140073220     KizuLibMFC:CreateSQL.obj
 0002:0000f230       ??_C@_08FEMKNPBP@?$CFs?$DN?8?$CFs?8?0?$AA@ 0000000140073230     KizuLibMFC:CreateSQL.obj
 0002:0000f23c       ??_C@_06MKBCGCLM@?$CFs?$DN?$CFd?0?$AA@ 000000014007323c     KizuLibMFC:CreateSQL.obj
 0002:0000f244       ??_C@_01IHBHIGKO@?0?$AA@   0000000140073244     KizuLibMFC:CreateSQL.obj
 0002:0000f248       ??_C@_0BE@OCJNNFAC@?8?$CFY?1?$CFm?1?$CFd?5?$CFH?3?$CFM?3?$CFS?8?$AA@ 0000000140073248     KizuLibMFC:CreateSQL.obj
 0002:0000f25c       ??_C@_02MHFCHKMG@?$IB?$JG?$AA@ 000000014007325c     KizuLibMFC:DivNameManager.obj
 0002:0000f260       ??_C@_09HANBOHDA@?$ID?$IJ?$IDC?$ID?$JDPLG?$AA@ 0000000140073260     KizuLibMFC:DivNameManager.obj
 0002:0000f26c       ??_C@_02GDMDGBKA@?$IB?$HM?$AA@ 000000014007326c     KizuLibMFC:DivNameManager.obj
 0002:0000f270       ??_C@_0N@HDDPJPOF@?$IDe?$IDX?$IDg?$IDp?$ID?$IL?$IDX?$AA@ 0000000140073270     KizuLibMFC:DivNameManager.obj
 0002:0000f280       ??_C@_0L@FACJDPO@?$JC?b?$IO?$HO?$ID?$IC?$IB?$FL?$IDh?$AA@ 0000000140073280     KizuLibMFC:DivNameManager.obj
 0002:0000f28c       ??_C@_06HLBCGPPI@?$JF?2?$INZ?$JA?$LD?$AA@ 000000014007328c     KizuLibMFC:DivNameManager.obj
 0002:0000f294       ??_C@_06IONNKHLD@?$JH?$KA?$INZ?$JA?$LD?$AA@ 0000000140073294     KizuLibMFC:DivNameManager.obj
 0002:0000f2a0       ??_C@_0BI@HGLGOFNI@?$INZ?$JA?$LD?$ID?$IC?$IB?$FL?$IDh?5?$CI?$IDJ?$ID?$IB?$ID?$IJ?$JC?$LC?$JA?$KO?$CJ?$AA@ 00000001400732a0     KizuLibMFC:DivNameManager.obj
 0002:0000f2b8       ??_C@_0BH@GOBBCIBD@?$IDV?$ID?$HO?$ID?$IF?$ID?$IM?$IB?$FL?$IDV?$ID?$IH?$ID?$JD?$ID?$IC?$IB?$FL?$IDh?$AA@ 00000001400732b8     KizuLibMFC:DivNameManager.obj
 0002:0000f2d0       ??_C@_0P@GJIDCHJH@?$JC?J?$IP?m?$IJ?$FO?$JD?$FN?$ID?$IC?$IB?$FL?$IDh?$AA@ 00000001400732d0     KizuLibMFC:DivNameManager.obj
 0002:0000f2e0       ??_C@_0BK@NHIGKMIL@?$IDe?$IDX?$IDg?$IJ?$FO?$JD?$FN?5?$CI?$IDT?$ID?$JD?$IDv?$ID?$IL?$IOB?$IJe?$CJ?$AA@ 00000001400732e0     KizuLibMFC:DivNameManager.obj
 0002:0000f2fc       ??_C@_06DDMCCKNL@?$JB?$IA?$IL?F?$JC?$IG?$AA@ 00000001400732fc     KizuLibMFC:DivNameManager.obj
 0002:0000f304       ??_C@_06IILHFCCB@?$IJ?R?$JD?$KO?$JC?$IG?$AA@ 0000000140073304     KizuLibMFC:DivNameManager.obj
 0002:0000f30c       ??_C@_06BJILJLCK@?$ILx?$IO?$HO?$JC?$IG?$AA@ 000000014007330c     KizuLibMFC:DivNameManager.obj
 0002:0000f318       ??_C@_08OEHBDEDJ@?$JC?a?$JB?$KM?$JB?$IA?$IL?F?$AA@ 0000000140073318     KizuLibMFC:DivNameManager.obj
 0002:0000f328       ??_C@_08JCEDFIDN@?$ID?$IB?$ID?$JD?$IDe?$JC?$IG?$AA@ 0000000140073328     KizuLibMFC:DivNameManager.obj
 0002:0000f338       ??_C@_08OCGFDFPC@?$LE?$KP?$LM?$NO?$JFs?$JA?$LD?$AA@ 0000000140073338     KizuLibMFC:DivNameManager.obj
 0002:0000f348       ??_C@_0L@GCECMKNA@?$ID?$IK?$IDg?$ID?$IJ?$IDC?$JC?$IG?$AA@ 0000000140073348     KizuLibMFC:DivNameManager.obj
 0002:0000f354       ??_C@_04FCGGFPF@?$IPk?$JB?$NO?$AA@ 0000000140073354     KizuLibMFC:DivNameManager.obj
 0002:0000f360       ??_C@_0M@JDPPEAHB@?$JC?b?$IO?$HO?5?$CI?$IP?$IJ?$IK?z?$CJ?$AA@ 0000000140073360     KizuLibMFC:DivNameManager.obj
 0002:0000f36c       ??_C@_04LEHKJHND@?$JC?b?$IO?$HO?$AA@ 000000014007336c     KizuLibMFC:DivNameManager.obj
 0002:0000f374       ??_C@_06BMKCJOGD@?$JG?$KC?$JF?$NL?$JB?$LG?$AA@ 0000000140073374     KizuLibMFC:DivNameManager.obj
 0002:0000f37c       ??_C@_06OOJLNDGA@?$JG?$KC?$IM?$JP?$IN?$LI?$AA@ 000000014007337c     KizuLibMFC:DivNameManager.obj
 0002:0000f384       ??_C@_06GKCJGFOL@?$IPd?$IM?L?$IP?a?$AA@ 0000000140073384     KizuLibMFC:DivNameManager.obj
 0002:0000f390       ??_C@_07DHGFJIFB@?$JF?2?$JG?J?5DS?$AA@ 0000000140073390     KizuLibMFC:DivNameManager.obj
 0002:0000f398       ??_C@_0O@GEFHIGMM@?$JC?b?$IO?$HO?5?$CI?$JB?N?$IP?$NL?$IKO?$CJ?$AA@ 0000000140073398     KizuLibMFC:DivNameManager.obj
 0002:0000f3a8       ??_C@_06OEIJGODD@?$IMy?$IM?L?$IP?a?$AA@ 00000001400733a8     KizuLibMFC:DivNameManager.obj
 0002:0000f3b0       ??_C@_07FCJIPDPG@?$JF?2?$JG?J?5D3?$AA@ 00000001400733b0     KizuLibMFC:DivNameManager.obj
 0002:0000f3b8       ??_C@_07BNNJGFDB@?$JF?2?$JG?J?5D4?$AA@ 00000001400733b8     KizuLibMFC:DivNameManager.obj
 0002:0000f3c0       ??_C@_07GAKOJBHE@?$JF?2?$JG?J?5D1?$AA@ 00000001400733c0     KizuLibMFC:DivNameManager.obj
 0002:0000f3c8       ??_C@_07ELIDMCLH@?$JF?2?$JG?J?5D2?$AA@ 00000001400733c8     KizuLibMFC:DivNameManager.obj
 0002:0000f3d0       ??_C@_07FFODNPJO@?$JF?2?$JG?J?5W2?$AA@ 00000001400733d0     KizuLibMFC:DivNameManager.obj
 0002:0000f3d8       ??_C@_07HOMOIMFN@?$JF?2?$JG?J?5W1?$AA@ 00000001400733d8     KizuLibMFC:DivNameManager.obj
 0002:0000f3e0       ??_C@_07DLJHIBI@?$JF?2?$JG?J?5W4?$AA@ 00000001400733e0     KizuLibMFC:DivNameManager.obj
 0002:0000f3e8       ??_C@_07EMPIOONP@?$JF?2?$JG?J?5W3?$AA@ 00000001400733e8     KizuLibMFC:DivNameManager.obj
 0002:0000f3f0       ??_C@_07IBFFMGKE@?$JH?$KA?$JG?J?5D1?$AA@ 00000001400733f0     KizuLibMFC:DivNameManager.obj
 0002:0000f3f8       ??_C@_07KKHIJFGH@?$JH?$KA?$JG?J?5D2?$AA@ 00000001400733f8     KizuLibMFC:DivNameManager.obj
 0002:0000f400       ??_C@_07CJAFIFHI@?$JF?2?$JG?J?5WS?$AA@ 0000000140073400     KizuLibMFC:DivNameManager.obj
 0002:0000f408       ??_C@_07NGJOMPIB@?$JH?$KA?$JG?J?5DS?$AA@ 0000000140073408     KizuLibMFC:DivNameManager.obj
 0002:0000f410       ??_C@_07OCECCPMI@?$JH?$KA?$JG?J?5W4?$AA@ 0000000140073410     KizuLibMFC:DivNameManager.obj
 0002:0000f418       ??_C@_07KNADLJAP@?$JH?$KA?$JG?J?5W3?$AA@ 0000000140073418     KizuLibMFC:DivNameManager.obj
 0002:0000f420       ??_C@_07LDGDKECG@?$JH?$KA?$JG?J?5D3?$AA@ 0000000140073420     KizuLibMFC:DivNameManager.obj
 0002:0000f428       ??_C@_07PMCCDCOB@?$JH?$KA?$JG?J?5D4?$AA@ 0000000140073428     KizuLibMFC:DivNameManager.obj
 0002:0000f430       ??_C@_07MIPONCKI@?$JH?$KA?$JG?J?5WS?$AA@ 0000000140073430     KizuLibMFC:DivNameManager.obj
 0002:0000f438       ??_C@_07LEBIIIEO@?$JH?$KA?$JG?J?5W2?$AA@ 0000000140073438     KizuLibMFC:DivNameManager.obj
 0002:0000f440       ??_C@_07JPDFNLIN@?$JH?$KA?$JG?J?5W1?$AA@ 0000000140073440     KizuLibMFC:DivNameManager.obj
 0002:0000f450       ??_7DspListView@KizuLib@@6B@ 0000000140073450     KizuLibMFC:DspListView.obj
 0002:0000f460       ??_7WorkThread@KizuLib@@6B@ 0000000140073460     KizuLib:WorkThread.obj
 0002:0000f478       ??_7KizuPerformanceCounter@KizuLib@@6B@ 0000000140073478     KizuLib:KizuPerformanceCounter.obj
 0002:0000f480       ??_C@_0BO@GMMDEJJG@?$FL?$CFs?$IP?$JB?$IN?$JO?$IC?$NN?$IO?$LI?$JEs?5ID?$DN?$CFd?5State?$DN?$CFd?$FN?$AA@ 0000000140073480     KizuLib:KizuFunction.obj
 0002:0000f4a0       ??_C@_0CF@CCJAFHPH@?$FL?$CFs?$IP?$JB?$IN?$JO?$IC?$NN?$IO?$LI?$JEs?$CI2?$IJ?q?$JG?Z?$CJ?5ID?$DN?$CFd?5State@ 00000001400734a0     KizuLib:KizuFunction.obj
 0002:0000f4c8       ??_C@_02MNCIOLLO@62?$AA@   00000001400734c8     KizuLib:KizuFunction.obj
 0002:0000f4d0       ??_C@_0BO@CFJLGEFP@?$CF04d?$CF02d?$CF02d?5?$CF02d?$CF02d?$CF02d?$CF03d?$AA@ 00000001400734d0     KizuLib:KizuFunction.obj
 0002:0000f4f0       ??_C@_0BO@GJKKMGPK@?$CF02s?$CF04d?$CF02d?$CF02d?5?$CF02d?$CF02d?$CF02d?$AA@ 00000001400734f0     KizuLib:KizuFunction.obj
 0002:0000f510       ??_C@_06DFFPEDLC@COMMON?$AA@ 0000000140073510     KizuLib:KizuLib.obj
 0002:0000f518       ??_C@_09OOMFBMLD@KS_SYSLOG?$AA@ 0000000140073518     KizuLib:KizuLib.obj
 0002:0000f528       ??_C@_0BA@LCOIGNFA@?2?2?4?2mailslot?2?$CFs?$AA@ 0000000140073528     KizuLib:MailSlotManager.obj
 0002:0000f538       ??_C@_0BB@KIGMDFGF@?2?2?$CFs?2mailslot?2?$CFs?$AA@ 0000000140073538     KizuLib:MailSlotManager.obj
 0002:0000f558       ??_7MailSlotManager@KizuLib@@6BICommunityAsync@1@@ 0000000140073558     KizuLib:MailSlotManager.obj
 0002:0000f580       ??_7MailSlotManager@KizuLib@@6BICommunity@1@@ 0000000140073580     KizuLib:MailSlotManager.obj
 0002:0000f598       ??_C@_0DJ@MBDAOHJO@SELECT?5PCID?5FROM?5?$CFs?5WHERE?5GroupN@ 0000000140073598     KizuLib:KizuPcInfManager.obj
 0002:0000f5d8       ??_C@_0DN@LDMPBLNL@SELECT?5PCKIND?5FROM?5?$CFs?5WHERE?5Grou@ 00000001400735d8     KizuLib:KizuPcInfManager.obj
 0002:0000f618       ??_C@_0M@DHHFGOOP@M_PC_MASTER?$AA@ 0000000140073618     KizuLib:KizuPcInfManager.obj
 0002:0000f630       ??_C@_0HH@GJHMDKGF@SELECT?5i?4PCKIND?0?5m?4PC?$JG?$LM?0?5m?4PCID?0@ 0000000140073630     KizuLib:KizuPcInfManager.obj
 0002:0000f6a8       ??_C@_0CG@FPECFNJJ@UPDATE?5?$CFs?5SET?5PCID?$DN?$CFd?5WHERE?5PCKI@ 00000001400736a8     KizuLib:KizuPcInfManager.obj
 0002:0000f6d8       ??_7KizuPcInfManager@KizuLib@@6B@ 00000001400736d8     KizuLib:KizuPcInfManager.obj
 0002:0000f6e8       ??_7OdbcBase@KizuODBC@@6B@ 00000001400736e8     KizuODBC:OdbcBase.obj
 0002:0000f6f8       ??_7OdbcManager@KizuODBC@@6B@ 00000001400736f8     KizuODBC:OdbcManager.obj
 0002:0000f708       ??_7OdbcEnv@KizuODBC@@6B@  0000000140073708     KizuODBC:OdbcEnv.obj
 0002:0000f710       ??_C@_07LPFCGCEC@SAVE_IP?$AA@ 0000000140073710     KizuSOCK3:SockBase.obj
 0002:0000f718       ??_C@_09LFJGECBF@SAVE_PORT?$AA@ 0000000140073718     KizuSOCK3:SockBase.obj
 0002:0000f730       ??_7SockBase@KizuSock3@@6B@ 0000000140073730     KizuSOCK3:SockBase.obj
 0002:0000f740       ??_7ksControl@KizuSock3@@6B@ 0000000140073740     KizuSOCK3:ksControl.obj
 0002:0000f750       ??_7ksThread@KizuSock3@@6B@ 0000000140073750     KizuSOCK3:ksThread.obj
 0002:0000f8c0       __real@3f000000            00000001400738c0     HtRecv.obj
 0002:0000f8c8       __real@3f30000000000000    00000001400738c8     PlgManager.obj
 0002:0000f8d0       __real@3fc999999999999a    00000001400738d0     KizuLib:KizuPerformanceCounter.obj
 0002:0000f8d8       __real@3fd0000000000000    00000001400738d8     TO_DEFECTDlg.obj
 0002:0000f8e0       __real@3fe0000000000000    00000001400738e0     EdgePosControl.obj
 0002:0000f8e8       __real@3fe999999999999a    00000001400738e8     KizuLib:KizuPerformanceCounter.obj
 0002:0000f8f0       __real@3feccccccccccccd    00000001400738f0     TO_DEFECTDlg.obj
 0002:0000f8f8       __real@3ff0000000000000    00000001400738f8     MergeManager.obj
 0002:0000f900       __real@400921fb54442d18    0000000140073900     HtRecv.obj
 0002:0000f908       __real@4024000000000000    0000000140073908     HtRecv.obj
 0002:0000f910       __real@402e000000000000    0000000140073910     DbBaseManager.obj
 0002:0000f918       __real@4039000000000000    0000000140073918     DbBaseManager.obj
 0002:0000f920       __real@403e000000000000    0000000140073920     DbBaseManager.obj
 0002:0000f928       __real@4041800000000000    0000000140073928     DbBaseManager.obj
 0002:0000f930       __real@4046800000000000    0000000140073930     DbBaseManager.obj
 0002:0000f938       __real@404e000000000000    0000000140073938     HtRecv.obj
 0002:0000f940       __real@4059000000000000    0000000140073940     CoilBaseManager.obj
 0002:0000f948       __real@407f400000000000    0000000140073948     AlarmeManager.obj
 0002:0000f950       __real@408f400000000000    0000000140073950     KizuLib:KizuPerformanceCounter.obj
 0002:0000f958       __real@40b0000000000000    0000000140073958     MainInstance.obj
 0002:0000f960       __real@40b3880000000000    0000000140073960     PlgManager.obj
 0002:0000f968       __real@40c3880000000000    0000000140073968     ParamManager.obj
 0002:0000f970       __real@41086a0000000000    0000000140073970     DbBaseManager.obj
 0002:0000f978       __real@416312d000000000    0000000140073978     AlarmeManager.obj
 0002:0000f980       __real@42700000            0000000140073980     HtRecv.obj
 0002:0000f984       __real@42c80000            0000000140073984     HtRecv.obj
 0002:0000f988       __real@43fa0000            0000000140073988     CoilManager.obj
 0002:0000f98c       __real@447a0000            000000014007398c     HtRecv.obj
 0002:0000f990       __real@44dac000            0000000140073990     EdgePosControl.obj
 0002:0000f998       __real@7fefffffffffffff    0000000140073998     BcpSaveManager.obj
 0002:0000f9a0       __real@bf800000            00000001400739a0     EdgePosControl.obj
 0002:0000f9a8       __real@bff0000000000000    00000001400739a8     MergeManager.obj
 0002:0000f9b0       __real@ffefffffffffffff    00000001400739b0     BcpSaveManager.obj
 0002:0000f9c0       __xmm@00000001000000010000000100000001 00000001400739c0     LogicParaRunFunc.obj
 0002:0000f9d0       __xmm@00000003000000020000000100000000 00000001400739d0     LogicParaRunFunc.obj
 0002:0000f9e0       __xmm@00000019000000190000001900000019 00000001400739e0     TO_DEFECTDlg.obj
 0002:0000f9f0       __xmm@0000001900000024000000260000002d 00000001400739f0     TO_DEFECTDlg.obj
 0002:0000fa00       __xmm@00000019000000240000002d00000050 0000000140073a00     TO_DEFECTDlg.obj
 0002:0000fa10       __xmm@0000001c0000001c0000001c0000001c 0000000140073a10     TO_DEFECTDlg.obj
 0002:0000fa20       __xmm@0000001c0000001c0000001c00000028 0000000140073a20     TO_DEFECTDlg.obj
 0002:0000fa30       __xmm@00000020000000200000001200000020 0000000140073a30     TO_DEFECTDlg.obj
 0002:0000fa40       __xmm@0000002000000020000000120000003e 0000000140073a40     TO_DEFECTDlg.obj
 0002:0000fa50       __xmm@00000024000000240000002800000034 0000000140073a50     TO_DEFECTDlg.obj
 0002:0000fa60       __xmm@00000028000000770000001c0000001e 0000000140073a60     TO_DEFECTDlg.obj
 0002:0000fa70       __xmm@0000002d0000002d0000002d00000030 0000000140073a70     TO_DEFECTDlg.obj
 0002:0000fa80       __xmm@00000032000000320000003c00000014 0000000140073a80     TO_DEFECTDlg.obj
 0002:0000fa90       __xmm@00000046000000460000004600000046 0000000140073a90     TO_DEFECTDlg.obj
 0002:0000faa0       __xmm@0000004600000046000000730000001c 0000000140073aa0     TO_DEFECTDlg.obj
 0002:0000fab0       __xmm@408f400000000000408f400000000000 0000000140073ab0     PlgManager.obj
 0002:0000fac0       __xmm@7fffffffffffffff7fffffffffffffff 0000000140073ac0     EdgePosControl.obj
 0002:0000fad0       __xmm@80000000000000008000000000000000 0000000140073ad0     PlgManager.obj
 0002:0000fae0       __xmm@80000000800000008000000080000000 0000000140073ae0     EdgePosControl.obj
 0002:000127c0       _load_config_used          00000001400767c0     msvcrt:loadcfg.obj
 0002:00012858       _tls_used                  0000000140076858     msvcrt:tlssup.obj
 0002:00012880       ??_R4type_info@@6B@        0000000140076880     msvcrt:std_type_info_static.obj
 0002:000128a8       ??_R3type_info@@8          00000001400768a8     msvcrt:std_type_info_static.obj
 0002:000128c0       ??_R2type_info@@8          00000001400768c0     msvcrt:std_type_info_static.obj
 0002:000128d0       ??_R1A@?0A@EA@type_info@@8 00000001400768d0     msvcrt:std_type_info_static.obj
 0002:000128f8       ??_R2AlarmeManager@@8      00000001400768f8     AlarmeManager.obj
 0002:00012918       ??_R2ThreadManager@@8      0000000140076918     AlarmeManager.obj
 0002:00012930       ??_R2WorkThread@KizuLib@@8 0000000140076930     AlarmeManager.obj
 0002:00012940       ??_R2AutoLock@KizuLib@@8   0000000140076940     AlarmeManager.obj
 0002:00012950       ??_R1A@?0A@EA@AlarmeManager@@8 0000000140076950     AlarmeManager.obj
 0002:00012978       ??_R1A@?0A@EA@ThreadManager@@8 0000000140076978     AlarmeManager.obj
 0002:000129a0       ??_R1A@?0A@EA@WorkThread@KizuLib@@8 00000001400769a0     AlarmeManager.obj
 0002:000129c8       ??_R1A@?0A@EA@AutoLock@KizuLib@@8 00000001400769c8     AlarmeManager.obj
 0002:000129f0       ??_R3ThreadManager@@8      00000001400769f0     AlarmeManager.obj
 0002:00012a08       ??_R3WorkThread@KizuLib@@8 0000000140076a08     AlarmeManager.obj
 0002:00012a20       ??_R3AlarmeManager@@8      0000000140076a20     AlarmeManager.obj
 0002:00012a38       ??_R3AutoLock@KizuLib@@8   0000000140076a38     AlarmeManager.obj
 0002:00012a50       ??_R4AlarmeManager@@6B@    0000000140076a50     AlarmeManager.obj
 0002:00012a78       ??_R4AutoLock@KizuLib@@6B@ 0000000140076a78     AlarmeManager.obj
 0002:00012aa0       ??_R2BCPSaveManager@@8     0000000140076aa0     BcpSaveManager.obj
 0002:00012ac8       ??_R2DbBaseManager@@8      0000000140076ac8     BcpSaveManager.obj
 0002:00012ae8       ??_R1A@?0A@EA@BCPSaveManager@@8 0000000140076ae8     BcpSaveManager.obj
 0002:00012b10       ??_R1A@?0A@EA@DbBaseManager@@8 0000000140076b10     BcpSaveManager.obj
 0002:00012b38       ??_R3DbBaseManager@@8      0000000140076b38     BcpSaveManager.obj
 0002:00012b50       ??_R3BCPSaveManager@@8     0000000140076b50     BcpSaveManager.obj
 0002:00012b68       ??_R4BCPSaveManager@@6B@   0000000140076b68     BcpSaveManager.obj
 0002:00012b90       ??_R2CamLinkSpeedManager@@8 0000000140076b90     CamLinkSpeedManager.obj
 0002:00012bb0       ??_R1A@?0A@EA@CamLinkSpeedManager@@8 0000000140076bb0     CamLinkSpeedManager.obj
 0002:00012bd8       ??_R3CamLinkSpeedManager@@8 0000000140076bd8     CamLinkSpeedManager.obj
 0002:00012bf0       ??_R4CamLinkSpeedManager@@6B@ 0000000140076bf0     CamLinkSpeedManager.obj
 0002:00012c18       ??_R2?$ThreadQueue@USEND_UDP@CmdSender@@@KizuLib@@8 0000000140076c18     CmdSender.obj
 0002:00012c28       ??_R2CmdSender@@8          0000000140076c28     CmdSender.obj
 0002:00012c48       ??_R1A@?0A@EA@?$ThreadQueue@USEND_UDP@CmdSender@@@KizuLib@@8 0000000140076c48     CmdSender.obj
 0002:00012c70       ??_R1A@?0A@EA@CmdSender@@8 0000000140076c70     CmdSender.obj
 0002:00012c98       ??_R3?$ThreadQueue@USEND_UDP@CmdSender@@@KizuLib@@8 0000000140076c98     CmdSender.obj
 0002:00012cb0       ??_R3CmdSender@@8          0000000140076cb0     CmdSender.obj
 0002:00012cc8       ??_R4?$ThreadQueue@USEND_UDP@CmdSender@@@KizuLib@@6B@ 0000000140076cc8     CmdSender.obj
 0002:00012cf0       ??_R4CmdSender@@6B@        0000000140076cf0     CmdSender.obj
 0002:00012d18       ??_R2CoilBaseManager@@8    0000000140076d18     CoilBaseManager.obj
 0002:00012d38       ??_R1A@?0A@EA@CoilBaseManager@@8 0000000140076d38     CoilBaseManager.obj
 0002:00012d60       ??_R3CoilBaseManager@@8    0000000140076d60     CoilBaseManager.obj
 0002:00012d78       ??_R4CoilBaseManager@@6B@  0000000140076d78     CoilBaseManager.obj
 0002:00012da0       ??_R2CoilManager@@8        0000000140076da0     CoilManager.obj
 0002:00012dc8       ??_R1A@?0A@EA@CoilManager@@8 0000000140076dc8     CoilManager.obj
 0002:00012df0       ??_R3CoilManager@@8        0000000140076df0     CoilManager.obj
 0002:00012e08       ??_R4CoilManager@@6B@      0000000140076e08     CoilManager.obj
 0002:00012e30       ??_R2?$ThreadQueue@UDeliveryDB@DbBaseManager@@@KizuLib@@8 0000000140076e30     DbBaseManager.obj
 0002:00012e40       ??_R2?$ThreadQueue@UDELIVERYSQL@DBSaveManager@@@KizuLib@@8 0000000140076e40     DbBaseManager.obj
 0002:00012e50       ??_R1A@?0A@EA@?$ThreadQueue@UDeliveryDB@DbBaseManager@@@KizuLib@@8 0000000140076e50     DbBaseManager.obj
 0002:00012e78       ??_R1A@?0A@EA@?$ThreadQueue@UDELIVERYSQL@DBSaveManager@@@KizuLib@@8 0000000140076e78     DbBaseManager.obj
 0002:00012ea0       ??_R3?$ThreadQueue@UDeliveryDB@DbBaseManager@@@KizuLib@@8 0000000140076ea0     DbBaseManager.obj
 0002:00012eb8       ??_R3?$ThreadQueue@UDELIVERYSQL@DBSaveManager@@@KizuLib@@8 0000000140076eb8     DbBaseManager.obj
 0002:00012ed0       ??_R4?$ThreadQueue@UDeliveryDB@DbBaseManager@@@KizuLib@@6B@ 0000000140076ed0     DbBaseManager.obj
 0002:00012ef8       ??_R4DbBaseManager@@6B@    0000000140076ef8     DbBaseManager.obj
 0002:00012f20       ??_R4?$ThreadQueue@UDELIVERYSQL@DBSaveManager@@@KizuLib@@6B@ 0000000140076f20     DbBaseManager.obj
 0002:00012f48       ??_R2DBManager@@8          0000000140076f48     DBManager.obj
 0002:00012f70       ??_R1A@?0A@EA@DBManager@@8 0000000140076f70     DBManager.obj
 0002:00012f98       ??_R3DBManager@@8          0000000140076f98     DBManager.obj
 0002:00012fb0       ??_R4DBManager@@6B@        0000000140076fb0     DBManager.obj
 0002:00012fd8       ??_R2?$ThreadQueue@UDEFDUMP_QUE@DefectDumpManager@@@KizuLib@@8 0000000140076fd8     DefectDumpManager.obj
 0002:00012fe8       ??_R2DefectDumpManager@@8  0000000140076fe8     DefectDumpManager.obj
 0002:00013008       ??_R2bad_cast@std@@8       0000000140077008     DefectDumpManager.obj
 0002:00013020       ??_R2?$basic_ofstream@DU?$char_traits@D@std@@@std@@8 0000000140077020     DefectDumpManager.obj
 0002:00013050       ??_R2?$basic_ostream@DU?$char_traits@D@std@@@std@@8 0000000140077050     DefectDumpManager.obj
 0002:00013078       ??_R2?$basic_ios@DU?$char_traits@D@std@@@std@@8 0000000140077078     DefectDumpManager.obj
 0002:00013098       ??_R2ios_base@std@@8       0000000140077098     DefectDumpManager.obj
 0002:000130b0       ??_R2?$_Iosb@H@std@@8      00000001400770b0     DefectDumpManager.obj
 0002:000130c0       ??_R2?$basic_filebuf@DU?$char_traits@D@std@@@std@@8 00000001400770c0     DefectDumpManager.obj
 0002:000130d8       ??_R2?$basic_streambuf@DU?$char_traits@D@std@@@std@@8 00000001400770d8     DefectDumpManager.obj
 0002:000130e8       ??_R2exception@std@@8      00000001400770e8     DefectDumpManager.obj
 0002:000130f8       ??_R1A@?0A@EA@?$ThreadQueue@UDEFDUMP_QUE@DefectDumpManager@@@KizuLib@@8 00000001400770f8     DefectDumpManager.obj
 0002:00013120       ??_R1A@?0A@EA@DefectDumpManager@@8 0000000140077120     DefectDumpManager.obj
 0002:00013148       ??_R1A@?0A@EA@bad_cast@std@@8 0000000140077148     DefectDumpManager.obj
 0002:00013170       ??_R1A@?0A@EA@?$basic_ofstream@DU?$char_traits@D@std@@@std@@8 0000000140077170     DefectDumpManager.obj
 0002:00013198       ??_R17A@3EA@?$_Iosb@H@std@@8 0000000140077198     DefectDumpManager.obj
 0002:000131c0       ??_R1A@A@3EA@ios_base@std@@8 00000001400771c0     DefectDumpManager.obj
 0002:000131e8       ??_R1A@A@3FA@?$basic_ios@DU?$char_traits@D@std@@@std@@8 00000001400771e8     DefectDumpManager.obj
 0002:00013210       ??_R1A@?0A@EA@?$basic_ostream@DU?$char_traits@D@std@@@std@@8 0000000140077210     DefectDumpManager.obj
 0002:00013238       ??_R1A@?0A@EA@?$basic_ios@DU?$char_traits@D@std@@@std@@8 0000000140077238     DefectDumpManager.obj
 0002:00013260       ??_R17?0A@EA@?$_Iosb@H@std@@8 0000000140077260     DefectDumpManager.obj
 0002:00013288       ??_R1A@?0A@EA@ios_base@std@@8 0000000140077288     DefectDumpManager.obj
 0002:000132b0       ??_R1A@?0A@EA@?$_Iosb@H@std@@8 00000001400772b0     DefectDumpManager.obj
 0002:000132d8       ??_R1A@?0A@EA@?$basic_filebuf@DU?$char_traits@D@std@@@std@@8 00000001400772d8     DefectDumpManager.obj
 0002:00013300       ??_R1A@?0A@EA@?$basic_streambuf@DU?$char_traits@D@std@@@std@@8 0000000140077300     DefectDumpManager.obj
 0002:00013328       ??_R1A@?0A@EA@exception@std@@8 0000000140077328     DefectDumpManager.obj
 0002:00013350       ??_R3?$ThreadQueue@UDEFDUMP_QUE@DefectDumpManager@@@KizuLib@@8 0000000140077350     DefectDumpManager.obj
 0002:00013368       ??_R3DefectDumpManager@@8  0000000140077368     DefectDumpManager.obj
 0002:00013380       ??_R3bad_cast@std@@8       0000000140077380     DefectDumpManager.obj
 0002:00013398       ??_R3?$basic_ostream@DU?$char_traits@D@std@@@std@@8 0000000140077398     DefectDumpManager.obj
 0002:000133b0       ??_R3ios_base@std@@8       00000001400773b0     DefectDumpManager.obj
 0002:000133c8       ??_R3?$_Iosb@H@std@@8      00000001400773c8     DefectDumpManager.obj
 0002:000133e0       ??_R3?$basic_ios@DU?$char_traits@D@std@@@std@@8 00000001400773e0     DefectDumpManager.obj
 0002:000133f8       ??_R3?$basic_ofstream@DU?$char_traits@D@std@@@std@@8 00000001400773f8     DefectDumpManager.obj
 0002:00013410       ??_R3?$basic_streambuf@DU?$char_traits@D@std@@@std@@8 0000000140077410     DefectDumpManager.obj
 0002:00013428       ??_R3?$basic_filebuf@DU?$char_traits@D@std@@@std@@8 0000000140077428     DefectDumpManager.obj
 0002:00013440       ??_R3exception@std@@8      0000000140077440     DefectDumpManager.obj
 0002:00013458       ??_R4?$ThreadQueue@UDEFDUMP_QUE@DefectDumpManager@@@KizuLib@@6B@ 0000000140077458     DefectDumpManager.obj
 0002:00013480       ??_R4DefectDumpManager@@6B@ 0000000140077480     DefectDumpManager.obj
 0002:000134a8       ??_R4bad_cast@std@@6B@     00000001400774a8     DefectDumpManager.obj
 0002:000134d0       ??_R4?$basic_ofstream@DU?$char_traits@D@std@@@std@@6B@ 00000001400774d0     DefectDumpManager.obj
 0002:000134f8       ??_R4?$basic_filebuf@DU?$char_traits@D@std@@@std@@6B@ 00000001400774f8     DefectDumpManager.obj
 0002:00013520       ??_R4exception@std@@6B@    0000000140077520     DefectDumpManager.obj
 0002:00013548       ??_R2?$ThreadQueue@UDELIVERY@DmemManager@@@KizuLib@@8 0000000140077548     DmemManager.obj
 0002:00013558       ??_R2DmemManager@@8        0000000140077558     DmemManager.obj
 0002:00013578       ??_R1A@?0A@EA@?$ThreadQueue@UDELIVERY@DmemManager@@@KizuLib@@8 0000000140077578     DmemManager.obj
 0002:000135a0       ??_R1A@?0A@EA@DmemManager@@8 00000001400775a0     DmemManager.obj
 0002:000135c8       ??_R3?$ThreadQueue@UDELIVERY@DmemManager@@@KizuLib@@8 00000001400775c8     DmemManager.obj
 0002:000135e0       ??_R3DmemManager@@8        00000001400775e0     DmemManager.obj
 0002:000135f8       ??_R4?$ThreadQueue@UDELIVERY@DmemManager@@@KizuLib@@6B@ 00000001400775f8     DmemManager.obj
 0002:00013620       ??_R4DmemManager@@6B@      0000000140077620     DmemManager.obj
 0002:00013648       ??_R2EdgePosControl@@8     0000000140077648     EdgePosControl.obj
 0002:00013660       ??_R2FuncBase@@8           0000000140077660     EdgePosControl.obj
 0002:00013670       ??_R17?0A@EA@FuncBase@@8   0000000140077670     EdgePosControl.obj
 0002:00013698       ??_R1A@?0A@EA@EdgePosControl@@8 0000000140077698     EdgePosControl.obj
 0002:000136c0       ??_R1A@?0A@EA@FuncBase@@8  00000001400776c0     EdgePosControl.obj
 0002:000136e8       ??_R3FuncBase@@8           00000001400776e8     EdgePosControl.obj
 0002:00013700       ??_R3EdgePosControl@@8     0000000140077700     EdgePosControl.obj
 0002:00013718       ??_R4EdgePosControl@@6B@   0000000140077718     EdgePosControl.obj
 0002:00013740       ??_R2?$ThreadQueue@UNCL_EDGE_RESTRICT_DATA@@@KizuLib@@8 0000000140077740     EdgeRestrictSender.obj
 0002:00013750       ??_R2EdgeRestrictSender@@8 0000000140077750     EdgeRestrictSender.obj
 0002:00013770       ??_R1A@?0A@EA@?$ThreadQueue@UNCL_EDGE_RESTRICT_DATA@@@KizuLib@@8 0000000140077770     EdgeRestrictSender.obj
 0002:00013798       ??_R1A@?0A@EA@EdgeRestrictSender@@8 0000000140077798     EdgeRestrictSender.obj
 0002:000137c0       ??_R3?$ThreadQueue@UNCL_EDGE_RESTRICT_DATA@@@KizuLib@@8 00000001400777c0     EdgeRestrictSender.obj
 0002:000137d8       ??_R3EdgeRestrictSender@@8 00000001400777d8     EdgeRestrictSender.obj
 0002:000137f0       ??_R4?$ThreadQueue@UNCL_EDGE_RESTRICT_DATA@@@KizuLib@@6B@ 00000001400777f0     EdgeRestrictSender.obj
 0002:00013818       ??_R4EdgeRestrictSender@@6B@ 0000000140077818     EdgeRestrictSender.obj
 0002:00013840       ??_R2HtRecv@@8             0000000140077840     HtRecv.obj
 0002:00013870       ??_R2HtRecvBaseManager@@8  0000000140077870     HtRecv.obj
 0002:00013898       ??_R2KizuHtRecv@@8         0000000140077898     HtRecv.obj
 0002:000138a8       ??_R1A@?0A@EA@HtRecv@@8    00000001400778a8     HtRecv.obj
 0002:000138d0       ??_R1FI@?0A@EA@KizuHtRecv@@8 00000001400778d0     HtRecv.obj
 0002:000138f8       ??_R1A@?0A@EA@HtRecvBaseManager@@8 00000001400778f8     HtRecv.obj
 0002:00013920       ??_R1A@?0A@EA@KizuHtRecv@@8 0000000140077920     HtRecv.obj
 0002:00013948       ??_R3HtRecvBaseManager@@8  0000000140077948     HtRecv.obj
 0002:00013960       ??_R3KizuHtRecv@@8         0000000140077960     HtRecv.obj
 0002:00013978       ??_R3HtRecv@@8             0000000140077978     HtRecv.obj
 0002:00013990       ??_R4HtRecv@@6BKizuHtRecv@@@ 0000000140077990     HtRecv.obj
 0002:000139b8       ??_R4HtRecv@@6BThreadManager@@@ 00000001400779b8     HtRecv.obj
 0002:000139e0       ??_R4HtRecvBaseManager@@6BKizuHtRecv@@@ 00000001400779e0     HtRecvBaseManager.obj
 0002:00013a08       ??_R4HtRecvBaseManager@@6BThreadManager@@@ 0000000140077a08     HtRecvBaseManager.obj
 0002:00013a30       ??_R2IfRpiSave@@8          0000000140077a30     IfRpiSave.obj
 0002:00013a40       ??_R1A@?0A@EA@IfRpiSave@@8 0000000140077a40     IfRpiSave.obj
 0002:00013a68       ??_R3IfRpiSave@@8          0000000140077a68     IfRpiSave.obj
 0002:00013a80       ??_R4IfRpiSave@@6B@        0000000140077a80     IfRpiSave.obj
 0002:00013aa8       ??_R2IPortViewerManager@@8 0000000140077aa8     IPortViewerManager.obj
 0002:00013ac8       ??_R1A@?0A@EA@IPortViewerManager@@8 0000000140077ac8     IPortViewerManager.obj
 0002:00013af0       ??_R3IPortViewerManager@@8 0000000140077af0     IPortViewerManager.obj
 0002:00013b08       ??_R4IPortViewerManager@@6B@ 0000000140077b08     IPortViewerManager.obj
 0002:00013b30       ??_R2?$ThreadQueue@UTYP_MAE_REQUEST@MaeManager@@@KizuLib@@8 0000000140077b30     MaeManager.obj
 0002:00013b40       ??_R2MaeManager@@8         0000000140077b40     MaeManager.obj
 0002:00013b60       ??_R1A@?0A@EA@?$ThreadQueue@UTYP_MAE_REQUEST@MaeManager@@@KizuLib@@8 0000000140077b60     MaeManager.obj
 0002:00013b88       ??_R1A@?0A@EA@MaeManager@@8 0000000140077b88     MaeManager.obj
 0002:00013bb0       ??_R3?$ThreadQueue@UTYP_MAE_REQUEST@MaeManager@@@KizuLib@@8 0000000140077bb0     MaeManager.obj
 0002:00013bc8       ??_R3MaeManager@@8         0000000140077bc8     MaeManager.obj
 0002:00013be0       ??_R4?$ThreadQueue@UTYP_MAE_REQUEST@MaeManager@@@KizuLib@@6B@ 0000000140077be0     MaeManager.obj
 0002:00013c08       ??_R4MaeManager@@6B@       0000000140077c08     MaeManager.obj
 0002:00013c30       ??_R2MainInstance@@8       0000000140077c30     MainInstance.obj
 0002:00013c50       ??_R2?$ThreadQueue@UDELIVERY_MAIL@MainInstance@@@KizuLib@@8 0000000140077c50     MainInstance.obj
 0002:00013c60       ??_R2?$TrackingFrame@UTR_FRAME@@@KizuLib@@8 0000000140077c60     MainInstance.obj
 0002:00013c78       ??_R2LockManager@KizuLib@@8 0000000140077c78     MainInstance.obj
 0002:00013c88       ??_R1A@?0A@EA@MainInstance@@8 0000000140077c88     MainInstance.obj
 0002:00013cb0       ??_R1A@?0A@EA@?$ThreadQueue@UDELIVERY_MAIL@MainInstance@@@KizuLib@@8 0000000140077cb0     MainInstance.obj
 0002:00013cd8       ??_R1A@?0A@EA@?$TrackingFrame@UTR_FRAME@@@KizuLib@@8 0000000140077cd8     MainInstance.obj
 0002:00013d00       ??_R1A@?0A@EA@LockManager@KizuLib@@8 0000000140077d00     MainInstance.obj
 0002:00013d28       ??_R3?$ThreadQueue@UDELIVERY_MAIL@MainInstance@@@KizuLib@@8 0000000140077d28     MainInstance.obj
 0002:00013d40       ??_R3MainInstance@@8       0000000140077d40     MainInstance.obj
 0002:00013d58       ??_R3?$TrackingFrame@UTR_FRAME@@@KizuLib@@8 0000000140077d58     MainInstance.obj
 0002:00013d70       ??_R3LockManager@KizuLib@@8 0000000140077d70     MainInstance.obj
 0002:00013d88       ??_R4MainInstance@@6B@     0000000140077d88     MainInstance.obj
 0002:00013db0       ??_R4?$ThreadQueue@UDELIVERY_MAIL@MainInstance@@@KizuLib@@6B@ 0000000140077db0     MainInstance.obj
 0002:00013dd8       ??_R4?$TrackingFrame@UTR_FRAME@@@KizuLib@@6B@ 0000000140077dd8     MainInstance.obj
 0002:00013e00       ??_R4LockManager@KizuLib@@6B@ 0000000140077e00     MainInstance.obj
 0002:00013e28       ??_R2MergeManager@@8       0000000140077e28     MergeManager.obj
 0002:00013e38       ??_R1A@?0A@EA@MergeManager@@8 0000000140077e38     MergeManager.obj
 0002:00013e60       ??_R3MergeManager@@8       0000000140077e60     MergeManager.obj
 0002:00013e78       ??_R4MergeManager@@6B@     0000000140077e78     MergeManager.obj
 0002:00013ea0       ??_R2OpSendFunc@@8         0000000140077ea0     OpSendFunc.obj
 0002:00013eb0       ??_R1A@?0A@EA@OpSendFunc@@8 0000000140077eb0     OpSendFunc.obj
 0002:00013ed8       ??_R3OpSendFunc@@8         0000000140077ed8     OpSendFunc.obj
 0002:00013ef0       ??_R4OpSendFunc@@6B@       0000000140077ef0     OpSendFunc.obj
 0002:00013f18       ??_R2ParamManager@@8       0000000140077f18     ParamManager.obj
 0002:00013f38       ??_R2?$ThreadQueue@UCOMMON_QUE@@@KizuLib@@8 0000000140077f38     ParamManager.obj
 0002:00013f48       ??_R1A@?0A@EA@ParamManager@@8 0000000140077f48     ParamManager.obj
 0002:00013f70       ??_R1A@?0A@EA@?$ThreadQueue@UCOMMON_QUE@@@KizuLib@@8 0000000140077f70     ParamManager.obj
 0002:00013f98       ??_R3?$ThreadQueue@UCOMMON_QUE@@@KizuLib@@8 0000000140077f98     ParamManager.obj
 0002:00013fb0       ??_R3ParamManager@@8       0000000140077fb0     ParamManager.obj
 0002:00013fc8       ??_R4?$ThreadQueue@UCOMMON_QUE@@@KizuLib@@6B@ 0000000140077fc8     ParamManager.obj
 0002:00013ff0       ??_R4ParamManager@@6B@     0000000140077ff0     ParamManager.obj
 0002:00014018       ??_R2PlgManager@@8         0000000140078018     PlgManager.obj
 0002:00014038       ??_R1A@?0A@EA@PlgManager@@8 0000000140078038     PlgManager.obj
 0002:00014060       ??_R3PlgManager@@8         0000000140078060     PlgManager.obj
 0002:00014078       ??_R4PlgManager@@6B@       0000000140078078     PlgManager.obj
 0002:000140a0       ??_R2?$ThreadQueue@USEQ_TYPE_DATA_FRAME@@@KizuLib@@8 00000001400780a0     SeqFrameRecv.obj
 0002:000140b0       ??_R2SeqFrameRecv@@8       00000001400780b0     SeqFrameRecv.obj
 0002:000140d0       ??_R1A@?0A@EA@SeqFrameRecv@@8 00000001400780d0     SeqFrameRecv.obj
 0002:000140f8       ??_R1A@?0A@EA@?$ThreadQueue@USEQ_TYPE_DATA_FRAME@@@KizuLib@@8 00000001400780f8     SeqFrameRecv.obj
 0002:00014120       ??_R3?$ThreadQueue@USEQ_TYPE_DATA_FRAME@@@KizuLib@@8 0000000140078120     SeqFrameRecv.obj
 0002:00014138       ??_R3SeqFrameRecv@@8       0000000140078138     SeqFrameRecv.obj
 0002:00014150       ??_R4?$ThreadQueue@USEQ_TYPE_DATA_FRAME@@@KizuLib@@6B@ 0000000140078150     SeqFrameRecv.obj
 0002:00014178       ??_R4SeqFrameRecv@@6B@     0000000140078178     SeqFrameRecv.obj
 0002:000141a0       ??_R2SListBox@@8           00000001400781a0     SListBox.obj
 0002:000141d0       ??_R1A@?0A@EA@SListBox@@8  00000001400781d0     SListBox.obj
 0002:000141f8       ??_R3SListBox@@8           00000001400781f8     SListBox.obj
 0002:00014210       ??_R4SListBox@@6B@         0000000140078210     SListBox.obj
 0002:00014238       ??_R2CButton@@8            0000000140078238     SListBox.obj
 0002:00014260       ??_R1A@?0A@EA@CButton@@8   0000000140078260     SListBox.obj
 0002:00014288       ??_R4CButton@@6B@          0000000140078288     SListBox.obj
 0002:000142b0       ??_R3CButton@@8            00000001400782b0     SListBox.obj
 0002:000142c8       ??_R4CGdiObject@@6B@       00000001400782c8     SListBox.obj
 0002:000142f0       ??_R1A@?0A@EA@CFont@@8     00000001400782f0     SListBox.obj
 0002:00014318       ??_R3CGdiObject@@8         0000000140078318     SListBox.obj
 0002:00014330       ??_R2CGdiObject@@8         0000000140078330     SListBox.obj
 0002:00014348       ??_R2CFont@@8              0000000140078348     SListBox.obj
 0002:00014368       ??_R1A@?0A@EA@CGdiObject@@8 0000000140078368     SListBox.obj
 0002:00014390       ??_R4CFont@@6B@            0000000140078390     SListBox.obj
 0002:000143b8       ??_R3CFont@@8              00000001400783b8     SListBox.obj
 0002:000143d0       ??_R1A@?0A@EA@CListCtrl@@8 00000001400783d0     SListBox.obj
 0002:000143f8       ??_R2CWnd@@8               00000001400783f8     SListBox.obj
 0002:00014418       ??_R1A@?0A@EA@CWnd@@8      0000000140078418     SListBox.obj
 0002:00014440       ??_R3CWnd@@8               0000000140078440     SListBox.obj
 0002:00014458       ??_R2CCmdTarget@@8         0000000140078458     SListBox.obj
 0002:00014470       ??_R1A@?0A@EA@CCmdTarget@@8 0000000140078470     SListBox.obj
 0002:00014498       ??_R3CCmdTarget@@8         0000000140078498     SListBox.obj
 0002:000144b0       ??_R2CObject@@8            00000001400784b0     SListBox.obj
 0002:000144c0       ??_R1A@?0A@EA@CObject@@8   00000001400784c0     SListBox.obj
 0002:000144e8       ??_R3CObject@@8            00000001400784e8     SListBox.obj
 0002:00014500       ??_R3CListCtrl@@8          0000000140078500     SListBox.obj
 0002:00014518       ??_R2CListCtrl@@8          0000000140078518     SListBox.obj
 0002:00014540       ??_R4CListCtrl@@6B@        0000000140078540     SListBox.obj
 0002:00014568       ??_R2SogyoManager@@8       0000000140078568     SogyoManager.obj
 0002:00014588       ??_R1A@?0A@EA@SogyoManager@@8 0000000140078588     SogyoManager.obj
 0002:000145b0       ??_R3SogyoManager@@8       00000001400785b0     SogyoManager.obj
 0002:000145c8       ??_R4SogyoManager@@6B@     00000001400785c8     SogyoManager.obj
 0002:000145f0       ??_R2?$ThreadQueue@UTYP_MY_ERRWAR_INF@StatusBaseManager@@@KizuLib@@8 00000001400785f0     StatusBaseManager.obj
 0002:00014600       ??_R2StatusBaseManager@@8  0000000140078600     StatusBaseManager.obj
 0002:00014620       ??_R1A@?0A@EA@?$ThreadQueue@UTYP_MY_ERRWAR_INF@StatusBaseManager@@@KizuLib@@8 0000000140078620     StatusBaseManager.obj
 0002:00014648       ??_R1A@?0A@EA@StatusBaseManager@@8 0000000140078648     StatusBaseManager.obj
 0002:00014670       ??_R3?$ThreadQueue@UTYP_MY_ERRWAR_INF@StatusBaseManager@@@KizuLib@@8 0000000140078670     StatusBaseManager.obj
 0002:00014688       ??_R3StatusBaseManager@@8  0000000140078688     StatusBaseManager.obj
 0002:000146a0       ??_R4?$ThreadQueue@UTYP_MY_ERRWAR_INF@StatusBaseManager@@@KizuLib@@6B@ 00000001400786a0     StatusBaseManager.obj
 0002:000146c8       ??_R4StatusBaseManager@@6B@ 00000001400786c8     StatusBaseManager.obj
 0002:000146f0       ??_R2StatusLogFunc@@8      00000001400786f0     StatusLogFunc.obj
 0002:00014708       ??_R1A@?0A@EA@StatusLogFunc@@8 0000000140078708     StatusLogFunc.obj
 0002:00014730       ??_R3StatusLogFunc@@8      0000000140078730     StatusLogFunc.obj
 0002:00014748       ??_R4StatusLogFunc@@6B@    0000000140078748     StatusLogFunc.obj
 0002:00014770       ??_R2StatusManager@@8      0000000140078770     StatusManager.obj
 0002:00014798       ??_R1A@?0A@EA@StatusManager@@8 0000000140078798     StatusManager.obj
 0002:000147c0       ??_R3StatusManager@@8      00000001400787c0     StatusManager.obj
 0002:000147d8       ??_R4StatusManager@@6B@    00000001400787d8     StatusManager.obj
 0002:00014800       ??_R2CTO_DEFECTApp@@8      0000000140078800     TO_DEFECT.obj
 0002:00014830       ??_R2CWinThread@@8         0000000140078830     TO_DEFECT.obj
 0002:00014850       ??_R2CWinApp@@8            0000000140078850     TO_DEFECT.obj
 0002:00014878       ??_R1A@?0A@EA@CWinApp@@8   0000000140078878     TO_DEFECT.obj
 0002:000148a0       ??_R1A@?0A@EA@CTO_DEFECTApp@@8 00000001400788a0     TO_DEFECT.obj
 0002:000148c8       ??_R1A@?0A@EA@CWinThread@@8 00000001400788c8     TO_DEFECT.obj
 0002:000148f0       ??_R3CWinApp@@8            00000001400788f0     TO_DEFECT.obj
 0002:00014908       ??_R3CWinThread@@8         0000000140078908     TO_DEFECT.obj
 0002:00014920       ??_R3CTO_DEFECTApp@@8      0000000140078920     TO_DEFECT.obj
 0002:00014938       ??_R4CTO_DEFECTApp@@6B@    0000000140078938     TO_DEFECT.obj
 0002:00014960       ??_R1A@?0A@EA@CBrush@@8    0000000140078960     TO_DEFECT.obj
 0002:00014988       ??_R3CBrush@@8             0000000140078988     TO_DEFECT.obj
 0002:000149a0       ??_R2CBrush@@8             00000001400789a0     TO_DEFECT.obj
 0002:000149c0       ??_R4CBrush@@6B@           00000001400789c0     TO_DEFECT.obj
 0002:000149e8       ??_R2CDialogEx@@8          00000001400789e8     TO_DEFECTDlg.obj
 0002:00014a18       ??_R2CTO_DEFECTDlg@@8      0000000140078a18     TO_DEFECTDlg.obj
 0002:00014a50       ??_R1A@?0A@EA@CTO_DEFECTDlg@@8 0000000140078a50     TO_DEFECTDlg.obj
 0002:00014a78       ??_R3CDialog@@8            0000000140078a78     TO_DEFECTDlg.obj
 0002:00014a90       ??_R2CDialog@@8            0000000140078a90     TO_DEFECTDlg.obj
 0002:00014ab8       ??_R1A@?0A@EA@CDialogEx@@8 0000000140078ab8     TO_DEFECTDlg.obj
 0002:00014ae0       ??_R1A@?0A@EA@CDialog@@8   0000000140078ae0     TO_DEFECTDlg.obj
 0002:00014b08       ??_R3CDialogEx@@8          0000000140078b08     TO_DEFECTDlg.obj
 0002:00014b20       ??_R3CTO_DEFECTDlg@@8      0000000140078b20     TO_DEFECTDlg.obj
 0002:00014b38       ??_R4CTO_DEFECTDlg@@6B@    0000000140078b38     TO_DEFECTDlg.obj
 0002:00014b60       ??_R1A@?0A@EA@CListBox@@8  0000000140078b60     TO_DEFECTDlg.obj
 0002:00014b88       ??_R3CListBox@@8           0000000140078b88     TO_DEFECTDlg.obj
 0002:00014ba0       ??_R2CListBox@@8           0000000140078ba0     TO_DEFECTDlg.obj
 0002:00014bc8       ??_R4CListBox@@6B@         0000000140078bc8     TO_DEFECTDlg.obj
 0002:00014bf0       ??_R2?$ThreadQueue@UDELIVERYSTATUS@KikiManager@@@KizuLib@@8 0000000140078bf0     DefectLib:KikiManager.obj
 0002:00014c00       ??_R2KikiManager@@8        0000000140078c00     DefectLib:KikiManager.obj
 0002:00014c18       ??_R1A@?0A@EA@KikiManager@@8 0000000140078c18     DefectLib:KikiManager.obj
 0002:00014c40       ??_R1A@?0A@EA@?$ThreadQueue@UDELIVERYSTATUS@KikiManager@@@KizuLib@@8 0000000140078c40     DefectLib:KikiManager.obj
 0002:00014c68       ??_R3?$ThreadQueue@UDELIVERYSTATUS@KikiManager@@@KizuLib@@8 0000000140078c68     DefectLib:KikiManager.obj
 0002:00014c80       ??_R3KikiManager@@8        0000000140078c80     DefectLib:KikiManager.obj
 0002:00014c98       ??_R4?$ThreadQueue@UDELIVERYSTATUS@KikiManager@@@KizuLib@@6B@ 0000000140078c98     DefectLib:KikiManager.obj
 0002:00014cc0       ??_R4KikiManager@@6B@      0000000140078cc0     DefectLib:KikiManager.obj
 0002:00014ce8       ??_R2DBSaveManager@@8      0000000140078ce8     DefectLib:DBSaveManager.obj
 0002:00014d00       ??_R1A@?0A@EA@DBSaveManager@@8 0000000140078d00     DefectLib:DBSaveManager.obj
 0002:00014d28       ??_R3DBSaveManager@@8      0000000140078d28     DefectLib:DBSaveManager.obj
 0002:00014d40       ??_R4DBSaveManager@@6B@    0000000140078d40     DefectLib:DBSaveManager.obj
 0002:00014d68       ??_R4KizuHtRecv@@6B@       0000000140078d68     DefectLib:KizuHtRecv.obj
 0002:00014d90       ??_R2Tracking@@8           0000000140078d90     DefectLib:Tracking.obj
 0002:00014da8       ??_R3Tracking@@8           0000000140078da8     DefectLib:Tracking.obj
 0002:00014dc0       ??_R1A@?0A@EA@Tracking@@8  0000000140078dc0     DefectLib:Tracking.obj
 0002:00014de8       ??_R4Tracking@@6B@         0000000140078de8     DefectLib:Tracking.obj
 0002:00014e10       ??_R2KizuOpSend@@8         0000000140078e10     DefectLib:KizuOpSend.obj
 0002:00014e28       ??_R2?$ThreadQueue@USOCK_BASE_HEAD@@@KizuLib@@8 0000000140078e28     DefectLib:KizuOpSend.obj
 0002:00014e38       ??_R1A@?0A@EA@?$ThreadQueue@USOCK_BASE_HEAD@@@KizuLib@@8 0000000140078e38     DefectLib:KizuOpSend.obj
 0002:00014e60       ??_R1A@?0A@EA@KizuOpSend@@8 0000000140078e60     DefectLib:KizuOpSend.obj
 0002:00014e88       ??_R3?$ThreadQueue@USOCK_BASE_HEAD@@@KizuLib@@8 0000000140078e88     DefectLib:KizuOpSend.obj
 0002:00014ea0       ??_R3KizuOpSend@@8         0000000140078ea0     DefectLib:KizuOpSend.obj
 0002:00014eb8       ??_R4?$ThreadQueue@USOCK_BASE_HEAD@@@KizuLib@@6B@ 0000000140078eb8     DefectLib:KizuOpSend.obj
 0002:00014ee0       ??_R4KizuOpSend@@6B@       0000000140078ee0     DefectLib:KizuOpSend.obj
 0002:00014f08       ??_R2TrackingList@@8       0000000140078f08     DefectLib:TrackingList.obj
 0002:00014f20       ??_R2?$ThreadQueue@UTR_INF@TrackingList@@@KizuLib@@8 0000000140078f20     DefectLib:TrackingList.obj
 0002:00014f30       ??_R1A@?0A@EA@?$ThreadQueue@UTR_INF@TrackingList@@@KizuLib@@8 0000000140078f30     DefectLib:TrackingList.obj
 0002:00014f58       ??_R1A@?0A@EA@TrackingList@@8 0000000140078f58     DefectLib:TrackingList.obj
 0002:00014f80       ??_R3?$ThreadQueue@UTR_INF@TrackingList@@@KizuLib@@8 0000000140078f80     DefectLib:TrackingList.obj
 0002:00014f98       ??_R3TrackingList@@8       0000000140078f98     DefectLib:TrackingList.obj
 0002:00014fb0       ??_R4?$ThreadQueue@UTR_INF@TrackingList@@@KizuLib@@6B@ 0000000140078fb0     DefectLib:TrackingList.obj
 0002:00014fd8       ??_R4TrackingList@@6B@     0000000140078fd8     DefectLib:TrackingList.obj
 0002:00015000       ??_R2BCPManager@KizuODBC@@8 0000000140079000     KizuBCP:BCPManager.obj
 0002:00015018       ??_R1A@?0A@EA@OdbcManager@KizuODBC@@8 0000000140079018     KizuBCP:BCPManager.obj
 0002:00015040       ??_R3OdbcManager@KizuODBC@@8 0000000140079040     KizuBCP:BCPManager.obj
 0002:00015058       ??_R2OdbcManager@KizuODBC@@8 0000000140079058     KizuBCP:BCPManager.obj
 0002:00015068       ??_R1A@?0A@EA@BCPManager@KizuODBC@@8 0000000140079068     KizuBCP:BCPManager.obj
 0002:00015090       ??_R3BCPManager@KizuODBC@@8 0000000140079090     KizuBCP:BCPManager.obj
 0002:000150a8       ??_R4BCPManager@KizuODBC@@6B@ 00000001400790a8     KizuBCP:BCPManager.obj
 0002:000150d0       ??_R4ThreadManager@@6B@    00000001400790d0     KizuLibMFC:ThreadManager.obj
 0002:000150f8       ??_R2?$ThreadQueue@D@KizuLib@@8 00000001400790f8     KizuLibMFC:LogFileManager.obj
 0002:00015108       ??_R2LogFileManager@KizuLib@@8 0000000140079108     KizuLibMFC:LogFileManager.obj
 0002:00015120       ??_R1A@?0A@EA@LogFileManager@KizuLib@@8 0000000140079120     KizuLibMFC:LogFileManager.obj
 0002:00015148       ??_R1A@?0A@EA@?$ThreadQueue@D@KizuLib@@8 0000000140079148     KizuLibMFC:LogFileManager.obj
 0002:00015170       ??_R3LogFileManager@KizuLib@@8 0000000140079170     KizuLibMFC:LogFileManager.obj
 0002:00015188       ??_R3?$ThreadQueue@D@KizuLib@@8 0000000140079188     KizuLibMFC:LogFileManager.obj
 0002:000151a0       ??_R4LogFileManager@KizuLib@@6B@ 00000001400791a0     KizuLibMFC:LogFileManager.obj
 0002:000151c8       ??_R4?$ThreadQueue@D@KizuLib@@6B@ 00000001400791c8     KizuLibMFC:LogFileManager.obj
 0002:000151f0       ??_R2DspListView@KizuLib@@8 00000001400791f0     KizuLibMFC:DspListView.obj
 0002:00015200       ??_R1A@?0A@EA@DspListView@KizuLib@@8 0000000140079200     KizuLibMFC:DspListView.obj
 0002:00015228       ??_R3DspListView@KizuLib@@8 0000000140079228     KizuLibMFC:DspListView.obj
 0002:00015240       ??_R4DspListView@KizuLib@@6B@ 0000000140079240     KizuLibMFC:DspListView.obj
 0002:00015268       ??_R4WorkThread@KizuLib@@6B@ 0000000140079268     KizuLib:WorkThread.obj
 0002:00015290       ??_R2KizuPerformanceCounter@KizuLib@@8 0000000140079290     KizuLib:KizuPerformanceCounter.obj
 0002:000152a0       ??_R1A@?0A@EA@KizuPerformanceCounter@KizuLib@@8 00000001400792a0     KizuLib:KizuPerformanceCounter.obj
 0002:000152c8       ??_R4KizuPerformanceCounter@KizuLib@@6B@ 00000001400792c8     KizuLib:KizuPerformanceCounter.obj
 0002:000152f0       ??_R3KizuPerformanceCounter@KizuLib@@8 00000001400792f0     KizuLib:KizuPerformanceCounter.obj
 0002:00015308       ??_R2MailSlotManager@KizuLib@@8 0000000140079308     KizuLib:MailSlotManager.obj
 0002:00015328       ??_R17?0A@EA@ICommunityAsync@KizuLib@@8 0000000140079328     KizuLib:MailSlotManager.obj
 0002:00015350       ??_R1A@?0A@EA@MailSlotManager@KizuLib@@8 0000000140079350     KizuLib:MailSlotManager.obj
 0002:00015378       ??_R2ICommunityAsync@KizuLib@@8 0000000140079378     KizuLib:MailSlotManager.obj
 0002:00015388       ??_R2ICommunity@KizuLib@@8 0000000140079388     KizuLib:MailSlotManager.obj
 0002:00015398       ??_R3MailSlotManager@KizuLib@@8 0000000140079398     KizuLib:MailSlotManager.obj
 0002:000153b0       ??_R1A@?0A@EA@ICommunityAsync@KizuLib@@8 00000001400793b0     KizuLib:MailSlotManager.obj
 0002:000153d8       ??_R1A@?0A@EA@ICommunity@KizuLib@@8 00000001400793d8     KizuLib:MailSlotManager.obj
 0002:00015400       ??_R3ICommunity@KizuLib@@8 0000000140079400     KizuLib:MailSlotManager.obj
 0002:00015418       ??_R3ICommunityAsync@KizuLib@@8 0000000140079418     KizuLib:MailSlotManager.obj
 0002:00015430       ??_R4MailSlotManager@KizuLib@@6BICommunityAsync@1@@ 0000000140079430     KizuLib:MailSlotManager.obj
 0002:00015458       ??_R4MailSlotManager@KizuLib@@6BICommunity@1@@ 0000000140079458     KizuLib:MailSlotManager.obj
 0002:00015480       ??_R2KizuPcInfManager@KizuLib@@8 0000000140079480     KizuLib:KizuPcInfManager.obj
 0002:00015490       ??_R1A@?0A@EA@KizuPcInfManager@KizuLib@@8 0000000140079490     KizuLib:KizuPcInfManager.obj
 0002:000154b8       ??_R3KizuPcInfManager@KizuLib@@8 00000001400794b8     KizuLib:KizuPcInfManager.obj
 0002:000154d0       ??_R4KizuPcInfManager@KizuLib@@6B@ 00000001400794d0     KizuLib:KizuPcInfManager.obj
 0002:000154f8       ??_R1A@?0A@EA@OdbcBase@KizuODBC@@8 00000001400794f8     KizuODBC:OdbcBase.obj
 0002:00015520       ??_R3OdbcBase@KizuODBC@@8  0000000140079520     KizuODBC:OdbcBase.obj
 0002:00015538       ??_R2OdbcBase@KizuODBC@@8  0000000140079538     KizuODBC:OdbcBase.obj
 0002:00015548       ??_R4OdbcBase@KizuODBC@@6B@ 0000000140079548     KizuODBC:OdbcBase.obj
 0002:00015570       ??_R4OdbcManager@KizuODBC@@6B@ 0000000140079570     KizuODBC:OdbcManager.obj
 0002:00015598       ??_R2OdbcEnv@KizuODBC@@8   0000000140079598     KizuODBC:OdbcEnv.obj
 0002:000155a8       ??_R3OdbcEnv@KizuODBC@@8   00000001400795a8     KizuODBC:OdbcEnv.obj
 0002:000155c0       ??_R1A@?0A@EA@OdbcEnv@KizuODBC@@8 00000001400795c0     KizuODBC:OdbcEnv.obj
 0002:000155e8       ??_R4OdbcEnv@KizuODBC@@6B@ 00000001400795e8     KizuODBC:OdbcEnv.obj
 0002:00015610       ??_R3SockBase@KizuSock3@@8 0000000140079610     KizuSOCK3:SockBase.obj
 0002:00015628       ??_R2SockBase@KizuSock3@@8 0000000140079628     KizuSOCK3:SockBase.obj
 0002:00015638       ??_R1A@?0A@EA@SockBase@KizuSock3@@8 0000000140079638     KizuSOCK3:SockBase.obj
 0002:00015660       ??_R4SockBase@KizuSock3@@6B@ 0000000140079660     KizuSOCK3:SockBase.obj
 0002:00015688       ??_R2ksControl@KizuSock3@@8 0000000140079688     KizuSOCK3:ksControl.obj
 0002:00015698       ??_R4ksControl@KizuSock3@@6B@ 0000000140079698     KizuSOCK3:ksControl.obj
 0002:000156c0       ??_R1A@?0A@EA@ksControl@KizuSock3@@8 00000001400796c0     KizuSOCK3:ksControl.obj
 0002:000156e8       ??_R3ksControl@KizuSock3@@8 00000001400796e8     KizuSOCK3:ksControl.obj
 0002:00015700       ??_R2ksThread@KizuSock3@@8 0000000140079700     KizuSOCK3:ksThread.obj
 0002:00015710       ??_R1A@?0A@EA@ksThread@KizuSock3@@8 0000000140079710     KizuSOCK3:ksThread.obj
 0002:00015738       ??_R4ksThread@KizuSock3@@6B@ 0000000140079738     KizuSOCK3:ksThread.obj
 0002:00015760       ??_R3ksThread@KizuSock3@@8 0000000140079760     KizuSOCK3:ksThread.obj
 0002:00015b68       __rtc_iaa                  0000000140079b68     msvcrt:_initsect_.obj
 0002:00015b70       __rtc_izz                  0000000140079b70     msvcrt:_initsect_.obj
 0002:00015b78       __rtc_taa                  0000000140079b78     msvcrt:_initsect_.obj
 0002:00015b80       __rtc_tzz                  0000000140079b80     msvcrt:_initsect_.obj
 0002:000214c8       _CTA2?AVbad_cast@std@@     00000001400854c8     DefectDumpManager.obj
 0002:000214e0       _CT??_R0?AVbad_cast@std@@@8??0bad_cast@std@@QEAA@AEBV01@@Z24 00000001400854e0     DefectDumpManager.obj
 0002:00021508       _TI2?AVbad_cast@std@@      0000000140085508     DefectDumpManager.obj
 0002:00021528       _CT??_R0?AVexception@std@@@8??0exception@std@@QEAA@AEBV01@@Z24 0000000140085528     DefectDumpManager.obj
 0002:00021550       _CT??_R0H@84               0000000140085550     KizuSOCK3:SockBase.obj
 0002:00021578       _CTA1H                     0000000140085578     KizuSOCK3:SockBase.obj
 0002:00021588       _TI1H                      0000000140085588     KizuSOCK3:SockBase.obj
 0002:000215a8       __IMPORT_DESCRIPTOR_WS2_32 00000001400855a8     KizuLib:WS2_32.dll
 0002:000215bc       __IMPORT_DESCRIPTOR_ODBC32 00000001400855bc     KizuODBC:ODBC32.dll
 0002:000215d0       __IMPORT_DESCRIPTOR_mfc140 00000001400855d0     mfc140:mfc140.dll
 0002:000215e4       __IMPORT_DESCRIPTOR_KERNEL32 00000001400855e4     kernel32:KERNEL32.dll
 0002:000215f8       __IMPORT_DESCRIPTOR_USER32 00000001400855f8     user32:USER32.dll
 0002:0002160c       __IMPORT_DESCRIPTOR_GDI32  000000014008560c     gdi32:GDI32.dll
 0002:00021620       __IMPORT_DESCRIPTOR_COMCTL32 0000000140085620     comctl32:COMCTL32.dll
 0002:00021634       __IMPORT_DESCRIPTOR_MSVCP140 0000000140085634     msvcprt:MSVCP140.dll
 0002:00021648       __IMPORT_DESCRIPTOR_VCRUNTIME140 0000000140085648     vcruntime:VCRUNTIME140.dll
 0002:0002165c       __IMPORT_DESCRIPTOR_api-ms-win-crt-runtime-l1-1-0 000000014008565c     ucrt:api-ms-win-crt-runtime-l1-1-0.dll
 0002:00021670       __IMPORT_DESCRIPTOR_api-ms-win-crt-math-l1-1-0 0000000140085670     ucrt:api-ms-win-crt-math-l1-1-0.dll
 0002:00021684       __IMPORT_DESCRIPTOR_api-ms-win-crt-stdio-l1-1-0 0000000140085684     ucrt:api-ms-win-crt-stdio-l1-1-0.dll
 0002:00021698       __IMPORT_DESCRIPTOR_api-ms-win-crt-filesystem-l1-1-0 0000000140085698     ucrt:api-ms-win-crt-filesystem-l1-1-0.dll
 0002:000216ac       __IMPORT_DESCRIPTOR_api-ms-win-crt-locale-l1-1-0 00000001400856ac     ucrt:api-ms-win-crt-locale-l1-1-0.dll
 0002:000216c0       __IMPORT_DESCRIPTOR_api-ms-win-crt-time-l1-1-0 00000001400856c0     ucrt:api-ms-win-crt-time-l1-1-0.dll
 0002:000216d4       __IMPORT_DESCRIPTOR_api-ms-win-crt-convert-l1-1-0 00000001400856d4     ucrt:api-ms-win-crt-convert-l1-1-0.dll
 0002:000216e8       __IMPORT_DESCRIPTOR_api-ms-win-crt-heap-l1-1-0 00000001400856e8     ucrt:api-ms-win-crt-heap-l1-1-0.dll
 0002:000216fc       __IMPORT_DESCRIPTOR_sqlncli11 00000001400856fc     sqlncli11:sqlncli11.dll
 0002:00021710       __NULL_IMPORT_DESCRIPTOR   0000000140085710     KizuLib:WS2_32.dll
 0003:00000000       __scrt_native_dllmain_reason 0000000140088000     msvcrt:utility.obj
 0003:00000004       _Init_global_epoch         0000000140088004     msvcrt:thread_safe_statics.obj
 0003:00000008       __security_cookie          0000000140088008     msvcrt:gs_cookie.obj
 0003:00000010       __security_cookie_complement 0000000140088010     msvcrt:gs_cookie.obj
 0003:00000018       __isa_available            0000000140088018     msvcrt:_cpu_disp_.obj
 0003:0000001c       __isa_enabled              000000014008801c     msvcrt:_cpu_disp_.obj
 0003:00000020       __memcpy_nt_iters          0000000140088020     msvcrt:_cpu_disp_.obj
 0003:00000028       __scrt_default_matherr     0000000140088028     msvcrt:matherr.obj
 0003:00000030       __scrt_ucrt_dll_is_in_use  0000000140088030     msvcrt:ucrt_stubs.obj
 0003:00000040       _fltused                   0000000140088040     msvcrt:dllsupp.obj
 0003:00000050       ??_R0?AVtype_info@@@8      0000000140088050     msvcrt:std_type_info_static.obj
 0003:00000070       ??_R0?AVThreadManager@@@8  0000000140088070     AlarmeManager.obj
 0003:00000098       ??_R0?AVWorkThread@KizuLib@@@8 0000000140088098     AlarmeManager.obj
 0003:000000c8       ??_R0?AVAlarmeManager@@@8  00000001400880c8     AlarmeManager.obj
 0003:000000f0       ??_R0?AVAutoLock@KizuLib@@@8 00000001400880f0     AlarmeManager.obj
 0003:00000118       ??_R0?AVDbBaseManager@@@8  0000000140088118     BcpSaveManager.obj
 0003:00000140       ??_R0?AVBCPSaveManager@@@8 0000000140088140     BcpSaveManager.obj
 0003:00000168       ??_R0?AVCamLinkSpeedManager@@@8 0000000140088168     CamLinkSpeedManager.obj
 0003:000001a0       ??_R0?AV?$ThreadQueue@USEND_UDP@CmdSender@@@KizuLib@@@8 00000001400881a0     CmdSender.obj
 0003:000001e8       ??_R0?AVCmdSender@@@8      00000001400881e8     CmdSender.obj
 0003:00000208       ??_R0?AVCoilBaseManager@@@8 0000000140088208     CoilBaseManager.obj
 0003:00000230       ??_R0?AVCoilManager@@@8    0000000140088230     CoilManager.obj
 0003:00000260       ??_R0?AV?$ThreadQueue@UDeliveryDB@DbBaseManager@@@KizuLib@@@8 0000000140088260     DbBaseManager.obj
 0003:000002b0       ??_R0?AV?$ThreadQueue@UDELIVERYSQL@DBSaveManager@@@KizuLib@@@8 00000001400882b0     DbBaseManager.obj
 0003:00000300       ??_R0?AVDBManager@@@8      0000000140088300     DBManager.obj
 0003:00000320       ??_R0?AV?$ThreadQueue@UDEFDUMP_QUE@DefectDumpManager@@@KizuLib@@@8 0000000140088320     DefectDumpManager.obj
 0003:00000370       ??_R0?AVDefectDumpManager@@@8 0000000140088370     DefectDumpManager.obj
 0003:000003a0       ??_R0?AV?$basic_ostream@DU?$char_traits@D@std@@@std@@@8 00000001400883a0     DefectDumpManager.obj
 0003:000003e8       ??_R0?AVios_base@std@@@8   00000001400883e8     DefectDumpManager.obj
 0003:00000410       ??_R0?AV?$_Iosb@H@std@@@8  0000000140088410     DefectDumpManager.obj
 0003:00000438       ??_R0?AV?$basic_ios@DU?$char_traits@D@std@@@std@@@8 0000000140088438     DefectDumpManager.obj
 0003:00000480       ??_R0?AV?$basic_ofstream@DU?$char_traits@D@std@@@std@@@8 0000000140088480     DefectDumpManager.obj
 0003:000004d0       ??_R0?AV?$basic_streambuf@DU?$char_traits@D@std@@@std@@@8 00000001400884d0     DefectDumpManager.obj
 0003:00000520       ??_R0?AV?$basic_filebuf@DU?$char_traits@D@std@@@std@@@8 0000000140088520     DefectDumpManager.obj
 0003:00000568       ??_R0?AVbad_cast@std@@@8   0000000140088568     DefectDumpManager.obj
 0003:00000590       ??_R0?AVexception@std@@@8  0000000140088590     DefectDumpManager.obj
 0003:000005c0       ??_R0?AV?$ThreadQueue@UDELIVERY@DmemManager@@@KizuLib@@@8 00000001400885c0     DmemManager.obj
 0003:00000608       ??_R0?AVDmemManager@@@8    0000000140088608     DmemManager.obj
 0003:00000630       ??_R0?AVFuncBase@@@8       0000000140088630     EdgePosControl.obj
 0003:00000650       ??_R0?AVEdgePosControl@@@8 0000000140088650     EdgePosControl.obj
 0003:00000680       ??_R0?AV?$ThreadQueue@UNCL_EDGE_RESTRICT_DATA@@@KizuLib@@@8 0000000140088680     EdgeRestrictSender.obj
 0003:000006c8       ??_R0?AVEdgeRestrictSender@@@8 00000001400886c8     EdgeRestrictSender.obj
 0003:000006f8       ??_R0?AVHtRecvBaseManager@@@8 00000001400886f8     HtRecv.obj
 0003:00000720       ??_R0?AVKizuHtRecv@@@8     0000000140088720     HtRecv.obj
 0003:00000748       ??_R0?AVHtRecv@@@8         0000000140088748     HtRecv.obj
 0003:00000768       ??_R0?AVIfRpiSave@@@8      0000000140088768     IfRpiSave.obj
 0003:00000788       ??_R0?AVIPortViewerManager@@@8 0000000140088788     IPortViewerManager.obj
 0003:000007c0       ??_R0?AV?$ThreadQueue@UTYP_MAE_REQUEST@MaeManager@@@KizuLib@@@8 00000001400887c0     MaeManager.obj
 0003:00000810       ??_R0?AVMaeManager@@@8     0000000140088810     MaeManager.obj
 0003:00000840       ??_R0?AV?$ThreadQueue@UDELIVERY_MAIL@MainInstance@@@KizuLib@@@8 0000000140088840     MainInstance.obj
 0003:00000890       ??_R0?AVMainInstance@@@8   0000000140088890     MainInstance.obj
 0003:000008b8       ??_R0?AV?$TrackingFrame@UTR_FRAME@@@KizuLib@@@8 00000001400888b8     MainInstance.obj
 0003:000008f8       ??_R0?AVLockManager@KizuLib@@@8 00000001400888f8     MainInstance.obj
 0003:00000928       ??_R0?AVMergeManager@@@8   0000000140088928     MergeManager.obj
 0003:00000950       ??_R0?AVOpSendFunc@@@8     0000000140088950     OpSendFunc.obj
 0003:00000978       ??_R0?AV?$ThreadQueue@UCOMMON_QUE@@@KizuLib@@@8 0000000140088978     ParamManager.obj
 0003:000009b8       ??_R0?AVParamManager@@@8   00000001400889b8     ParamManager.obj
 0003:000009e0       ??_R0?AVPlgManager@@@8     00000001400889e0     PlgManager.obj
 0003:00000a10       ??_R0?AV?$ThreadQueue@USEQ_TYPE_DATA_FRAME@@@KizuLib@@@8 0000000140088a10     SeqFrameRecv.obj
 0003:00000a58       ??_R0?AVSeqFrameRecv@@@8   0000000140088a58     SeqFrameRecv.obj
 0003:00000a80       ??_R0?AVSListBox@@@8       0000000140088a80     SListBox.obj
 0003:00000aa0       ??_R0?AVCButton@@@8        0000000140088aa0     SListBox.obj
 0003:00000ac0       ??_R0PEAVCException@@@8    0000000140088ac0     SListBox.obj
 0003:00000ae8       ??_R0?AVCFont@@@8          0000000140088ae8     SListBox.obj
 0003:00000b08       ??_R0?AVCGdiObject@@@8     0000000140088b08     SListBox.obj
 0003:00000b30       ??_R0?AVCListCtrl@@@8      0000000140088b30     SListBox.obj
 0003:00000b50       ??_R0?AVCWnd@@@8           0000000140088b50     SListBox.obj
 0003:00000b70       ??_R0?AVCCmdTarget@@@8     0000000140088b70     SListBox.obj
 0003:00000b98       ??_R0?AVCObject@@@8        0000000140088b98     SListBox.obj
 0003:00000bb8       ??_R0?AVSogyoManager@@@8   0000000140088bb8     SogyoManager.obj
 0003:00000be0       ??_R0?AV?$ThreadQueue@UTYP_MY_ERRWAR_INF@StatusBaseManager@@@KizuLib@@@8 0000000140088be0     StatusBaseManager.obj
 0003:00000c38       ??_R0?AVStatusBaseManager@@@8 0000000140088c38     StatusBaseManager.obj
 0003:00000c60       ??_R0?AVStatusLogFunc@@@8  0000000140088c60     StatusLogFunc.obj
 0003:00000c88       ??_R0?AVStatusManager@@@8  0000000140088c88     StatusManager.obj
 0003:00000cb0       ??_R0?AVCWinApp@@@8        0000000140088cb0     TO_DEFECT.obj
 0003:00000cd0       ??_R0?AVCWinThread@@@8     0000000140088cd0     TO_DEFECT.obj
 0003:00000cf8       ??_R0?AVCTO_DEFECTApp@@@8  0000000140088cf8     TO_DEFECT.obj
 0003:00000d20       ??_R0?AVCBrush@@@8         0000000140088d20     TO_DEFECT.obj
 0003:00000d40       ??_R0?AVCDialog@@@8        0000000140088d40     TO_DEFECTDlg.obj
 0003:00000d60       ??_R0?AVCDialogEx@@@8      0000000140088d60     TO_DEFECTDlg.obj
 0003:00000d80       ??_R0?AVCTO_DEFECTDlg@@@8  0000000140088d80     TO_DEFECTDlg.obj
 0003:00000da8       ??_R0?AVCListBox@@@8       0000000140088da8     TO_DEFECTDlg.obj
 0003:00000dd0       ??_R0?AV?$ThreadQueue@UDELIVERYSTATUS@KikiManager@@@KizuLib@@@8 0000000140088dd0     DefectLib:KikiManager.obj
 0003:00000e20       ??_R0?AVKikiManager@@@8    0000000140088e20     DefectLib:KikiManager.obj
 0003:00000e48       ??_R0?AVDBSaveManager@@@8  0000000140088e48     DefectLib:DBSaveManager.obj
 0003:00000e70       ??_R0H@8                   0000000140088e70     DefectLib:KizuHtRecv.obj
 0003:00000e88       ??_R0?AVTracking@@@8       0000000140088e88     DefectLib:Tracking.obj
 0003:00000ea8       ??_R0?AV?$ThreadQueue@USOCK_BASE_HEAD@@@KizuLib@@@8 0000000140088ea8     DefectLib:KizuOpSend.obj
 0003:00000ee8       ??_R0?AVKizuOpSend@@@8     0000000140088ee8     DefectLib:KizuOpSend.obj
 0003:00000f10       ??_R0?AV?$ThreadQueue@UTR_INF@TrackingList@@@KizuLib@@@8 0000000140088f10     DefectLib:TrackingList.obj
 0003:00000f58       ??_R0?AVTrackingList@@@8   0000000140088f58     DefectLib:TrackingList.obj
 0003:00000f80       ??_R0?AVBCPManager@KizuODBC@@@8 0000000140088f80     KizuBCP:BCPManager.obj
 0003:00000fb0       ??_R0?AVOdbcManager@KizuODBC@@@8 0000000140088fb0     KizuBCP:BCPManager.obj
 0003:00000fe0       ??_R0?AVLogFileManager@KizuLib@@@8 0000000140088fe0     KizuLibMFC:LogFileManager.obj
 0003:00001010       ??_R0?AV?$ThreadQueue@D@KizuLib@@@8 0000000140089010     KizuLibMFC:LogFileManager.obj
 0003:00001040       ??_R0?AVDspListView@KizuLib@@@8 0000000140089040     KizuLibMFC:DspListView.obj
 0003:00001070       ??_R0?AVKizuPerformanceCounter@KizuLib@@@8 0000000140089070     KizuLib:KizuPerformanceCounter.obj
 0003:000010a8       ??_R0?AVMailSlotManager@KizuLib@@@8 00000001400890a8     KizuLib:MailSlotManager.obj
 0003:000010d8       ??_R0?AUICommunity@KizuLib@@@8 00000001400890d8     KizuLib:MailSlotManager.obj
 0003:00001108       ??_R0?AUICommunityAsync@KizuLib@@@8 0000000140089108     KizuLib:MailSlotManager.obj
 0003:00001138       ??_R0?AVKizuPcInfManager@KizuLib@@@8 0000000140089138     KizuLib:KizuPcInfManager.obj
 0003:00001168       ??_R0?AVOdbcBase@KizuODBC@@@8 0000000140089168     KizuODBC:OdbcBase.obj
 0003:00001190       ??_R0?AVOdbcEnv@KizuODBC@@@8 0000000140089190     KizuODBC:OdbcEnv.obj
 0003:000011b8       ??_R0?AVSockBase@KizuSock3@@@8 00000001400891b8     KizuSOCK3:SockBase.obj
 0003:000011e8       ??_R0?AVksControl@KizuSock3@@@8 00000001400891e8     KizuSOCK3:ksControl.obj
 0003:00001218       ??_R0?AVksThread@KizuSock3@@@8 0000000140089218     KizuSOCK3:ksThread.obj
 0003:00001250       __afxForceEXCLUDE          0000000140089250     mfcs140:nolib.obj
 0003:00001254       __afxForceSTDAFX           0000000140089254     mfcs140:stdafx.obj
 0003:00001258       __scrt_current_native_startup_state 0000000140089258     msvcrt:utility.obj
 0003:00001260       __scrt_native_startup_lock 0000000140089260     msvcrt:utility.obj
 0003:00001858       _tls_index                 0000000140089858     msvcrt:tlssup.obj
 0003:0000185c       __favor                    000000014008985c     msvcrt:_cpu_disp_.obj
 0003:00001860       __scrt_debugger_hook_flag  0000000140089860     msvcrt:utility_desktop.obj
 0003:00001870       ?__type_info_root_node@@3U__type_info_node@@A 0000000140089870     msvcrt:tncleanup.obj
 0003:00001880       ?_OptionsStorage@?1??__local_stdio_scanf_options@@9@4_KA 0000000140089880     msvcrt:default_local_stdio_options.obj
 0003:00001890       ?_AtlBaseModule@ATL@@3VCAtlBaseModule@1@A 0000000140089890     atls:atlbase.obj
 0003:000018f0       __@@_PchSym_@00@UwwUexgllohUexHoryhUhsrkUzgonuxUhixUzgoUzgohUlyqBiUznwGEUhgwzucOlyq@CB7A8FA0488D52BF 00000001400898f0     atls:stdafx.obj
 0003:00001901       ?_afxInitAppState@@3DA     0000000140089901     mfcs140:appmodul.obj
 0003:00001908       ?_OptionsStorage@?1??__local_stdio_printf_options@@9@4_KA 0000000140089908     CoilBaseManager.obj
 0003:00001910       ?_Psave@?$_Facetptr@V?$codecvt@DDU_Mbstatet@@@std@@@std@@2PEBVfacet@locale@2@EB 0000000140089910     DefectDumpManager.obj
 0003:00001918       ?_Stinit@?1??_Init@?$basic_filebuf@DU?$char_traits@D@std@@@std@@IEAAXPEAU_iobuf@@W4_Initfl@23@@Z@4U_Mbstatet@@A 0000000140089918     DefectDumpManager.obj
 0003:00001920       ?m_nSelectCamset@LogicParaRunFunc@@0PAHA 0000000140089920     LogicParaRunFunc.obj
 0003:00001960       ?m_nSendCmdIndex@LogicParaRunFunc@@0HA 0000000140089960     LogicParaRunFunc.obj
 0003:00001964       ?m_LinkswCmdKind@LogicParaRunFunc@@0W4ENUM_LINKSW_CMD@1@A 0000000140089964     LogicParaRunFunc.obj
 0003:00001968       ?m_evTimeResumeWait@LogicParaRunFunc@@0PAPEAXA 0000000140089968     LogicParaRunFunc.obj
 0003:00001978       ?m_nLogiParaCam@LogicParaRunFunc@@0PAY01HA 0000000140089978     LogicParaRunFunc.obj
 0003:00001988       ?m_evTimeCamset@LogicParaRunFunc@@0PEAXEA 0000000140089988     LogicParaRunFunc.obj
 0003:00001990       ?m_evTimeResumeStart@LogicParaRunFunc@@0PEAXEA 0000000140089990     LogicParaRunFunc.obj
 0003:00001998       ?mcls_pPlg@LogicParaRunFunc@@0PEAVPlgManager@@EA 0000000140089998     LogicParaRunFunc.obj
 0003:000019a0       ?mcls_pStatus@LogicParaRunFunc@@0PEAVStatusManager@@EA 00000001400899a0     LogicParaRunFunc.obj
 0003:000019a8       ?mcls_pLog@LogicParaRunFunc@@0PEAVLogFileManager@KizuLib@@EA 00000001400899a8     LogicParaRunFunc.obj
 0003:000019b0       ?mcls_pHtRecv@@3PAPEAVHtRecv@@A 00000001400899b0     OpSendFunc.obj
 0003:000019c0       ?mcls_pParam@@3PEAVParamManager@@EA 00000001400899c0     OpSendFunc.obj
 0003:000019c8       ?mcls_pStatus@@3PEAVStatusManager@@EA 00000001400899c8     OpSendFunc.obj
 0003:000019d0       ?mcls_pPlg@@3PEAVPlgManager@@EA 00000001400899d0     OpSendFunc.obj
 0003:000019d8       ?mcls_pCoil@@3PEAVCoilManager@@EA 00000001400899d8     OpSendFunc.obj
 0003:000019e0       ?mque_pOpSend@OpSendFunc@@0PAPEAV?$ThreadQueue@USOCK_BASE_HEAD@@@KizuLib@@A 00000001400899e0     OpSendFunc.obj
 0003:000019f8       ?mcls_pLog@OpSendFunc@@0PEAVLogFileManager@KizuLib@@EA 00000001400899f8     OpSendFunc.obj
 0003:00001a00       ?mcls_pLogPlgDsp@@3PEAVLogFileManager@KizuLib@@EA 0000000140089a00     PlgManager.obj
 0003:00001a58       ?mcls_pStatus@ToLinkswUtil@@0PEAVStatusManager@@EA 0000000140089a58     ToLinkswUtil.obj
 0003:00001a60       ?p_tjInitDecompress@@3P6APEAXXZEA 0000000140089a60     DefectLib:KizuLjtJpegManager.obj
 0003:00001a68       ?p_tjDecompressHeader3@@3P6AHPEAXPEBEKPEAH222@ZEA 0000000140089a68     DefectLib:KizuLjtJpegManager.obj
 0003:00001a70       ?p_tjDecompress2@@3P6AHPEAXPEBEKPEAEHHHHH@ZEA 0000000140089a70     DefectLib:KizuLjtJpegManager.obj
 0003:00001a78       ?m_csLock@DBSaveManager@@0U_RTL_CRITICAL_SECTION@@A 0000000140089a78     DefectLib:DBSaveManager.obj
 0003:00001aa0       ?m_nEndLockNo@DBSaveManager@@0KA 0000000140089aa0     DefectLib:DBSaveManager.obj
 0003:00001ab0       ?PCNAME@@3PAY0BA@DA        0000000140089ab0     KizuLib:KizuLib.obj
 0003:00001eb8       ?my_sThreadName@LogicParaRunFunc@@0V?$CStringT@DV?$StrTraitMFC_DLL@DV?$ChTraitsCRT@D@ATL@@@@@ATL@@A 0000000140089eb8     LogicParaRunFunc.obj
 0003:00001f08       ?mlst_SendCmd@LogicParaRunFunc@@0V?$vector@ULINKSW_CMD@LogicParaRunFunc@@V?$allocator@ULINKSW_CMD@LogicParaRunFunc@@@std@@@std@@A 0000000140089f08     LogicParaRunFunc.obj
 0003:000040d8       ?my_sThreadName@OpSendFunc@@0V?$CStringT@DV?$StrTraitMFC_DLL@DV?$ChTraitsCRT@D@ATL@@@@@ATL@@A 000000014008c0d8     OpSendFunc.obj
 0003:00006298       ?my_sThreadName@ToLinkswUtil@@0V?$CStringT@DV?$StrTraitMFC_DLL@DV?$ChTraitsCRT@D@ATL@@@@@ATL@@A 000000014008e298     ToLinkswUtil.obj
 0003:00038e90       ?theApp@@3VCTO_DEFECTApp@@A 00000001400c0e90     TO_DEFECT.obj
 0003:0003b1d0       ?m_inst@OdbcEnv@KizuODBC@@0V12@A 00000001400c31d0     KizuODBC:OdbcEnv.obj
 0003:0003b420       __@@_PchSym_@00@UmFxtoPgrmbUhixUglPwvuvxgUcGEUivovzhvUhgwzucOlyq@4D3E608D80AC4932 00000001400c3420     stdafx.obj
 0003:0003b424       ?m_bInitFailed@CAtlBaseModule@ATL@@2_NA 00000001400c3424     stdafx.obj
 0003:0003b428       __@@_PchSym_@00@UmFxtoPgrmbUoryizibUwvuvxgoryUcGEUivovzhvUhgwzucOlyq@8FD6745C0A0250A8 00000001400c3428     DefectLib:stdafx.obj
 0003:0003b42c       __@@_PchSym_@00@UmFxtoPgrmbUoryizibUprafyxkUcGEUivovzhvUhgwzucOlyq@955027FAE0342E67 00000001400c342c     KizuBCP:stdafx.obj
 0003:0003b430       __@@_PchSym_@00@UmFxtoPgrmbUoryizibUpraforynuxUcGEUivovzhvUhgwzucOlyq@3810160A3EB1AF0A 00000001400c3430     KizuLibMFC:stdafx.obj
 0003:0003b434       __@@_PchSym_@00@UmFxtoPgrmbUoryizibUpraforyUcGEUivovzhvUhgwzucOlyq@E00AA93763076EC5 00000001400c3434     KizuLib:stdafx.obj
 0003:0003b438       __@@_PchSym_@00@UmFxtoPgrmbUoryizibUpraflwyxUcGEUivovzhvUhgwzucOlyq@33C4FA68462A4CC8 00000001400c3438     KizuODBC:stdafx.obj
 0003:0003b43c       __@@_PchSym_@00@UmFxtoPgrmbUoryizibUprafhlxpDUcGEUivovzhvUhgwzucOlyq@AD26D3352C2EFCA7 00000001400c343c     KizuSOCK3:stdafx.obj
 0003:0016c940       __dyn_tls_dtor_callback    00000001401f4940     <common>
 0003:0016c948       __dyn_tls_init_callback    00000001401f4948     <common>
 0006:00000000       _tls_start                 00000001401fa000     msvcrt:tlssup.obj
 0006:00000004       _Init_thread_epoch         00000001401fa004     msvcrt:thread_safe_statics.obj
 0006:00000008       _tls_end                   00000001401fa008     msvcrt:tlssup.obj

 entry point at        0001:0005bfb0

 Static symbols

 0000:ffdf0000       .debug$S                   0000000140000000     mfc140:mfc140.dll
 0000:ffdf0000       .debug$S                   0000000140000000     mfc140:mfc140.dll
 0000:ffdf0000       .debug$S                   0000000140000000     ucrt:api-ms-win-crt-convert-l1-1-0.dll
 0000:ffdf0000       .debug$S                   0000000140000000     ucrt:api-ms-win-crt-convert-l1-1-0.dll
 0000:ffdf0000       .debug$S                   0000000140000000     ucrt:api-ms-win-crt-filesystem-l1-1-0.dll
 0000:ffdf0000       .debug$S                   0000000140000000     ucrt:api-ms-win-crt-filesystem-l1-1-0.dll
 0000:ffdf0000       .debug$S                   0000000140000000     ucrt:api-ms-win-crt-filesystem-l1-1-0.dll
 0000:ffdf0000       .debug$S                   0000000140000000     mfc140:mfc140.dll
 0000:ffdf0000       .debug$S                   0000000140000000     mfc140:mfc140.dll
 0000:ffdf0000       .debug$S                   0000000140000000     mfc140:mfc140.dll
 0000:ffdf0000       .debug$S                   0000000140000000     mfc140:mfc140.dll
 0000:ffdf0000       .debug$S                   0000000140000000     ucrt:api-ms-win-crt-filesystem-l1-1-0.dll
 0000:ffdf0000       .debug$S                   0000000140000000     ucrt:api-ms-win-crt-filesystem-l1-1-0.dll
 0000:ffdf0000       .debug$S                   0000000140000000     ucrt:api-ms-win-crt-heap-l1-1-0.dll
 0000:ffdf0000       .debug$S                   0000000140000000     sqlncli11:sqlncli11.dll
 0000:ffdf0000       .debug$S                   0000000140000000     mfc140:mfc140.dll
 0000:ffdf0000       .debug$S                   0000000140000000     mfc140:mfc140.dll
 0000:ffdf0000       .debug$S                   0000000140000000     mfc140:mfc140.dll
 0000:ffdf0000       .debug$S                   0000000140000000     mfc140:mfc140.dll
 0000:ffdf0000       .debug$S                   0000000140000000     mfc140:mfc140.dll
 0000:ffdf0000       .debug$S                   0000000140000000     mfc140:mfc140.dll
 0000:ffdf0000       .debug$S                   0000000140000000     mfc140:mfc140.dll
 0000:ffdf0000       .debug$S                   0000000140000000     mfc140:mfc140.dll
 0000:ffdf0000       .debug$S                   0000000140000000     mfc140:mfc140.dll
 0000:ffdf0000       .debug$S                   0000000140000000     mfc140:mfc140.dll
 0000:ffdf0000       .debug$S                   0000000140000000     mfc140:mfc140.dll
 0000:ffdf0000       .debug$S                   0000000140000000     mfc140:mfc140.dll
 0000:ffdf0000       .debug$S                   0000000140000000     mfc140:mfc140.dll
 0000:ffdf0000       .debug$S                   0000000140000000     mfc140:mfc140.dll
 0000:ffdf0000       .debug$S                   0000000140000000     mfc140:mfc140.dll
 0000:ffdf0000       .debug$S                   0000000140000000     mfc140:mfc140.dll
 0000:ffdf0000       .debug$S                   0000000140000000     mfc140:mfc140.dll
 0000:ffdf0000       .debug$S                   0000000140000000     mfc140:mfc140.dll
 0000:ffdf0000       .debug$S                   0000000140000000     mfc140:mfc140.dll
 0000:ffdf0000       .debug$S                   0000000140000000     mfc140:mfc140.dll
 0000:ffdf0000       .debug$S                   0000000140000000     mfc140:mfc140.dll
 0000:ffdf0000       .debug$S                   0000000140000000     mfc140:mfc140.dll
 0000:ffdf0000       .debug$S                   0000000140000000     mfc140:mfc140.dll
 0000:ffdf0000       .debug$S                   0000000140000000     mfc140:mfc140.dll
 0000:ffdf0000       .debug$S                   0000000140000000     mfc140:mfc140.dll
 0000:ffdf0000       .debug$S                   0000000140000000     mfc140:mfc140.dll
 0000:ffdf0000       .debug$S                   0000000140000000     mfc140:mfc140.dll
 0000:ffdf0000       .debug$S                   0000000140000000     mfc140:mfc140.dll
 0000:ffdf0000       .debug$S                   0000000140000000     mfc140:mfc140.dll
 0000:ffdf0000       .debug$S                   0000000140000000     mfc140:mfc140.dll
 0000:ffdf0000       .debug$S                   0000000140000000     mfc140:mfc140.dll
 0000:ffdf0000       .debug$S                   0000000140000000     mfc140:mfc140.dll
 0000:ffdf0000       .debug$S                   0000000140000000     mfc140:mfc140.dll
 0000:ffdf0000       .debug$S                   0000000140000000     mfc140:mfc140.dll
 0000:ffdf0000       .debug$S                   0000000140000000     mfc140:mfc140.dll
 0000:ffdf0000       .debug$S                   0000000140000000     mfc140:mfc140.dll
 0000:ffdf0000       .debug$S                   0000000140000000     mfc140:mfc140.dll
 0000:ffdf0000       .debug$S                   0000000140000000     mfc140:mfc140.dll
 0000:ffdf0000       .debug$S                   0000000140000000     mfc140:mfc140.dll
 0000:ffdf0000       .debug$S                   0000000140000000     mfc140:mfc140.dll
 0000:ffdf0000       .debug$S                   0000000140000000     mfc140:mfc140.dll
 0000:ffdf0000       .debug$S                   0000000140000000     sqlncli11:sqlncli11.dll
 0000:ffdf0000       .debug$S                   0000000140000000     ucrt:api-ms-win-crt-heap-l1-1-0.dll
 0000:ffdf0000       .debug$S                   0000000140000000     mfc140:mfc140.dll
 0000:ffdf0000       .debug$S                   0000000140000000     ucrt:api-ms-win-crt-heap-l1-1-0.dll
 0000:ffdf0000       .debug$S                   0000000140000000     sqlncli11:sqlncli11.dll
 0000:ffdf0000       .debug$S                   0000000140000000     ucrt:api-ms-win-crt-locale-l1-1-0.dll
 0000:ffdf0000       .debug$S                   0000000140000000     mfc140:mfc140.dll
 0000:ffdf0000       .debug$S                   0000000140000000     ucrt:api-ms-win-crt-locale-l1-1-0.dll
 0000:ffdf0000       .debug$S                   0000000140000000     sqlncli11:sqlncli11.dll
 0000:ffdf0000       .debug$S                   0000000140000000     ucrt:api-ms-win-crt-locale-l1-1-0.dll
 0000:ffdf0000       .debug$S                   0000000140000000     mfc140:mfc140.dll
 0000:ffdf0000       .debug$S                   0000000140000000     ucrt:api-ms-win-crt-math-l1-1-0.dll
 0000:ffdf0000       .debug$S                   0000000140000000     sqlncli11:sqlncli11.dll
 0000:ffdf0000       .debug$S                   0000000140000000     ucrt:api-ms-win-crt-math-l1-1-0.dll
 0000:ffdf0000       .debug$S                   0000000140000000     mfc140:mfc140.dll
 0000:ffdf0000       .debug$S                   0000000140000000     ucrt:api-ms-win-crt-math-l1-1-0.dll
 0000:ffdf0000       .debug$S                   0000000140000000     mfc140:mfc140.dll
 0000:ffdf0000       .debug$S                   0000000140000000     ucrt:api-ms-win-crt-math-l1-1-0.dll
 0000:ffdf0000       .debug$S                   0000000140000000     mfc140:mfc140.dll
 0000:ffdf0000       .debug$S                   0000000140000000     ucrt:api-ms-win-crt-runtime-l1-1-0.dll
 0000:ffdf0000       .debug$S                   0000000140000000     sqlncli11:sqlncli11.dll
 0000:ffdf0000       .debug$S                   0000000140000000     ucrt:api-ms-win-crt-runtime-l1-1-0.dll
 0000:ffdf0000       .debug$S                   0000000140000000     mfc140:mfc140.dll
 0000:ffdf0000       .debug$S                   0000000140000000     ucrt:api-ms-win-crt-runtime-l1-1-0.dll
 0000:ffdf0000       .debug$S                   0000000140000000     KizuLib:WS2_32.dll
 0000:ffdf0000       .debug$S                   0000000140000000     ucrt:api-ms-win-crt-runtime-l1-1-0.dll
 0000:ffdf0000       .debug$S                   0000000140000000     mfc140:mfc140.dll
 0000:ffdf0000       .debug$S                   0000000140000000     mfc140:mfc140.dll
 0000:ffdf0000       .debug$S                   0000000140000000     mfc140:mfc140.dll
 0000:ffdf0000       .debug$S                   0000000140000000     mfc140:mfc140.dll
 0000:ffdf0000       .debug$S                   0000000140000000     ucrt:api-ms-win-crt-runtime-l1-1-0.dll
 0000:ffdf0000       .debug$S                   0000000140000000     mfc140:mfc140.dll
 0000:ffdf0000       .debug$S                   0000000140000000     mfc140:mfc140.dll
 0000:ffdf0000       .debug$S                   0000000140000000     mfc140:mfc140.dll
 0000:ffdf0000       .debug$S                   0000000140000000     KizuLib:WS2_32.dll
 0000:ffdf0000       .debug$S                   0000000140000000     ucrt:api-ms-win-crt-runtime-l1-1-0.dll
 0000:ffdf0000       .debug$S                   0000000140000000     KizuLib:WS2_32.dll
 0000:ffdf0000       .debug$S                   0000000140000000     KizuLib:WS2_32.dll
 0000:ffdf0000       .debug$S                   0000000140000000     KizuLib:WS2_32.dll
 0000:ffdf0000       .debug$S                   0000000140000000     KizuLib:WS2_32.dll
 0000:ffdf0000       .debug$S                   0000000140000000     ucrt:api-ms-win-crt-runtime-l1-1-0.dll
 0000:ffdf0000       .debug$S                   0000000140000000     KizuLib:WS2_32.dll
 0000:ffdf0000       .debug$S                   0000000140000000     KizuLib:WS2_32.dll
 0000:ffdf0000       .debug$S                   0000000140000000     KizuLib:WS2_32.dll
 0000:ffdf0000       .debug$S                   0000000140000000     KizuLib:WS2_32.dll
 0000:ffdf0000       .debug$S                   0000000140000000     ucrt:api-ms-win-crt-runtime-l1-1-0.dll
 0000:ffdf0000       .debug$S                   0000000140000000     mfc140:mfc140.dll
 0000:ffdf0000       .debug$S                   0000000140000000     mfc140:mfc140.dll
 0000:ffdf0000       .debug$S                   0000000140000000     mfc140:mfc140.dll
 0000:ffdf0000       .debug$S                   0000000140000000     mfc140:mfc140.dll
 0000:ffdf0000       .debug$S                   0000000140000000     ucrt:api-ms-win-crt-runtime-l1-1-0.dll
 0000:ffdf0000       .debug$S                   0000000140000000     mfc140:mfc140.dll
 0000:ffdf0000       .debug$S                   0000000140000000     ucrt:api-ms-win-crt-runtime-l1-1-0.dll
 0000:ffdf0000       .debug$S                   0000000140000000     mfc140:mfc140.dll
 0000:ffdf0000       .debug$S                   0000000140000000     ucrt:api-ms-win-crt-runtime-l1-1-0.dll
 0000:ffdf0000       .debug$S                   0000000140000000     mfc140:mfc140.dll
 0000:ffdf0000       .debug$S                   0000000140000000     ucrt:api-ms-win-crt-runtime-l1-1-0.dll
 0000:ffdf0000       .debug$S                   0000000140000000     mfc140:mfc140.dll
 0000:ffdf0000       .debug$S                   0000000140000000     ucrt:api-ms-win-crt-runtime-l1-1-0.dll
 0000:ffdf0000       .debug$S                   0000000140000000     mfc140:mfc140.dll
 0000:ffdf0000       .debug$S                   0000000140000000     ucrt:api-ms-win-crt-runtime-l1-1-0.dll
 0000:ffdf0000       .debug$S                   0000000140000000     KizuLib:WS2_32.dll
 0000:ffdf0000       .debug$S                   0000000140000000     KizuLib:WS2_32.dll
 0000:ffdf0000       .debug$S                   0000000140000000     KizuLib:WS2_32.dll
 0000:ffdf0000       .debug$S                   0000000140000000     ucrt:api-ms-win-crt-runtime-l1-1-0.dll
 0000:ffdf0000       .debug$S                   0000000140000000     KizuLib:WS2_32.dll
 0000:ffdf0000       .debug$S                   0000000140000000     ucrt:api-ms-win-crt-runtime-l1-1-0.dll
 0000:ffdf0000       .debug$S                   0000000140000000     KizuLib:WS2_32.dll
 0000:ffdf0000       .debug$S                   0000000140000000     mfc140:mfc140.dll
 0000:ffdf0000       .debug$S                   0000000140000000     KizuLib:WS2_32.dll
 0000:ffdf0000       .debug$S                   0000000140000000     KizuLib:WS2_32.dll
 0000:ffdf0000       .debug$S                   0000000140000000     ucrt:api-ms-win-crt-runtime-l1-1-0.dll
 0000:ffdf0000       .debug$S                   0000000140000000     KizuLib:WS2_32.dll
 0000:ffdf0000       .debug$S                   0000000140000000     ucrt:api-ms-win-crt-runtime-l1-1-0.dll
 0000:ffdf0000       .debug$S                   0000000140000000     KizuODBC:ODBC32.dll
 0000:ffdf0000       .debug$S                   0000000140000000     KizuODBC:ODBC32.dll
 0000:ffdf0000       .debug$S                   0000000140000000     KizuODBC:ODBC32.dll
 0000:ffdf0000       .debug$S                   0000000140000000     KizuODBC:ODBC32.dll
 0000:ffdf0000       .debug$S                   0000000140000000     ucrt:api-ms-win-crt-runtime-l1-1-0.dll
 0000:ffdf0000       .debug$S                   0000000140000000     KizuODBC:ODBC32.dll
 0000:ffdf0000       .debug$S                   0000000140000000     KizuODBC:ODBC32.dll
 0000:ffdf0000       .debug$S                   0000000140000000     KizuODBC:ODBC32.dll
 0000:ffdf0000       .debug$S                   0000000140000000     mfc140:mfc140.dll
 0000:ffdf0000       .debug$S                   0000000140000000     ucrt:api-ms-win-crt-runtime-l1-1-0.dll
 0000:ffdf0000       .debug$S                   0000000140000000     KizuODBC:ODBC32.dll
 0000:ffdf0000       .debug$S                   0000000140000000     ucrt:api-ms-win-crt-runtime-l1-1-0.dll
 0000:ffdf0000       .debug$S                   0000000140000000     KizuODBC:ODBC32.dll
 0000:ffdf0000       .debug$S                   0000000140000000     ucrt:api-ms-win-crt-runtime-l1-1-0.dll
 0000:ffdf0000       .debug$S                   0000000140000000     KizuODBC:ODBC32.dll
 0000:ffdf0000       .debug$S                   0000000140000000     ucrt:api-ms-win-crt-runtime-l1-1-0.dll
 0000:ffdf0000       .debug$S                   0000000140000000     ucrt:api-ms-win-crt-stdio-l1-1-0.dll
 0000:ffdf0000       .debug$S                   0000000140000000     ucrt:api-ms-win-crt-stdio-l1-1-0.dll
 0000:ffdf0000       .debug$S                   0000000140000000     ucrt:api-ms-win-crt-stdio-l1-1-0.dll
 0000:ffdf0000       .debug$S                   0000000140000000     ucrt:api-ms-win-crt-stdio-l1-1-0.dll
 0000:ffdf0000       .debug$S                   0000000140000000     KizuODBC:ODBC32.dll
 0000:ffdf0000       .debug$S                   0000000140000000     KizuODBC:ODBC32.dll
 0000:ffdf0000       .debug$S                   0000000140000000     mfc140:mfc140.dll
 0000:ffdf0000       .debug$S                   0000000140000000     KizuODBC:ODBC32.dll
 0000:ffdf0000       .debug$S                   0000000140000000     mfc140:mfc140.dll
 0000:ffdf0000       .debug$S                   0000000140000000     mfc140:mfc140.dll
 0000:ffdf0000       .debug$S                   0000000140000000     mfc140:mfc140.dll
 0000:ffdf0000       .debug$S                   0000000140000000     mfc140:mfc140.dll
 0000:ffdf0000       .debug$S                   0000000140000000     mfc140:mfc140.dll
 0000:ffdf0000       .debug$S                   0000000140000000     mfc140:mfc140.dll
 0000:ffdf0000       .debug$S                   0000000140000000     mfc140:mfc140.dll
 0000:ffdf0000       .debug$S                   0000000140000000     mfc140:mfc140.dll
 0000:ffdf0000       .debug$S                   0000000140000000     mfc140:mfc140.dll
 0000:ffdf0000       .debug$S                   0000000140000000     mfc140:mfc140.dll
 0000:ffdf0000       .debug$S                   0000000140000000     mfc140:mfc140.dll
 0000:ffdf0000       .debug$S                   0000000140000000     mfc140:mfc140.dll
 0000:ffdf0000       .debug$S                   0000000140000000     mfc140:mfc140.dll
 0000:ffdf0000       .debug$S                   0000000140000000     mfc140:mfc140.dll
 0000:ffdf0000       .debug$S                   0000000140000000     mfc140:mfc140.dll
 0000:ffdf0000       .debug$S                   0000000140000000     mfc140:mfc140.dll
 0000:ffdf0000       .debug$S                   0000000140000000     mfc140:mfc140.dll
 0000:ffdf0000       .debug$S                   0000000140000000     mfc140:mfc140.dll
 0000:ffdf0000       .debug$S                   0000000140000000     mfc140:mfc140.dll
 0000:ffdf0000       .debug$S                   0000000140000000     mfc140:mfc140.dll
 0000:ffdf0000       .debug$S                   0000000140000000     mfc140:mfc140.dll
 0000:ffdf0000       .debug$S                   0000000140000000     mfc140:mfc140.dll
 0000:ffdf0000       .debug$S                   0000000140000000     mfc140:mfc140.dll
 0000:ffdf0000       .debug$S                   0000000140000000     mfc140:mfc140.dll
 0000:ffdf0000       .debug$S                   0000000140000000     mfc140:mfc140.dll
 0000:ffdf0000       .debug$S                   0000000140000000     mfc140:mfc140.dll
 0000:ffdf0000       .debug$S                   0000000140000000     mfc140:mfc140.dll
 0000:ffdf0000       .debug$S                   0000000140000000     mfc140:mfc140.dll
 0000:ffdf0000       .debug$S                   0000000140000000     mfc140:mfc140.dll
 0000:ffdf0000       .debug$S                   0000000140000000     mfc140:mfc140.dll
 0000:ffdf0000       .debug$S                   0000000140000000     mfc140:mfc140.dll
 0000:ffdf0000       .debug$S                   0000000140000000     mfc140:mfc140.dll
 0000:ffdf0000       .debug$S                   0000000140000000     mfc140:mfc140.dll
 0000:ffdf0000       .debug$S                   0000000140000000     ucrt:api-ms-win-crt-stdio-l1-1-0.dll
 0000:ffdf0000       .debug$S                   0000000140000000     KizuODBC:ODBC32.dll
 0000:ffdf0000       .debug$S                   0000000140000000     ucrt:api-ms-win-crt-stdio-l1-1-0.dll
 0000:ffdf0000       .debug$S                   0000000140000000     mfc140:mfc140.dll
 0000:ffdf0000       .debug$S                   0000000140000000     ucrt:api-ms-win-crt-stdio-l1-1-0.dll
 0000:ffdf0000       .debug$S                   0000000140000000     KizuODBC:ODBC32.dll
 0000:ffdf0000       .debug$S                   0000000140000000     ucrt:api-ms-win-crt-stdio-l1-1-0.dll
 0000:ffdf0000       .debug$S                   0000000140000000     KizuODBC:ODBC32.dll
 0000:ffdf0000       .debug$S                   0000000140000000     ucrt:api-ms-win-crt-stdio-l1-1-0.dll
 0000:ffdf0000       .debug$S                   0000000140000000     KizuODBC:ODBC32.dll
 0000:ffdf0000       .debug$S                   0000000140000000     ucrt:api-ms-win-crt-stdio-l1-1-0.dll
 0000:ffdf0000       .debug$S                   0000000140000000     KizuODBC:ODBC32.dll
 0000:ffdf0000       .debug$S                   0000000140000000     ucrt:api-ms-win-crt-stdio-l1-1-0.dll
 0000:ffdf0000       .debug$S                   0000000140000000     mfc140:mfc140.dll
 0000:ffdf0000       .debug$S                   0000000140000000     mfc140:mfc140.dll
 0000:ffdf0000       .debug$S                   0000000140000000     KizuODBC:ODBC32.dll
 0000:ffdf0000       .debug$S                   0000000140000000     KizuODBC:ODBC32.dll
 0000:ffdf0000       .debug$S                   0000000140000000     ucrt:api-ms-win-crt-stdio-l1-1-0.dll
 0000:ffdf0000       .debug$S                   0000000140000000     KizuODBC:ODBC32.dll
 0000:ffdf0000       .debug$S                   0000000140000000     mfc140:mfc140.dll
 0000:ffdf0000       .debug$S                   0000000140000000     mfc140:mfc140.dll
 0000:ffdf0000       .debug$S                   0000000140000000     mfc140:mfc140.dll
 0000:ffdf0000       .debug$S                   0000000140000000     ucrt:api-ms-win-crt-stdio-l1-1-0.dll
 0000:ffdf0000       .debug$S                   0000000140000000     mfc140:mfc140.dll
 0000:ffdf0000       .debug$S                   0000000140000000     ucrt:api-ms-win-crt-stdio-l1-1-0.dll
 0000:ffdf0000       .debug$S                   0000000140000000     KizuSOCK3:WS2_32.dll
 0000:ffdf0000       .debug$S                   0000000140000000     ucrt:api-ms-win-crt-stdio-l1-1-0.dll
 0000:ffdf0000       .debug$S                   0000000140000000     KizuSOCK3:WS2_32.dll
 0000:ffdf0000       .debug$S                   0000000140000000     ucrt:api-ms-win-crt-stdio-l1-1-0.dll
 0000:ffdf0000       .debug$S                   0000000140000000     KizuSOCK3:WS2_32.dll
 0000:ffdf0000       .debug$S                   0000000140000000     ucrt:api-ms-win-crt-stdio-l1-1-0.dll
 0000:ffdf0000       .debug$S                   0000000140000000     KizuSOCK3:WS2_32.dll
 0000:ffdf0000       .debug$S                   0000000140000000     KizuSOCK3:WS2_32.dll
 0000:ffdf0000       .debug$S                   0000000140000000     mfc140:mfc140.dll
 0000:ffdf0000       .debug$S                   0000000140000000     mfc140:mfc140.dll
 0000:ffdf0000       .debug$S                   0000000140000000     ucrt:api-ms-win-crt-stdio-l1-1-0.dll
 0000:ffdf0000       .debug$S                   0000000140000000     mfc140:mfc140.dll
 0002:fff9c000       .idata$6                   0000000140000000     ucrt:api-ms-win-crt-string-l1-1-0.dll
 0000:ffdf0000       .debug$S                   0000000140000000     mfc140:mfc140.dll
 0000:ffdf0000       .debug$S                   0000000140000000     mfc140:mfc140.dll
 0000:ffdf0000       .debug$S                   0000000140000000     mfc140:mfc140.dll
 0000:ffdf0000       .debug$S                   0000000140000000     mfc140:mfc140.dll
 0000:ffdf0000       .debug$S                   0000000140000000     ucrt:api-ms-win-crt-string-l1-1-0.dll
 0000:ffdf0000       .debug$S                   0000000140000000     mfc140:mfc140.dll
 0000:ffdf0000       .debug$S                   0000000140000000     ucrt:api-ms-win-crt-time-l1-1-0.dll
 0000:ffdf0000       .debug$S                   0000000140000000     mfc140:mfc140.dll
 0000:ffdf0000       .debug$S                   0000000140000000     mfc140:mfc140.dll
 0000:ffdf0000       .debug$S                   0000000140000000     mfc140:mfc140.dll
 0000:ffdf0000       .debug$S                   0000000140000000     mfc140:mfc140.dll
 0000:ffdf0000       .debug$S                   0000000140000000     ucrt:api-ms-win-crt-time-l1-1-0.dll
 0000:ffdf0000       .debug$S                   0000000140000000     mfc140:mfc140.dll
 0000:ffdf0000       .debug$S                   0000000140000000     mfc140:mfc140.dll
 0000:ffdf0000       .debug$S                   0000000140000000     mfc140:mfc140.dll
 0000:ffdf0000       .debug$S                   0000000140000000     mfc140:mfc140.dll
 0000:ffdf0000       .debug$S                   0000000140000000     ucrt:api-ms-win-crt-time-l1-1-0.dll
 0000:ffdf0000       .debug$S                   0000000140000000     mfc140:mfc140.dll
 0000:ffdf0000       .debug$S                   0000000140000000     mfc140:mfc140.dll
 0000:ffdf0000       .debug$S                   0000000140000000     mfc140:mfc140.dll
 0002:fff9c000       .idata$6                   0000000140000000     ucrt:api-ms-win-crt-utility-l1-1-0.dll
 0000:ffdf0000       .debug$S                   0000000140000000     ucrt:api-ms-win-crt-utility-l1-1-0.dll
 0000:ffdf0000       .debug$S                   0000000140000000     vcruntime:VCRUNTIME140.dll
 0000:ffdf0000       .debug$S                   0000000140000000     vcruntime:VCRUNTIME140.dll
 0000:ffdf0000       .debug$S                   0000000140000000     mfc140:mfc140.dll
 0000:ffdf0000       .debug$S                   0000000140000000     mfc140:mfc140.dll
 0000:ffdf0000       .debug$S                   0000000140000000     mfc140:mfc140.dll
 0000:ffdf0000       .debug$S                   0000000140000000     mfc140:mfc140.dll
 0000:ffdf0000       .debug$S                   0000000140000000     mfc140:mfc140.dll
 0000:ffdf0000       .debug$S                   0000000140000000     mfc140:mfc140.dll
 0000:ffdf0000       .debug$S                   0000000140000000     mfc140:mfc140.dll
 0000:ffdf0000       .debug$S                   0000000140000000     mfc140:mfc140.dll
 0000:ffdf0000       .debug$S                   0000000140000000     mfc140:mfc140.dll
 0000:ffdf0000       .debug$S                   0000000140000000     mfc140:mfc140.dll
 0000:ffdf0000       .debug$S                   0000000140000000     mfc140:mfc140.dll
 0000:ffdf0000       .debug$S                   0000000140000000     mfc140:mfc140.dll
 0000:ffdf0000       .debug$S                   0000000140000000     mfc140:mfc140.dll
 0000:ffdf0000       .debug$S                   0000000140000000     mfc140:mfc140.dll
 0000:ffdf0000       .debug$S                   0000000140000000     mfc140:mfc140.dll
 0000:ffdf0000       .debug$S                   0000000140000000     mfc140:mfc140.dll
 0000:ffdf0000       .debug$S                   0000000140000000     mfc140:mfc140.dll
 0000:ffdf0000       .debug$S                   0000000140000000     mfc140:mfc140.dll
 0000:ffdf0000       .debug$S                   0000000140000000     mfc140:mfc140.dll
 0000:ffdf0000       .debug$S                   0000000140000000     mfc140:mfc140.dll
 0000:ffdf0000       .debug$S                   0000000140000000     mfc140:mfc140.dll
 0000:ffdf0000       .debug$S                   0000000140000000     mfc140:mfc140.dll
 0000:ffdf0000       .debug$S                   0000000140000000     mfc140:mfc140.dll
 0000:ffdf0000       .debug$S                   0000000140000000     mfc140:mfc140.dll
 0000:ffdf0000       .debug$S                   0000000140000000     mfc140:mfc140.dll
 0000:ffdf0000       .debug$S                   0000000140000000     mfc140:mfc140.dll
 0000:ffdf0000       .debug$S                   0000000140000000     mfc140:mfc140.dll
 0000:ffdf0000       .debug$S                   0000000140000000     vcruntime:VCRUNTIME140.dll
 0000:ffdf0000       .debug$S                   0000000140000000     mfc140:mfc140.dll
 0000:ffdf0000       .debug$S                   0000000140000000     mfc140:mfc140.dll
 0000:ffdf0000       .debug$S                   0000000140000000     mfc140:mfc140.dll
 0000:ffdf0000       .debug$S                   0000000140000000     mfc140:mfc140.dll
 0000:ffdf0000       .debug$S                   0000000140000000     vcruntime:VCRUNTIME140.dll
 0000:ffdf0000       .debug$S                   0000000140000000     mfc140:mfc140.dll
 0000:ffdf0000       .debug$S                   0000000140000000     vcruntime:VCRUNTIME140.dll
 0000:ffdf0000       .debug$S                   0000000140000000     mfc140:mfc140.dll
 0000:ffdf0000       .debug$S                   0000000140000000     vcruntime:VCRUNTIME140.dll
 0000:ffdf0000       .debug$S                   0000000140000000     mfc140:mfc140.dll
 0000:ffdf0000       .debug$S                   0000000140000000     vcruntime:VCRUNTIME140.dll
 0000:ffdf0000       .debug$S                   0000000140000000     mfc140:mfc140.dll
 0000:ffdf0000       .debug$S                   0000000140000000     vcruntime:VCRUNTIME140.dll
 0000:ffdf0000       .debug$S                   0000000140000000     mfc140:mfc140.dll
 0000:ffdf0000       .debug$S                   0000000140000000     vcruntime:VCRUNTIME140.dll
 0000:ffdf0000       .debug$S                   0000000140000000     mfc140:mfc140.dll
 0000:ffdf0000       .debug$S                   0000000140000000     vcruntime:VCRUNTIME140.dll
 0000:ffdf0000       .debug$S                   0000000140000000     mfc140:mfc140.dll
 0000:ffdf0000       .debug$S                   0000000140000000     vcruntime:VCRUNTIME140.dll
 0000:ffdf0000       .debug$S                   0000000140000000     mfc140:mfc140.dll
 0000:ffdf0000       .debug$S                   0000000140000000     vcruntime:VCRUNTIME140.dll
 0000:ffdf0000       .debug$S                   0000000140000000     mfc140:mfc140.dll
 0000:ffdf0000       .debug$S                   0000000140000000     mfc140:mfc140.dll
 0000:ffdf0000       .debug$S                   0000000140000000     mfc140:mfc140.dll
 0000:ffdf0000       .debug$S                   0000000140000000     mfc140:mfc140.dll
 0000:ffdf0000       .debug$S                   0000000140000000     vcruntime:VCRUNTIME140.dll
 0000:ffdf0000       .debug$S                   0000000140000000     mfc140:mfc140.dll
 0000:ffdf0000       .debug$S                   0000000140000000     mfc140:mfc140.dll
 0000:ffdf0000       .debug$S                   0000000140000000     mfc140:mfc140.dll
 0000:ffdf0000       .debug$S                   0000000140000000     msvcprt:MSVCP140.dll
 0000:ffdf0000       .debug$S                   0000000140000000     msvcprt:MSVCP140.dll
 0000:ffdf0000       .debug$S                   0000000140000000     msvcprt:MSVCP140.dll
 0000:ffdf0000       .debug$S                   0000000140000000     msvcprt:MSVCP140.dll
 0000:ffdf0000       .debug$S                   0000000140000000     mfc140:mfc140.dll
 0000:ffdf0000       .debug$S                   0000000140000000     mfc140:mfc140.dll
 0000:ffdf0000       .debug$S                   0000000140000000     mfc140:mfc140.dll
 0000:ffdf0000       .debug$S                   0000000140000000     mfc140:mfc140.dll
 0000:ffdf0000       .debug$S                   0000000140000000     mfc140:mfc140.dll
 0000:ffdf0000       .debug$S                   0000000140000000     mfc140:mfc140.dll
 0000:ffdf0000       .debug$S                   0000000140000000     mfc140:mfc140.dll
 0000:ffdf0000       .debug$S                   0000000140000000     mfc140:mfc140.dll
 0000:ffdf0000       .debug$S                   0000000140000000     mfc140:mfc140.dll
 0000:ffdf0000       .debug$S                   0000000140000000     mfc140:mfc140.dll
 0000:ffdf0000       .debug$S                   0000000140000000     mfc140:mfc140.dll
 0000:ffdf0000       .debug$S                   0000000140000000     mfc140:mfc140.dll
 0000:ffdf0000       .debug$S                   0000000140000000     mfc140:mfc140.dll
 0000:ffdf0000       .debug$S                   0000000140000000     mfc140:mfc140.dll
 0000:ffdf0000       .debug$S                   0000000140000000     mfc140:mfc140.dll
 0000:ffdf0000       .debug$S                   0000000140000000     mfc140:mfc140.dll
 0000:ffdf0000       .debug$S                   0000000140000000     mfc140:mfc140.dll
